ASxxxx Linker V02.00 + NoICE + sdld,  page 1.
Hexadecimal

Area                               Addr   Size   Decimal Bytes (Attributes)
--------------------------------   ----   ----   ------- ----- ------------
CABS                               0000   0000 =      0. bytes (ABS,CON,CODE)

      Value  Global                              Global Defined In Module
      -----  ---------------------------------   ------------------------
       0C:  0000  l_BIT_BANK                       
       0C:  0000  l_CABS                           
       0C:  0000  l_GSINIT1                        
       0C:  0000  l_GSINIT5                        
       0C:  0000  l_IABS                           
       0C:  0000  l_ISEG                           
       0C:  0000  l_RSEG                           
       0C:  0000  l_RSEG0                          
       0C:  0000  l_RSEG1                          
       0C:  0000  l_XABS                           
       0C:  0000  l__CODE                          
       0C:  0000  s_BSEG                           
       0C:  0000  s_CABS                           
       0C:  0000  s_DSEG                           
       0C:  0000  s_IABS                           
       0C:  0000  s_ISEG                           
       0C:  0000  s_REG_BANK_0                     
       0C:  0000  s_RSEG                           
       0C:  0000  s_RSEG0                          
       0C:  0000  s_RSEG1                          
       0C:  0000  s_XABS                           
       0C:  0003  l_BSEG_BYTES                     
       0C:  0003  l_GSFINAL                        
       0C:  0003  l_GSINIT0                        
       0C:  0004  l_OSEG                           
       0C:  0008  l_REG_BANK_0                     
       0C:  0008  l_REG_BANK_1                     
       0C:  0008  l_REG_BANK_2                     
       0C:  0008  l_REG_BANK_3                     
       0C:  0008  s_REG_BANK_1                     
       0C:  0009  l_XINIT                          
       0C:  0009  l_XISEG                          
       0C:  000A  l_GSINIT2                        
       0C:  0010  s_REG_BANK_2                     
       0C:  0013  l_BSEG                           
       0C:  0018  s_BIT_BANK                       
       0C:  0018  s_REG_BANK_3                     
       0C:  0020  s_BSEG_BYTES                     
       0C:  0020  s__CODE                          
       0C:  0022  l_GSINIT3                        
       0C:  002A  l_GSINIT4                        
       0C:  002B  s_OSEG                           
       0C:  002F  s_SSEG                           
       0C:  0034  l_GSINIT                         
       0C:  0042  l_PSEG                           
       0C:  0051  l_XSEG                           
       0C:  006D  l_HOME                           
       0C:  0080  l_DSEG                           
       0C:  00A5  l_CONST                          
       0C:  00D1  l_SSEG                           
ASxxxx Linker V02.00 + NoICE + sdld,  page 2.
Hexadecimal

Area                               Addr   Size   Decimal Bytes (Attributes)
--------------------------------   ----   ----   ------- ----- ------------
CABS                               0000   0000 =      0. bytes (ABS,CON,CODE)

      Value  Global                              Global Defined In Module
      -----  ---------------------------------   ------------------------
       0C:  0100  l_IRAM                           
       0C:  0400  s_HOME                           
       0C:  046D  s_GSINIT0                        
       0C:  0470  s_GSINIT1                        
       0C:  0470  s_GSINIT2                        
       0C:  047A  s_GSINIT3                        
       0C:  049C  s_GSINIT4                        
       0C:  04C6  s_GSINIT                         
       0C:  04C6  s_GSINIT5                        
       0C:  04FA  s_GSFINAL                        
       0C:  04FD  s_CSEG                           
       0C:  1484  l_CSEG                           
       0C:  1981  s_CONST                          
       0C:  1A26  s_XINIT                          
       0C:  F000  s_PSEG                           
       0C:  F000  s_XSEG                           
       0C:  F093  s_XISEG                          

ASxxxx Linker V02.00 + NoICE + sdld,  page 3.
Hexadecimal

Area                               Addr   Size   Decimal Bytes (Attributes)
--------------------------------   ----   ----   ------- ----- ------------
XABS                               0000   0000 =      0. bytes (ABS,CON,XDATA)

      Value  Global                              Global Defined In Module
      -----  ---------------------------------   ------------------------
ASxxxx Linker V02.00 + NoICE + sdld,  page 4.
Hexadecimal

Area                               Addr   Size   Decimal Bytes (Attributes)
--------------------------------   ----   ----   ------- ----- ------------
IABS                               0000   0000 =      0. bytes (ABS,CON)

      Value  Global                              Global Defined In Module
      -----  ---------------------------------   ------------------------
ASxxxx Linker V02.00 + NoICE + sdld,  page 5.
Hexadecimal

Area                               Addr   Size   Decimal Bytes (Attributes)
--------------------------------   ----   ----   ------- ----- ------------
RSEG1                              0000   0000 =      0. bytes (ABS,CON)

      Value  Global                              Global Defined In Module
      -----  ---------------------------------   ------------------------
ASxxxx Linker V02.00 + NoICE + sdld,  page 6.
Hexadecimal

Area                               Addr   Size   Decimal Bytes (Attributes)
--------------------------------   ----   ----   ------- ----- ------------
RSEG0                              0000   0000 =      0. bytes (ABS,CON)

      Value  Global                              Global Defined In Module
      -----  ---------------------------------   ------------------------
ASxxxx Linker V02.00 + NoICE + sdld,  page 7.
Hexadecimal

Area                               Addr   Size   Decimal Bytes (Attributes)
--------------------------------   ----   ----   ------- ----- ------------
RSEG                               0000   0000 =      0. bytes (ABS,CON)

      Value  Global                              Global Defined In Module
      -----  ---------------------------------   ------------------------
ASxxxx Linker V02.00 + NoICE + sdld,  page 8.
Hexadecimal

Area                               Addr   Size   Decimal Bytes (Attributes)
--------------------------------   ----   ----   ------- ----- ------------
.	.ABS.                            0000   0000 =      0. bytes (ABS,CON)

      Value  Global                              Global Defined In Module
      -----  ---------------------------------   ------------------------
            FFFFADAC  Fadc$FADDR$0$0                   
            FFFFADAC  Fboard$FADDR$0$0                 
            FFFFADAC  Fdma$FADDR$0$0                   
            FFFFADAC  Fgreen_led$FADDR$0$0             
            FFFFADAC  Ftest_acc$FADDR$0$0              
            FFFFADAC  Ftime$FADDR$0$0                  
            FFFFADAC  Fusb$FADDR$0$0                   
            FFFFADAC  Fusb_cdc_acm$FADDR$0$0           
            FFFFBBBA  Fadc$ADC$0$0                     
            FFFFBBBA  Fboard$ADC$0$0                   
            FFFFBBBA  Fdma$ADC$0$0                     
            FFFFBBBA  Fgreen_led$ADC$0$0               
            FFFFBBBA  Ftest_acc$ADC$0$0                
            FFFFBBBA  Ftime$ADC$0$0                    
            FFFFBBBA  Fusb$ADC$0$0                     
            FFFFBBBA  Fusb_cdc_acm$ADC$0$0             
            FFFFD3D2  Fadc$DMA1CFG$0$0                 
            FFFFD3D2  Fboard$DMA1CFG$0$0               
            FFFFD3D2  Fdma$DMA1CFG$0$0                 
            FFFFD3D2  Fgreen_led$DMA1CFG$0$0           
            FFFFD3D2  Ftest_acc$DMA1CFG$0$0            
            FFFFD3D2  Ftime$DMA1CFG$0$0                
            FFFFD3D2  Fusb$DMA1CFG$0$0                 
            FFFFD3D2  Fusb_cdc_acm$DMA1CFG$0$0         
            FFFFD5D4  Fadc$DMA0CFG$0$0                 
            FFFFD5D4  Fboard$DMA0CFG$0$0               
            FFFFD5D4  Fdma$DMA0CFG$0$0                 
            FFFFD5D4  Fgreen_led$DMA0CFG$0$0           
            FFFFD5D4  Ftest_acc$DMA0CFG$0$0            
            FFFFD5D4  Ftime$DMA0CFG$0$0                
            FFFFD5D4  Fusb$DMA0CFG$0$0                 
            FFFFD5D4  Fusb_cdc_acm$DMA0CFG$0$0         
            0000  .__.ABS.                         
            0080  Fadc$P0$0$0                      
            0080  Fadc$P0_0$0$0                    
            0080  Fboard$P0$0$0                    
            0080  Fboard$P0_0$0$0                  
            0080  Fdma$P0$0$0                      
            0080  Fdma$P0_0$0$0                    
            0080  Fgreen_led$P0$0$0                
            0080  Fgreen_led$P0_0$0$0              
            0080  Ftest_acc$P0$0$0                 
            0080  Ftest_acc$P0_0$0$0               
            0080  Ftime$P0$0$0                     
            0080  Ftime$P0_0$0$0                   
            0080  Fusb$P0$0$0                      
            0080  Fusb$P0_0$0$0                    
            0080  Fusb_cdc_acm$P0$0$0              
            0080  Fusb_cdc_acm$P0_0$0$0            
            0081  Fadc$P0_1$0$0                    
ASxxxx Linker V02.00 + NoICE + sdld,  page 9.
Hexadecimal

Area                               Addr   Size   Decimal Bytes (Attributes)
--------------------------------   ----   ----   ------- ----- ------------
.	.ABS.                            0000   0000 =      0. bytes (ABS,CON)

      Value  Global                              Global Defined In Module
      -----  ---------------------------------   ------------------------
            0081  Fadc$SP$0$0                      
            0081  Fboard$P0_1$0$0                  
            0081  Fboard$SP$0$0                    
            0081  Fdma$P0_1$0$0                    
            0081  Fdma$SP$0$0                      
            0081  Fgreen_led$P0_1$0$0              
            0081  Fgreen_led$SP$0$0                
            0081  Ftest_acc$P0_1$0$0               
            0081  Ftest_acc$SP$0$0                 
            0081  Ftime$P0_1$0$0                   
            0081  Ftime$SP$0$0                     
            0081  Fusb$P0_1$0$0                    
            0081  Fusb$SP$0$0                      
            0081  Fusb_cdc_acm$P0_1$0$0            
            0081  Fusb_cdc_acm$SP$0$0              
            0082  Fadc$DPL0$0$0                    
            0082  Fadc$P0_2$0$0                    
            0082  Fboard$DPL0$0$0                  
            0082  Fboard$P0_2$0$0                  
            0082  Fdma$DPL0$0$0                    
            0082  Fdma$P0_2$0$0                    
            0082  Fgreen_led$DPL0$0$0              
            0082  Fgreen_led$P0_2$0$0              
            0082  Ftest_acc$DPL0$0$0               
            0082  Ftest_acc$P0_2$0$0               
            0082  Ftime$DPL0$0$0                   
            0082  Ftime$P0_2$0$0                   
            0082  Fusb$DPL0$0$0                    
            0082  Fusb$P0_2$0$0                    
            0082  Fusb_cdc_acm$DPL0$0$0            
            0082  Fusb_cdc_acm$P0_2$0$0            
            0083  Fadc$DPH0$0$0                    
            0083  Fadc$P0_3$0$0                    
            0083  Fboard$DPH0$0$0                  
            0083  Fboard$P0_3$0$0                  
            0083  Fdma$DPH0$0$0                    
            0083  Fdma$P0_3$0$0                    
            0083  Fgreen_led$DPH0$0$0              
            0083  Fgreen_led$P0_3$0$0              
            0083  Ftest_acc$DPH0$0$0               
            0083  Ftest_acc$P0_3$0$0               
            0083  Ftime$DPH0$0$0                   
            0083  Ftime$P0_3$0$0                   
            0083  Fusb$DPH0$0$0                    
            0083  Fusb$P0_3$0$0                    
            0083  Fusb_cdc_acm$DPH0$0$0            
            0083  Fusb_cdc_acm$P0_3$0$0            
            0084  Fadc$DPL1$0$0                    
            0084  Fadc$P0_4$0$0                    
            0084  Fboard$DPL1$0$0                  
            0084  Fboard$P0_4$0$0                  
ASxxxx Linker V02.00 + NoICE + sdld,  page 10.
Hexadecimal

Area                               Addr   Size   Decimal Bytes (Attributes)
--------------------------------   ----   ----   ------- ----- ------------
.	.ABS.                            0000   0000 =      0. bytes (ABS,CON)

      Value  Global                              Global Defined In Module
      -----  ---------------------------------   ------------------------
            0084  Fdma$DPL1$0$0                    
            0084  Fdma$P0_4$0$0                    
            0084  Fgreen_led$DPL1$0$0              
            0084  Fgreen_led$P0_4$0$0              
            0084  Ftest_acc$DPL1$0$0               
            0084  Ftest_acc$P0_4$0$0               
            0084  Ftime$DPL1$0$0                   
            0084  Ftime$P0_4$0$0                   
            0084  Fusb$DPL1$0$0                    
            0084  Fusb$P0_4$0$0                    
            0084  Fusb_cdc_acm$DPL1$0$0            
            0084  Fusb_cdc_acm$P0_4$0$0            
            0085  Fadc$DPH1$0$0                    
            0085  Fadc$P0_5$0$0                    
            0085  Fboard$DPH1$0$0                  
            0085  Fboard$P0_5$0$0                  
            0085  Fdma$DPH1$0$0                    
            0085  Fdma$P0_5$0$0                    
            0085  Fgreen_led$DPH1$0$0              
            0085  Fgreen_led$P0_5$0$0              
            0085  Ftest_acc$DPH1$0$0               
            0085  Ftest_acc$P0_5$0$0               
            0085  Ftime$DPH1$0$0                   
            0085  Ftime$P0_5$0$0                   
            0085  Fusb$DPH1$0$0                    
            0085  Fusb$P0_5$0$0                    
            0085  Fusb_cdc_acm$DPH1$0$0            
            0085  Fusb_cdc_acm$P0_5$0$0            
            0086  Fadc$P0_6$0$0                    
            0086  Fadc$U0CSR$0$0                   
            0086  Fboard$P0_6$0$0                  
            0086  Fboard$U0CSR$0$0                 
            0086  Fdma$P0_6$0$0                    
            0086  Fdma$U0CSR$0$0                   
            0086  Fgreen_led$P0_6$0$0              
            0086  Fgreen_led$U0CSR$0$0             
            0086  Ftest_acc$P0_6$0$0               
            0086  Ftest_acc$U0CSR$0$0              
            0086  Ftime$P0_6$0$0                   
            0086  Ftime$U0CSR$0$0                  
            0086  Fusb$P0_6$0$0                    
            0086  Fusb$U0CSR$0$0                   
            0086  Fusb_cdc_acm$P0_6$0$0            
            0086  Fusb_cdc_acm$U0CSR$0$0           
            0087  Fadc$P0_7$0$0                    
            0087  Fadc$PCON$0$0                    
            0087  Fboard$P0_7$0$0                  
            0087  Fboard$PCON$0$0                  
            0087  Fdma$P0_7$0$0                    
            0087  Fdma$PCON$0$0                    
            0087  Fgreen_led$P0_7$0$0              
ASxxxx Linker V02.00 + NoICE + sdld,  page 11.
Hexadecimal

Area                               Addr   Size   Decimal Bytes (Attributes)
--------------------------------   ----   ----   ------- ----- ------------
.	.ABS.                            0000   0000 =      0. bytes (ABS,CON)

      Value  Global                              Global Defined In Module
      -----  ---------------------------------   ------------------------
            0087  Fgreen_led$PCON$0$0              
            0087  Ftest_acc$P0_7$0$0               
            0087  Ftest_acc$PCON$0$0               
            0087  Ftime$P0_7$0$0                   
            0087  Ftime$PCON$0$0                   
            0087  Fusb$P0_7$0$0                    
            0087  Fusb$PCON$0$0                    
            0087  Fusb_cdc_acm$P0_7$0$0            
            0087  Fusb_cdc_acm$PCON$0$0            
            0088  Fadc$TCON$0$0                    
            0088  Fadc$_TCON_0$0$0                 
            0088  Fboard$TCON$0$0                  
            0088  Fboard$_TCON_0$0$0               
            0088  Fdma$TCON$0$0                    
            0088  Fdma$_TCON_0$0$0                 
            0088  Fgreen_led$TCON$0$0              
            0088  Fgreen_led$_TCON_0$0$0           
            0088  Ftest_acc$TCON$0$0               
            0088  Ftest_acc$_TCON_0$0$0            
            0088  Ftime$TCON$0$0                   
            0088  Ftime$_TCON_0$0$0                
            0088  Fusb$TCON$0$0                    
            0088  Fusb$_TCON_0$0$0                 
            0088  Fusb_cdc_acm$TCON$0$0            
            0088  Fusb_cdc_acm$_TCON_0$0$0         
            0089  Fadc$P0IFG$0$0                   
            0089  Fadc$RFTXRXIF$0$0                
            0089  Fboard$P0IFG$0$0                 
            0089  Fboard$RFTXRXIF$0$0              
            0089  Fdma$P0IFG$0$0                   
            0089  Fdma$RFTXRXIF$0$0                
            0089  Fgreen_led$P0IFG$0$0             
            0089  Fgreen_led$RFTXRXIF$0$0          
            0089  Ftest_acc$P0IFG$0$0              
            0089  Ftest_acc$RFTXRXIF$0$0           
            0089  Ftime$P0IFG$0$0                  
            0089  Ftime$RFTXRXIF$0$0               
            0089  Fusb$P0IFG$0$0                   
            0089  Fusb$RFTXRXIF$0$0                
            0089  Fusb_cdc_acm$P0IFG$0$0           
            0089  Fusb_cdc_acm$RFTXRXIF$0$0        
            008A  Fadc$P1IFG$0$0                   
            008A  Fadc$_TCON_2$0$0                 
            008A  Fboard$P1IFG$0$0                 
            008A  Fboard$_TCON_2$0$0               
            008A  Fdma$P1IFG$0$0                   
            008A  Fdma$_TCON_2$0$0                 
            008A  Fgreen_led$P1IFG$0$0             
            008A  Fgreen_led$_TCON_2$0$0           
            008A  Ftest_acc$P1IFG$0$0              
            008A  Ftest_acc$_TCON_2$0$0            
ASxxxx Linker V02.00 + NoICE + sdld,  page 12.
Hexadecimal

Area                               Addr   Size   Decimal Bytes (Attributes)
--------------------------------   ----   ----   ------- ----- ------------
.	.ABS.                            0000   0000 =      0. bytes (ABS,CON)

      Value  Global                              Global Defined In Module
      -----  ---------------------------------   ------------------------
            008A  Ftime$P1IFG$0$0                  
            008A  Ftime$_TCON_2$0$0                
            008A  Fusb$P1IFG$0$0                   
            008A  Fusb$_TCON_2$0$0                 
            008A  Fusb_cdc_acm$P1IFG$0$0           
            008A  Fusb_cdc_acm$_TCON_2$0$0         
            008B  Fadc$P2IFG$0$0                   
            008B  Fadc$URX0IF$0$0                  
            008B  Fboard$P2IFG$0$0                 
            008B  Fboard$URX0IF$0$0                
            008B  Fdma$P2IFG$0$0                   
            008B  Fdma$URX0IF$0$0                  
            008B  Fgreen_led$P2IFG$0$0             
            008B  Fgreen_led$URX0IF$0$0            
            008B  Ftest_acc$P2IFG$0$0              
            008B  Ftest_acc$URX0IF$0$0             
            008B  Ftime$P2IFG$0$0                  
            008B  Ftime$URX0IF$0$0                 
            008B  Fusb$P2IFG$0$0                   
            008B  Fusb$URX0IF$0$0                  
            008B  Fusb_cdc_acm$P2IFG$0$0           
            008B  Fusb_cdc_acm$URX0IF$0$0          
            008C  Fadc$PICTL$0$0                   
            008C  Fadc$_TCON_4$0$0                 
            008C  Fboard$PICTL$0$0                 
            008C  Fboard$_TCON_4$0$0               
            008C  Fdma$PICTL$0$0                   
            008C  Fdma$_TCON_4$0$0                 
            008C  Fgreen_led$PICTL$0$0             
            008C  Fgreen_led$_TCON_4$0$0           
            008C  Ftest_acc$PICTL$0$0              
            008C  Ftest_acc$_TCON_4$0$0            
            008C  Ftime$PICTL$0$0                  
            008C  Ftime$_TCON_4$0$0                
            008C  Fusb$PICTL$0$0                   
            008C  Fusb$_TCON_4$0$0                 
            008C  Fusb_cdc_acm$PICTL$0$0           
            008C  Fusb_cdc_acm$_TCON_4$0$0         
            008D  Fadc$ADCIF$0$0                   
            008D  Fadc$P1IEN$0$0                   
            008D  Fboard$ADCIF$0$0                 
            008D  Fboard$P1IEN$0$0                 
            008D  Fdma$ADCIF$0$0                   
            008D  Fdma$P1IEN$0$0                   
            008D  Fgreen_led$ADCIF$0$0             
            008D  Fgreen_led$P1IEN$0$0             
            008D  Ftest_acc$ADCIF$0$0              
            008D  Ftest_acc$P1IEN$0$0              
            008D  Ftime$ADCIF$0$0                  
            008D  Ftime$P1IEN$0$0                  
            008D  Fusb$ADCIF$0$0                   
ASxxxx Linker V02.00 + NoICE + sdld,  page 13.
Hexadecimal

Area                               Addr   Size   Decimal Bytes (Attributes)
--------------------------------   ----   ----   ------- ----- ------------
.	.ABS.                            0000   0000 =      0. bytes (ABS,CON)

      Value  Global                              Global Defined In Module
      -----  ---------------------------------   ------------------------
            008D  Fusb$P1IEN$0$0                   
            008D  Fusb_cdc_acm$ADCIF$0$0           
            008D  Fusb_cdc_acm$P1IEN$0$0           
            008E  Fadc$_TCON_6$0$0                 
            008E  Fboard$_TCON_6$0$0               
            008E  Fdma$_TCON_6$0$0                 
            008E  Fgreen_led$_TCON_6$0$0           
            008E  Ftest_acc$_TCON_6$0$0            
            008E  Ftime$_TCON_6$0$0                
            008E  Fusb$_TCON_6$0$0                 
            008E  Fusb_cdc_acm$_TCON_6$0$0         
            008F  Fadc$P0INP$0$0                   
            008F  Fadc$URX1IF$0$0                  
            008F  Fboard$P0INP$0$0                 
            008F  Fboard$URX1IF$0$0                
            008F  Fdma$P0INP$0$0                   
            008F  Fdma$URX1IF$0$0                  
            008F  Fgreen_led$P0INP$0$0             
            008F  Fgreen_led$URX1IF$0$0            
            008F  Ftest_acc$P0INP$0$0              
            008F  Ftest_acc$URX1IF$0$0             
            008F  Ftime$P0INP$0$0                  
            008F  Ftime$URX1IF$0$0                 
            008F  Fusb$P0INP$0$0                   
            008F  Fusb$URX1IF$0$0                  
            008F  Fusb_cdc_acm$P0INP$0$0           
            008F  Fusb_cdc_acm$URX1IF$0$0          
            0090  Fadc$P1$0$0                      
            0090  Fadc$P1_0$0$0                    
            0090  Fboard$P1$0$0                    
            0090  Fboard$P1_0$0$0                  
            0090  Fdma$P1$0$0                      
            0090  Fdma$P1_0$0$0                    
            0090  Fgreen_led$P1$0$0                
            0090  Fgreen_led$P1_0$0$0              
            0090  Ftest_acc$P1$0$0                 
            0090  Ftest_acc$P1_0$0$0               
            0090  Ftime$P1$0$0                     
            0090  Ftime$P1_0$0$0                   
            0090  Fusb$P1$0$0                      
            0090  Fusb$P1_0$0$0                    
            0090  Fusb_cdc_acm$P1$0$0              
            0090  Fusb_cdc_acm$P1_0$0$0            
            0091  Fadc$P1_1$0$0                    
            0091  Fadc$RFIM$0$0                    
            0091  Fboard$P1_1$0$0                  
            0091  Fboard$RFIM$0$0                  
            0091  Fdma$P1_1$0$0                    
            0091  Fdma$RFIM$0$0                    
            0091  Fgreen_led$P1_1$0$0              
            0091  Fgreen_led$RFIM$0$0              
ASxxxx Linker V02.00 + NoICE + sdld,  page 14.
Hexadecimal

Area                               Addr   Size   Decimal Bytes (Attributes)
--------------------------------   ----   ----   ------- ----- ------------
.	.ABS.                            0000   0000 =      0. bytes (ABS,CON)

      Value  Global                              Global Defined In Module
      -----  ---------------------------------   ------------------------
            0091  Ftest_acc$P1_1$0$0               
            0091  Ftest_acc$RFIM$0$0               
            0091  Ftime$P1_1$0$0                   
            0091  Ftime$RFIM$0$0                   
            0091  Fusb$P1_1$0$0                    
            0091  Fusb$RFIM$0$0                    
            0091  Fusb_cdc_acm$P1_1$0$0            
            0091  Fusb_cdc_acm$RFIM$0$0            
            0092  Fadc$DPS$0$0                     
            0092  Fadc$P1_2$0$0                    
            0092  Fboard$DPS$0$0                   
            0092  Fboard$P1_2$0$0                  
            0092  Fdma$DPS$0$0                     
            0092  Fdma$P1_2$0$0                    
            0092  Fgreen_led$DPS$0$0               
            0092  Fgreen_led$P1_2$0$0              
            0092  Ftest_acc$DPS$0$0                
            0092  Ftest_acc$P1_2$0$0               
            0092  Ftime$DPS$0$0                    
            0092  Ftime$P1_2$0$0                   
            0092  Fusb$DPS$0$0                     
            0092  Fusb$P1_2$0$0                    
            0092  Fusb_cdc_acm$DPS$0$0             
            0092  Fusb_cdc_acm$P1_2$0$0            
            0093  Fadc$MPAGE$0$0                   
            0093  Fadc$P1_3$0$0                    
            0093  Fboard$MPAGE$0$0                 
            0093  Fboard$P1_3$0$0                  
            0093  Fdma$MPAGE$0$0                   
            0093  Fdma$P1_3$0$0                    
            0093  Fgreen_led$MPAGE$0$0             
            0093  Fgreen_led$P1_3$0$0              
            0093  Ftest_acc$MPAGE$0$0              
            0093  Ftest_acc$P1_3$0$0               
            0093  Ftime$MPAGE$0$0                  
            0093  Ftime$P1_3$0$0                   
            0093  Fusb$MPAGE$0$0                   
            0093  Fusb$P1_3$0$0                    
            0093  Fusb_cdc_acm$MPAGE$0$0           
            0093  Fusb_cdc_acm$P1_3$0$0            
            0093  __XPAGE                          
            0094  Fadc$P1_4$0$0                    
            0094  Fboard$P1_4$0$0                  
            0094  Fdma$P1_4$0$0                    
            0094  Fgreen_led$P1_4$0$0              
            0094  Ftest_acc$P1_4$0$0               
            0094  Ftime$P1_4$0$0                   
            0094  Fusb$P1_4$0$0                    
            0094  Fusb_cdc_acm$P1_4$0$0            
            0095  Fadc$ENDIAN$0$0                  
            0095  Fadc$P1_5$0$0                    
ASxxxx Linker V02.00 + NoICE + sdld,  page 15.
Hexadecimal

Area                               Addr   Size   Decimal Bytes (Attributes)
--------------------------------   ----   ----   ------- ----- ------------
.	.ABS.                            0000   0000 =      0. bytes (ABS,CON)

      Value  Global                              Global Defined In Module
      -----  ---------------------------------   ------------------------
            0095  Fboard$ENDIAN$0$0                
            0095  Fboard$P1_5$0$0                  
            0095  Fdma$ENDIAN$0$0                  
            0095  Fdma$P1_5$0$0                    
            0095  Fgreen_led$ENDIAN$0$0            
            0095  Fgreen_led$P1_5$0$0              
            0095  Ftest_acc$ENDIAN$0$0             
            0095  Ftest_acc$P1_5$0$0               
            0095  Ftime$ENDIAN$0$0                 
            0095  Ftime$P1_5$0$0                   
            0095  Fusb$ENDIAN$0$0                  
            0095  Fusb$P1_5$0$0                    
            0095  Fusb_cdc_acm$ENDIAN$0$0          
            0095  Fusb_cdc_acm$P1_5$0$0            
            0096  Fadc$P1_6$0$0                    
            0096  Fboard$P1_6$0$0                  
            0096  Fdma$P1_6$0$0                    
            0096  Fgreen_led$P1_6$0$0              
            0096  Ftest_acc$P1_6$0$0               
            0096  Ftime$P1_6$0$0                   
            0096  Fusb$P1_6$0$0                    
            0096  Fusb_cdc_acm$P1_6$0$0            
            0097  Fadc$P1_7$0$0                    
            0097  Fboard$P1_7$0$0                  
            0097  Fdma$P1_7$0$0                    
            0097  Fgreen_led$P1_7$0$0              
            0097  Ftest_acc$P1_7$0$0               
            0097  Ftime$P1_7$0$0                   
            0097  Fusb$P1_7$0$0                    
            0097  Fusb_cdc_acm$P1_7$0$0            
            0098  Fadc$ENCIF_0$0$0                 
            0098  Fadc$S0CON$0$0                   
            0098  Fboard$ENCIF_0$0$0               
            0098  Fboard$S0CON$0$0                 
            0098  Fdma$ENCIF_0$0$0                 
            0098  Fdma$S0CON$0$0                   
            0098  Fgreen_led$ENCIF_0$0$0           
            0098  Fgreen_led$S0CON$0$0             
            0098  Ftest_acc$ENCIF_0$0$0            
            0098  Ftest_acc$S0CON$0$0              
            0098  Ftime$ENCIF_0$0$0                
            0098  Ftime$S0CON$0$0                  
            0098  Fusb$ENCIF_0$0$0                 
            0098  Fusb$S0CON$0$0                   
            0098  Fusb_cdc_acm$ENCIF_0$0$0         
            0098  Fusb_cdc_acm$S0CON$0$0           
            0099  Fadc$ENCIF_1$0$0                 
            0099  Fboard$ENCIF_1$0$0               
            0099  Fdma$ENCIF_1$0$0                 
            0099  Fgreen_led$ENCIF_1$0$0           
            0099  Ftest_acc$ENCIF_1$0$0            
ASxxxx Linker V02.00 + NoICE + sdld,  page 16.
Hexadecimal

Area                               Addr   Size   Decimal Bytes (Attributes)
--------------------------------   ----   ----   ------- ----- ------------
.	.ABS.                            0000   0000 =      0. bytes (ABS,CON)

      Value  Global                              Global Defined In Module
      -----  ---------------------------------   ------------------------
            0099  Ftime$ENCIF_1$0$0                
            0099  Fusb$ENCIF_1$0$0                 
            0099  Fusb_cdc_acm$ENCIF_1$0$0         
            009A  Fadc$IEN2$0$0                    
            009A  Fadc$_SOCON2$0$0                 
            009A  Fboard$IEN2$0$0                  
            009A  Fboard$_SOCON2$0$0               
            009A  Fdma$IEN2$0$0                    
            009A  Fdma$_SOCON2$0$0                 
            009A  Fgreen_led$IEN2$0$0              
            009A  Fgreen_led$_SOCON2$0$0           
            009A  Ftest_acc$IEN2$0$0               
            009A  Ftest_acc$_SOCON2$0$0            
            009A  Ftime$IEN2$0$0                   
            009A  Ftime$_SOCON2$0$0                
            009A  Fusb$IEN2$0$0                    
            009A  Fusb$_SOCON2$0$0                 
            009A  Fusb_cdc_acm$IEN2$0$0            
            009A  Fusb_cdc_acm$_SOCON2$0$0         
            009B  Fadc$S1CON$0$0                   
            009B  Fadc$_SOCON3$0$0                 
            009B  Fboard$S1CON$0$0                 
            009B  Fboard$_SOCON3$0$0               
            009B  Fdma$S1CON$0$0                   
            009B  Fdma$_SOCON3$0$0                 
            009B  Fgreen_led$S1CON$0$0             
            009B  Fgreen_led$_SOCON3$0$0           
            009B  Ftest_acc$S1CON$0$0              
            009B  Ftest_acc$_SOCON3$0$0            
            009B  Ftime$S1CON$0$0                  
            009B  Ftime$_SOCON3$0$0                
            009B  Fusb$S1CON$0$0                   
            009B  Fusb$_SOCON3$0$0                 
            009B  Fusb_cdc_acm$S1CON$0$0           
            009B  Fusb_cdc_acm$_SOCON3$0$0         
            009C  Fadc$T2CT$0$0                    
            009C  Fadc$_SOCON4$0$0                 
            009C  Fboard$T2CT$0$0                  
            009C  Fboard$_SOCON4$0$0               
            009C  Fdma$T2CT$0$0                    
            009C  Fdma$_SOCON4$0$0                 
            009C  Fgreen_led$T2CT$0$0              
            009C  Fgreen_led$_SOCON4$0$0           
            009C  Ftest_acc$T2CT$0$0               
            009C  Ftest_acc$_SOCON4$0$0            
            009C  Ftime$T2CT$0$0                   
            009C  Ftime$_SOCON4$0$0                
            009C  Fusb$T2CT$0$0                    
            009C  Fusb$_SOCON4$0$0                 
            009C  Fusb_cdc_acm$T2CT$0$0            
            009C  Fusb_cdc_acm$_SOCON4$0$0         
ASxxxx Linker V02.00 + NoICE + sdld,  page 17.
Hexadecimal

Area                               Addr   Size   Decimal Bytes (Attributes)
--------------------------------   ----   ----   ------- ----- ------------
.	.ABS.                            0000   0000 =      0. bytes (ABS,CON)

      Value  Global                              Global Defined In Module
      -----  ---------------------------------   ------------------------
            009D  Fadc$T2PR$0$0                    
            009D  Fadc$_SOCON5$0$0                 
            009D  Fboard$T2PR$0$0                  
            009D  Fboard$_SOCON5$0$0               
            009D  Fdma$T2PR$0$0                    
            009D  Fdma$_SOCON5$0$0                 
            009D  Fgreen_led$T2PR$0$0              
            009D  Fgreen_led$_SOCON5$0$0           
            009D  Ftest_acc$T2PR$0$0               
            009D  Ftest_acc$_SOCON5$0$0            
            009D  Ftime$T2PR$0$0                   
            009D  Ftime$_SOCON5$0$0                
            009D  Fusb$T2PR$0$0                    
            009D  Fusb$_SOCON5$0$0                 
            009D  Fusb_cdc_acm$T2PR$0$0            
            009D  Fusb_cdc_acm$_SOCON5$0$0         
            009E  Fadc$T2CTL$0$0                   
            009E  Fadc$_SOCON6$0$0                 
            009E  Fboard$T2CTL$0$0                 
            009E  Fboard$_SOCON6$0$0               
            009E  Fdma$T2CTL$0$0                   
            009E  Fdma$_SOCON6$0$0                 
            009E  Fgreen_led$T2CTL$0$0             
            009E  Fgreen_led$_SOCON6$0$0           
            009E  Ftest_acc$T2CTL$0$0              
            009E  Ftest_acc$_SOCON6$0$0            
            009E  Ftime$T2CTL$0$0                  
            009E  Ftime$_SOCON6$0$0                
            009E  Fusb$T2CTL$0$0                   
            009E  Fusb$_SOCON6$0$0                 
            009E  Fusb_cdc_acm$T2CTL$0$0           
            009E  Fusb_cdc_acm$_SOCON6$0$0         
            009F  Fadc$_SOCON7$0$0                 
            009F  Fboard$_SOCON7$0$0               
            009F  Fdma$_SOCON7$0$0                 
            009F  Fgreen_led$_SOCON7$0$0           
            009F  Ftest_acc$_SOCON7$0$0            
            009F  Ftime$_SOCON7$0$0                
            009F  Fusb$_SOCON7$0$0                 
            009F  Fusb_cdc_acm$_SOCON7$0$0         
            00A0  Fadc$P2$0$0                      
            00A0  Fadc$P2_0$0$0                    
            00A0  Fboard$P2$0$0                    
            00A0  Fboard$P2_0$0$0                  
            00A0  Fdma$P2$0$0                      
            00A0  Fdma$P2_0$0$0                    
            00A0  Fgreen_led$P2$0$0                
            00A0  Fgreen_led$P2_0$0$0              
            00A0  Ftest_acc$P2$0$0                 
            00A0  Ftest_acc$P2_0$0$0               
            00A0  Ftime$P2$0$0                     
ASxxxx Linker V02.00 + NoICE + sdld,  page 18.
Hexadecimal

Area                               Addr   Size   Decimal Bytes (Attributes)
--------------------------------   ----   ----   ------- ----- ------------
.	.ABS.                            0000   0000 =      0. bytes (ABS,CON)

      Value  Global                              Global Defined In Module
      -----  ---------------------------------   ------------------------
            00A0  Ftime$P2_0$0$0                   
            00A0  Fusb$P2$0$0                      
            00A0  Fusb$P2_0$0$0                    
            00A0  Fusb_cdc_acm$P2$0$0              
            00A0  Fusb_cdc_acm$P2_0$0$0            
            00A1  Fadc$P2_1$0$0                    
            00A1  Fadc$WORIRQ$0$0                  
            00A1  Fboard$P2_1$0$0                  
            00A1  Fboard$WORIRQ$0$0                
            00A1  Fdma$P2_1$0$0                    
            00A1  Fdma$WORIRQ$0$0                  
            00A1  Fgreen_led$P2_1$0$0              
            00A1  Fgreen_led$WORIRQ$0$0            
            00A1  Ftest_acc$P2_1$0$0               
            00A1  Ftest_acc$WORIRQ$0$0             
            00A1  Ftime$P2_1$0$0                   
            00A1  Ftime$WORIRQ$0$0                 
            00A1  Fusb$P2_1$0$0                    
            00A1  Fusb$WORIRQ$0$0                  
            00A1  Fusb_cdc_acm$P2_1$0$0            
            00A1  Fusb_cdc_acm$WORIRQ$0$0          
            00A2  Fadc$P2_2$0$0                    
            00A2  Fadc$WORCTRL$0$0                 
            00A2  Fboard$P2_2$0$0                  
            00A2  Fboard$WORCTRL$0$0               
            00A2  Fdma$P2_2$0$0                    
            00A2  Fdma$WORCTRL$0$0                 
            00A2  Fgreen_led$P2_2$0$0              
            00A2  Fgreen_led$WORCTRL$0$0           
            00A2  Ftest_acc$P2_2$0$0               
            00A2  Ftest_acc$WORCTRL$0$0            
            00A2  Ftime$P2_2$0$0                   
            00A2  Ftime$WORCTRL$0$0                
            00A2  Fusb$P2_2$0$0                    
            00A2  Fusb$WORCTRL$0$0                 
            00A2  Fusb_cdc_acm$P2_2$0$0            
            00A2  Fusb_cdc_acm$WORCTRL$0$0         
            00A3  Fadc$P2_3$0$0                    
            00A3  Fadc$WOREVT0$0$0                 
            00A3  Fboard$P2_3$0$0                  
            00A3  Fboard$WOREVT0$0$0               
            00A3  Fdma$P2_3$0$0                    
            00A3  Fdma$WOREVT0$0$0                 
            00A3  Fgreen_led$P2_3$0$0              
            00A3  Fgreen_led$WOREVT0$0$0           
            00A3  Ftest_acc$P2_3$0$0               
            00A3  Ftest_acc$WOREVT0$0$0            
            00A3  Ftime$P2_3$0$0                   
            00A3  Ftime$WOREVT0$0$0                
            00A3  Fusb$P2_3$0$0                    
            00A3  Fusb$WOREVT0$0$0                 
ASxxxx Linker V02.00 + NoICE + sdld,  page 19.
Hexadecimal

Area                               Addr   Size   Decimal Bytes (Attributes)
--------------------------------   ----   ----   ------- ----- ------------
.	.ABS.                            0000   0000 =      0. bytes (ABS,CON)

      Value  Global                              Global Defined In Module
      -----  ---------------------------------   ------------------------
            00A3  Fusb_cdc_acm$P2_3$0$0            
            00A3  Fusb_cdc_acm$WOREVT0$0$0         
            00A4  Fadc$P2_4$0$0                    
            00A4  Fadc$WOREVT1$0$0                 
            00A4  Fboard$P2_4$0$0                  
            00A4  Fboard$WOREVT1$0$0               
            00A4  Fdma$P2_4$0$0                    
            00A4  Fdma$WOREVT1$0$0                 
            00A4  Fgreen_led$P2_4$0$0              
            00A4  Fgreen_led$WOREVT1$0$0           
            00A4  Ftest_acc$P2_4$0$0               
            00A4  Ftest_acc$WOREVT1$0$0            
            00A4  Ftime$P2_4$0$0                   
            00A4  Ftime$WOREVT1$0$0                
            00A4  Fusb$P2_4$0$0                    
            00A4  Fusb$WOREVT1$0$0                 
            00A4  Fusb_cdc_acm$P2_4$0$0            
            00A4  Fusb_cdc_acm$WOREVT1$0$0         
            00A5  Fadc$P2_5$0$0                    
            00A5  Fadc$WORTIME0$0$0                
            00A5  Fboard$P2_5$0$0                  
            00A5  Fboard$WORTIME0$0$0              
            00A5  Fdma$P2_5$0$0                    
            00A5  Fdma$WORTIME0$0$0                
            00A5  Fgreen_led$P2_5$0$0              
            00A5  Fgreen_led$WORTIME0$0$0          
            00A5  Ftest_acc$P2_5$0$0               
            00A5  Ftest_acc$WORTIME0$0$0           
            00A5  Ftime$P2_5$0$0                   
            00A5  Ftime$WORTIME0$0$0               
            00A5  Fusb$P2_5$0$0                    
            00A5  Fusb$WORTIME0$0$0                
            00A5  Fusb_cdc_acm$P2_5$0$0            
            00A5  Fusb_cdc_acm$WORTIME0$0$0        
            00A6  Fadc$P2_6$0$0                    
            00A6  Fadc$WORTIME1$0$0                
            00A6  Fboard$P2_6$0$0                  
            00A6  Fboard$WORTIME1$0$0              
            00A6  Fdma$P2_6$0$0                    
            00A6  Fdma$WORTIME1$0$0                
            00A6  Fgreen_led$P2_6$0$0              
            00A6  Fgreen_led$WORTIME1$0$0          
            00A6  Ftest_acc$P2_6$0$0               
            00A6  Ftest_acc$WORTIME1$0$0           
            00A6  Ftime$P2_6$0$0                   
            00A6  Ftime$WORTIME1$0$0               
            00A6  Fusb$P2_6$0$0                    
            00A6  Fusb$WORTIME1$0$0                
            00A6  Fusb_cdc_acm$P2_6$0$0            
            00A6  Fusb_cdc_acm$WORTIME1$0$0        
            00A7  Fadc$P2_7$0$0                    
ASxxxx Linker V02.00 + NoICE + sdld,  page 20.
Hexadecimal

Area                               Addr   Size   Decimal Bytes (Attributes)
--------------------------------   ----   ----   ------- ----- ------------
.	.ABS.                            0000   0000 =      0. bytes (ABS,CON)

      Value  Global                              Global Defined In Module
      -----  ---------------------------------   ------------------------
            00A7  Fboard$P2_7$0$0                  
            00A7  Fdma$P2_7$0$0                    
            00A7  Fgreen_led$P2_7$0$0              
            00A7  Ftest_acc$P2_7$0$0               
            00A7  Ftime$P2_7$0$0                   
            00A7  Fusb$P2_7$0$0                    
            00A7  Fusb_cdc_acm$P2_7$0$0            
            00A8  Fadc$IEN0$0$0                    
            00A8  Fadc$RFTXRXIE$0$0                
            00A8  Fboard$IEN0$0$0                  
            00A8  Fboard$RFTXRXIE$0$0              
            00A8  Fdma$IEN0$0$0                    
            00A8  Fdma$RFTXRXIE$0$0                
            00A8  Fgreen_led$IEN0$0$0              
            00A8  Fgreen_led$RFTXRXIE$0$0          
            00A8  Ftest_acc$IEN0$0$0               
            00A8  Ftest_acc$RFTXRXIE$0$0           
            00A8  Ftime$IEN0$0$0                   
            00A8  Ftime$RFTXRXIE$0$0               
            00A8  Fusb$IEN0$0$0                    
            00A8  Fusb$RFTXRXIE$0$0                
            00A8  Fusb_cdc_acm$IEN0$0$0            
            00A8  Fusb_cdc_acm$RFTXRXIE$0$0        
            00A9  Fadc$ADCIE$0$0                   
            00A9  Fadc$IP0$0$0                     
            00A9  Fboard$ADCIE$0$0                 
            00A9  Fboard$IP0$0$0                   
            00A9  Fdma$ADCIE$0$0                   
            00A9  Fdma$IP0$0$0                     
            00A9  Fgreen_led$ADCIE$0$0             
            00A9  Fgreen_led$IP0$0$0               
            00A9  Ftest_acc$ADCIE$0$0              
            00A9  Ftest_acc$IP0$0$0                
            00A9  Ftime$ADCIE$0$0                  
            00A9  Ftime$IP0$0$0                    
            00A9  Fusb$ADCIE$0$0                   
            00A9  Fusb$IP0$0$0                     
            00A9  Fusb_cdc_acm$ADCIE$0$0           
            00A9  Fusb_cdc_acm$IP0$0$0             
            00AA  Fadc$URX0IE$0$0                  
            00AA  Fboard$URX0IE$0$0                
            00AA  Fdma$URX0IE$0$0                  
            00AA  Fgreen_led$URX0IE$0$0            
            00AA  Ftest_acc$URX0IE$0$0             
            00AA  Ftime$URX0IE$0$0                 
            00AA  Fusb$URX0IE$0$0                  
            00AA  Fusb_cdc_acm$URX0IE$0$0          
            00AB  Fadc$FWT$0$0                     
            00AB  Fadc$URX1IE$0$0                  
            00AB  Fboard$FWT$0$0                   
            00AB  Fboard$URX1IE$0$0                
ASxxxx Linker V02.00 + NoICE + sdld,  page 21.
Hexadecimal

Area                               Addr   Size   Decimal Bytes (Attributes)
--------------------------------   ----   ----   ------- ----- ------------
.	.ABS.                            0000   0000 =      0. bytes (ABS,CON)

      Value  Global                              Global Defined In Module
      -----  ---------------------------------   ------------------------
            00AB  Fdma$FWT$0$0                     
            00AB  Fdma$URX1IE$0$0                  
            00AB  Fgreen_led$FWT$0$0               
            00AB  Fgreen_led$URX1IE$0$0            
            00AB  Ftest_acc$FWT$0$0                
            00AB  Ftest_acc$URX1IE$0$0             
            00AB  Ftime$FWT$0$0                    
            00AB  Ftime$URX1IE$0$0                 
            00AB  Fusb$FWT$0$0                     
            00AB  Fusb$URX1IE$0$0                  
            00AB  Fusb_cdc_acm$FWT$0$0             
            00AB  Fusb_cdc_acm$URX1IE$0$0          
            00AC  Fadc$ENCIE$0$0                   
            00AC  Fadc$FADDRL$0$0                  
            00AC  Fboard$ENCIE$0$0                 
            00AC  Fboard$FADDRL$0$0                
            00AC  Fdma$ENCIE$0$0                   
            00AC  Fdma$FADDRL$0$0                  
            00AC  Fgreen_led$ENCIE$0$0             
            00AC  Fgreen_led$FADDRL$0$0            
            00AC  Ftest_acc$ENCIE$0$0              
            00AC  Ftest_acc$FADDRL$0$0             
            00AC  Ftime$ENCIE$0$0                  
            00AC  Ftime$FADDRL$0$0                 
            00AC  Fusb$ENCIE$0$0                   
            00AC  Fusb$FADDRL$0$0                  
            00AC  Fusb_cdc_acm$ENCIE$0$0           
            00AC  Fusb_cdc_acm$FADDRL$0$0          
            00AD  Fadc$FADDRH$0$0                  
            00AD  Fadc$STIE$0$0                    
            00AD  Fboard$FADDRH$0$0                
            00AD  Fboard$STIE$0$0                  
            00AD  Fdma$FADDRH$0$0                  
            00AD  Fdma$STIE$0$0                    
            00AD  Fgreen_led$FADDRH$0$0            
            00AD  Fgreen_led$STIE$0$0              
            00AD  Ftest_acc$FADDRH$0$0             
            00AD  Ftest_acc$STIE$0$0               
            00AD  Ftime$FADDRH$0$0                 
            00AD  Ftime$STIE$0$0                   
            00AD  Fusb$FADDRH$0$0                  
            00AD  Fusb$STIE$0$0                    
            00AD  Fusb_cdc_acm$FADDRH$0$0          
            00AD  Fusb_cdc_acm$STIE$0$0            
            00AE  Fadc$FCTL$0$0                    
            00AE  Fadc$_IEN06$0$0                  
            00AE  Fboard$FCTL$0$0                  
            00AE  Fboard$_IEN06$0$0                
            00AE  Fdma$FCTL$0$0                    
            00AE  Fdma$_IEN06$0$0                  
            00AE  Fgreen_led$FCTL$0$0              
ASxxxx Linker V02.00 + NoICE + sdld,  page 22.
Hexadecimal

Area                               Addr   Size   Decimal Bytes (Attributes)
--------------------------------   ----   ----   ------- ----- ------------
.	.ABS.                            0000   0000 =      0. bytes (ABS,CON)

      Value  Global                              Global Defined In Module
      -----  ---------------------------------   ------------------------
            00AE  Fgreen_led$_IEN06$0$0            
            00AE  Ftest_acc$FCTL$0$0               
            00AE  Ftest_acc$_IEN06$0$0             
            00AE  Ftime$FCTL$0$0                   
            00AE  Ftime$_IEN06$0$0                 
            00AE  Fusb$FCTL$0$0                    
            00AE  Fusb$_IEN06$0$0                  
            00AE  Fusb_cdc_acm$FCTL$0$0            
            00AE  Fusb_cdc_acm$_IEN06$0$0          
            00AF  Fadc$EA$0$0                      
            00AF  Fadc$FWDATA$0$0                  
            00AF  Fboard$EA$0$0                    
            00AF  Fboard$FWDATA$0$0                
            00AF  Fdma$EA$0$0                      
            00AF  Fdma$FWDATA$0$0                  
            00AF  Fgreen_led$EA$0$0                
            00AF  Fgreen_led$FWDATA$0$0            
            00AF  Ftest_acc$EA$0$0                 
            00AF  Ftest_acc$FWDATA$0$0             
            00AF  Ftime$EA$0$0                     
            00AF  Ftime$FWDATA$0$0                 
            00AF  Fusb$EA$0$0                      
            00AF  Fusb$FWDATA$0$0                  
            00AF  Fusb_cdc_acm$EA$0$0              
            00AF  Fusb_cdc_acm$FWDATA$0$0          
            00B1  Fadc$ENCDI$0$0                   
            00B1  Fboard$ENCDI$0$0                 
            00B1  Fdma$ENCDI$0$0                   
            00B1  Fgreen_led$ENCDI$0$0             
            00B1  Ftest_acc$ENCDI$0$0              
            00B1  Ftime$ENCDI$0$0                  
            00B1  Fusb$ENCDI$0$0                   
            00B1  Fusb_cdc_acm$ENCDI$0$0           
            00B2  Fadc$ENCDO$0$0                   
            00B2  Fboard$ENCDO$0$0                 
            00B2  Fdma$ENCDO$0$0                   
            00B2  Fgreen_led$ENCDO$0$0             
            00B2  Ftest_acc$ENCDO$0$0              
            00B2  Ftime$ENCDO$0$0                  
            00B2  Fusb$ENCDO$0$0                   
            00B2  Fusb_cdc_acm$ENCDO$0$0           
            00B3  Fadc$ENCCS$0$0                   
            00B3  Fboard$ENCCS$0$0                 
            00B3  Fdma$ENCCS$0$0                   
            00B3  Fgreen_led$ENCCS$0$0             
            00B3  Ftest_acc$ENCCS$0$0              
            00B3  Ftime$ENCCS$0$0                  
            00B3  Fusb$ENCCS$0$0                   
            00B3  Fusb_cdc_acm$ENCCS$0$0           
            00B4  Fadc$ADCCON1$0$0                 
            00B4  Fboard$ADCCON1$0$0               
ASxxxx Linker V02.00 + NoICE + sdld,  page 23.
Hexadecimal

Area                               Addr   Size   Decimal Bytes (Attributes)
--------------------------------   ----   ----   ------- ----- ------------
.	.ABS.                            0000   0000 =      0. bytes (ABS,CON)

      Value  Global                              Global Defined In Module
      -----  ---------------------------------   ------------------------
            00B4  Fdma$ADCCON1$0$0                 
            00B4  Fgreen_led$ADCCON1$0$0           
            00B4  Ftest_acc$ADCCON1$0$0            
            00B4  Ftime$ADCCON1$0$0                
            00B4  Fusb$ADCCON1$0$0                 
            00B4  Fusb_cdc_acm$ADCCON1$0$0         
            00B5  Fadc$ADCCON2$0$0                 
            00B5  Fboard$ADCCON2$0$0               
            00B5  Fdma$ADCCON2$0$0                 
            00B5  Fgreen_led$ADCCON2$0$0           
            00B5  Ftest_acc$ADCCON2$0$0            
            00B5  Ftime$ADCCON2$0$0                
            00B5  Fusb$ADCCON2$0$0                 
            00B5  Fusb_cdc_acm$ADCCON2$0$0         
            00B6  Fadc$ADCCON3$0$0                 
            00B6  Fboard$ADCCON3$0$0               
            00B6  Fdma$ADCCON3$0$0                 
            00B6  Fgreen_led$ADCCON3$0$0           
            00B6  Ftest_acc$ADCCON3$0$0            
            00B6  Ftime$ADCCON3$0$0                
            00B6  Fusb$ADCCON3$0$0                 
            00B6  Fusb_cdc_acm$ADCCON3$0$0         
            00B8  Fadc$DMAIE$0$0                   
            00B8  Fadc$IEN1$0$0                    
            00B8  Fboard$DMAIE$0$0                 
            00B8  Fboard$IEN1$0$0                  
            00B8  Fdma$DMAIE$0$0                   
            00B8  Fdma$IEN1$0$0                    
            00B8  Fgreen_led$DMAIE$0$0             
            00B8  Fgreen_led$IEN1$0$0              
            00B8  Ftest_acc$DMAIE$0$0              
            00B8  Ftest_acc$IEN1$0$0               
            00B8  Ftime$DMAIE$0$0                  
            00B8  Ftime$IEN1$0$0                   
            00B8  Fusb$DMAIE$0$0                   
            00B8  Fusb$IEN1$0$0                    
            00B8  Fusb_cdc_acm$DMAIE$0$0           
            00B8  Fusb_cdc_acm$IEN1$0$0            
            00B9  Fadc$IP1$0$0                     
            00B9  Fadc$T1IE$0$0                    
            00B9  Fboard$IP1$0$0                   
            00B9  Fboard$T1IE$0$0                  
            00B9  Fdma$IP1$0$0                     
            00B9  Fdma$T1IE$0$0                    
            00B9  Fgreen_led$IP1$0$0               
            00B9  Fgreen_led$T1IE$0$0              
            00B9  Ftest_acc$IP1$0$0                
            00B9  Ftest_acc$T1IE$0$0               
            00B9  Ftime$IP1$0$0                    
            00B9  Ftime$T1IE$0$0                   
            00B9  Fusb$IP1$0$0                     
ASxxxx Linker V02.00 + NoICE + sdld,  page 24.
Hexadecimal

Area                               Addr   Size   Decimal Bytes (Attributes)
--------------------------------   ----   ----   ------- ----- ------------
.	.ABS.                            0000   0000 =      0. bytes (ABS,CON)

      Value  Global                              Global Defined In Module
      -----  ---------------------------------   ------------------------
            00B9  Fusb$T1IE$0$0                    
            00B9  Fusb_cdc_acm$IP1$0$0             
            00B9  Fusb_cdc_acm$T1IE$0$0            
            00BA  Fadc$ADCL$0$0                    
            00BA  Fadc$T2IE$0$0                    
            00BA  Fboard$ADCL$0$0                  
            00BA  Fboard$T2IE$0$0                  
            00BA  Fdma$ADCL$0$0                    
            00BA  Fdma$T2IE$0$0                    
            00BA  Fgreen_led$ADCL$0$0              
            00BA  Fgreen_led$T2IE$0$0              
            00BA  Ftest_acc$ADCL$0$0               
            00BA  Ftest_acc$T2IE$0$0               
            00BA  Ftime$ADCL$0$0                   
            00BA  Ftime$T2IE$0$0                   
            00BA  Fusb$ADCL$0$0                    
            00BA  Fusb$T2IE$0$0                    
            00BA  Fusb_cdc_acm$ADCL$0$0            
            00BA  Fusb_cdc_acm$T2IE$0$0            
            00BB  Fadc$ADCH$0$0                    
            00BB  Fadc$T3IE$0$0                    
            00BB  Fboard$ADCH$0$0                  
            00BB  Fboard$T3IE$0$0                  
            00BB  Fdma$ADCH$0$0                    
            00BB  Fdma$T3IE$0$0                    
            00BB  Fgreen_led$ADCH$0$0              
            00BB  Fgreen_led$T3IE$0$0              
            00BB  Ftest_acc$ADCH$0$0               
            00BB  Ftest_acc$T3IE$0$0               
            00BB  Ftime$ADCH$0$0                   
            00BB  Ftime$T3IE$0$0                   
            00BB  Fusb$ADCH$0$0                    
            00BB  Fusb$T3IE$0$0                    
            00BB  Fusb_cdc_acm$ADCH$0$0            
            00BB  Fusb_cdc_acm$T3IE$0$0            
            00BC  Fadc$RNDL$0$0                    
            00BC  Fadc$T4IE$0$0                    
            00BC  Fboard$RNDL$0$0                  
            00BC  Fboard$T4IE$0$0                  
            00BC  Fdma$RNDL$0$0                    
            00BC  Fdma$T4IE$0$0                    
            00BC  Fgreen_led$RNDL$0$0              
            00BC  Fgreen_led$T4IE$0$0              
            00BC  Ftest_acc$RNDL$0$0               
            00BC  Ftest_acc$T4IE$0$0               
            00BC  Ftime$RNDL$0$0                   
            00BC  Ftime$T4IE$0$0                   
            00BC  Fusb$RNDL$0$0                    
            00BC  Fusb$T4IE$0$0                    
            00BC  Fusb_cdc_acm$RNDL$0$0            
            00BC  Fusb_cdc_acm$T4IE$0$0            
ASxxxx Linker V02.00 + NoICE + sdld,  page 25.
Hexadecimal

Area                               Addr   Size   Decimal Bytes (Attributes)
--------------------------------   ----   ----   ------- ----- ------------
.	.ABS.                            0000   0000 =      0. bytes (ABS,CON)

      Value  Global                              Global Defined In Module
      -----  ---------------------------------   ------------------------
            00BD  Fadc$P0IE$0$0                    
            00BD  Fadc$RNDH$0$0                    
            00BD  Fboard$P0IE$0$0                  
            00BD  Fboard$RNDH$0$0                  
            00BD  Fdma$P0IE$0$0                    
            00BD  Fdma$RNDH$0$0                    
            00BD  Fgreen_led$P0IE$0$0              
            00BD  Fgreen_led$RNDH$0$0              
            00BD  Ftest_acc$P0IE$0$0               
            00BD  Ftest_acc$RNDH$0$0               
            00BD  Ftime$P0IE$0$0                   
            00BD  Ftime$RNDH$0$0                   
            00BD  Fusb$P0IE$0$0                    
            00BD  Fusb$RNDH$0$0                    
            00BD  Fusb_cdc_acm$P0IE$0$0            
            00BD  Fusb_cdc_acm$RNDH$0$0            
            00BE  Fadc$SLEEP$0$0                   
            00BE  Fadc$_IEN16$0$0                  
            00BE  Fboard$SLEEP$0$0                 
            00BE  Fboard$_IEN16$0$0                
            00BE  Fdma$SLEEP$0$0                   
            00BE  Fdma$_IEN16$0$0                  
            00BE  Fgreen_led$SLEEP$0$0             
            00BE  Fgreen_led$_IEN16$0$0            
            00BE  Ftest_acc$SLEEP$0$0              
            00BE  Ftest_acc$_IEN16$0$0             
            00BE  Ftime$SLEEP$0$0                  
            00BE  Ftime$_IEN16$0$0                 
            00BE  Fusb$SLEEP$0$0                   
            00BE  Fusb$_IEN16$0$0                  
            00BE  Fusb_cdc_acm$SLEEP$0$0           
            00BE  Fusb_cdc_acm$_IEN16$0$0          
            00BF  Fadc$_IEN17$0$0                  
            00BF  Fboard$_IEN17$0$0                
            00BF  Fdma$_IEN17$0$0                  
            00BF  Fgreen_led$_IEN17$0$0            
            00BF  Ftest_acc$_IEN17$0$0             
            00BF  Ftime$_IEN17$0$0                 
            00BF  Fusb$_IEN17$0$0                  
            00BF  Fusb_cdc_acm$_IEN17$0$0          
            00C0  Fadc$DMAIF$0$0                   
            00C0  Fadc$IRCON$0$0                   
            00C0  Fboard$DMAIF$0$0                 
            00C0  Fboard$IRCON$0$0                 
            00C0  Fdma$DMAIF$0$0                   
            00C0  Fdma$IRCON$0$0                   
            00C0  Fgreen_led$DMAIF$0$0             
            00C0  Fgreen_led$IRCON$0$0             
            00C0  Ftest_acc$DMAIF$0$0              
            00C0  Ftest_acc$IRCON$0$0              
            00C0  Ftime$DMAIF$0$0                  
ASxxxx Linker V02.00 + NoICE + sdld,  page 26.
Hexadecimal

Area                               Addr   Size   Decimal Bytes (Attributes)
--------------------------------   ----   ----   ------- ----- ------------
.	.ABS.                            0000   0000 =      0. bytes (ABS,CON)

      Value  Global                              Global Defined In Module
      -----  ---------------------------------   ------------------------
            00C0  Ftime$IRCON$0$0                  
            00C0  Fusb$DMAIF$0$0                   
            00C0  Fusb$IRCON$0$0                   
            00C0  Fusb_cdc_acm$DMAIF$0$0           
            00C0  Fusb_cdc_acm$IRCON$0$0           
            00C1  Fadc$T1IF$0$0                    
            00C1  Fadc$U0DBUF$0$0                  
            00C1  Fboard$T1IF$0$0                  
            00C1  Fboard$U0DBUF$0$0                
            00C1  Fdma$T1IF$0$0                    
            00C1  Fdma$U0DBUF$0$0                  
            00C1  Fgreen_led$T1IF$0$0              
            00C1  Fgreen_led$U0DBUF$0$0            
            00C1  Ftest_acc$T1IF$0$0               
            00C1  Ftest_acc$U0DBUF$0$0             
            00C1  Ftime$T1IF$0$0                   
            00C1  Ftime$U0DBUF$0$0                 
            00C1  Fusb$T1IF$0$0                    
            00C1  Fusb$U0DBUF$0$0                  
            00C1  Fusb_cdc_acm$T1IF$0$0            
            00C1  Fusb_cdc_acm$U0DBUF$0$0          
            00C2  Fadc$T2IF$0$0                    
            00C2  Fadc$U0BAUD$0$0                  
            00C2  Fboard$T2IF$0$0                  
            00C2  Fboard$U0BAUD$0$0                
            00C2  Fdma$T2IF$0$0                    
            00C2  Fdma$U0BAUD$0$0                  
            00C2  Fgreen_led$T2IF$0$0              
            00C2  Fgreen_led$U0BAUD$0$0            
            00C2  Ftest_acc$T2IF$0$0               
            00C2  Ftest_acc$U0BAUD$0$0             
            00C2  Ftime$T2IF$0$0                   
            00C2  Ftime$U0BAUD$0$0                 
            00C2  Fusb$T2IF$0$0                    
            00C2  Fusb$U0BAUD$0$0                  
            00C2  Fusb_cdc_acm$T2IF$0$0            
            00C2  Fusb_cdc_acm$U0BAUD$0$0          
            00C3  Fadc$T3IF$0$0                    
            00C3  Fboard$T3IF$0$0                  
            00C3  Fdma$T3IF$0$0                    
            00C3  Fgreen_led$T3IF$0$0              
            00C3  Ftest_acc$T3IF$0$0               
            00C3  Ftime$T3IF$0$0                   
            00C3  Fusb$T3IF$0$0                    
            00C3  Fusb_cdc_acm$T3IF$0$0            
            00C4  Fadc$T4IF$0$0                    
            00C4  Fadc$U0UCR$0$0                   
            00C4  Fboard$T4IF$0$0                  
            00C4  Fboard$U0UCR$0$0                 
            00C4  Fdma$T4IF$0$0                    
            00C4  Fdma$U0UCR$0$0                   
ASxxxx Linker V02.00 + NoICE + sdld,  page 27.
Hexadecimal

Area                               Addr   Size   Decimal Bytes (Attributes)
--------------------------------   ----   ----   ------- ----- ------------
.	.ABS.                            0000   0000 =      0. bytes (ABS,CON)

      Value  Global                              Global Defined In Module
      -----  ---------------------------------   ------------------------
            00C4  Fgreen_led$T4IF$0$0              
            00C4  Fgreen_led$U0UCR$0$0             
            00C4  Ftest_acc$T4IF$0$0               
            00C4  Ftest_acc$U0UCR$0$0              
            00C4  Ftime$T4IF$0$0                   
            00C4  Ftime$U0UCR$0$0                  
            00C4  Fusb$T4IF$0$0                    
            00C4  Fusb$U0UCR$0$0                   
            00C4  Fusb_cdc_acm$T4IF$0$0            
            00C4  Fusb_cdc_acm$U0UCR$0$0           
            00C5  Fadc$P0IF$0$0                    
            00C5  Fadc$U0GCR$0$0                   
            00C5  Fboard$P0IF$0$0                  
            00C5  Fboard$U0GCR$0$0                 
            00C5  Fdma$P0IF$0$0                    
            00C5  Fdma$U0GCR$0$0                   
            00C5  Fgreen_led$P0IF$0$0              
            00C5  Fgreen_led$U0GCR$0$0             
            00C5  Ftest_acc$P0IF$0$0               
            00C5  Ftest_acc$U0GCR$0$0              
            00C5  Ftime$P0IF$0$0                   
            00C5  Ftime$U0GCR$0$0                  
            00C5  Fusb$P0IF$0$0                    
            00C5  Fusb$U0GCR$0$0                   
            00C5  Fusb_cdc_acm$P0IF$0$0            
            00C5  Fusb_cdc_acm$U0GCR$0$0           
            00C6  Fadc$CLKCON$0$0                  
            00C6  Fadc$_IRCON6$0$0                 
            00C6  Fboard$CLKCON$0$0                
            00C6  Fboard$_IRCON6$0$0               
            00C6  Fdma$CLKCON$0$0                  
            00C6  Fdma$_IRCON6$0$0                 
            00C6  Fgreen_led$CLKCON$0$0            
            00C6  Fgreen_led$_IRCON6$0$0           
            00C6  Ftest_acc$CLKCON$0$0             
            00C6  Ftest_acc$_IRCON6$0$0            
            00C6  Ftime$CLKCON$0$0                 
            00C6  Ftime$_IRCON6$0$0                
            00C6  Fusb$CLKCON$0$0                  
            00C6  Fusb$_IRCON6$0$0                 
            00C6  Fusb_cdc_acm$CLKCON$0$0          
            00C6  Fusb_cdc_acm$_IRCON6$0$0         
            00C7  Fadc$MEMCTR$0$0                  
            00C7  Fadc$STIF$0$0                    
            00C7  Fboard$MEMCTR$0$0                
            00C7  Fboard$STIF$0$0                  
            00C7  Fdma$MEMCTR$0$0                  
            00C7  Fdma$STIF$0$0                    
            00C7  Fgreen_led$MEMCTR$0$0            
            00C7  Fgreen_led$STIF$0$0              
            00C7  Ftest_acc$MEMCTR$0$0             
ASxxxx Linker V02.00 + NoICE + sdld,  page 28.
Hexadecimal

Area                               Addr   Size   Decimal Bytes (Attributes)
--------------------------------   ----   ----   ------- ----- ------------
.	.ABS.                            0000   0000 =      0. bytes (ABS,CON)

      Value  Global                              Global Defined In Module
      -----  ---------------------------------   ------------------------
            00C7  Ftest_acc$STIF$0$0               
            00C7  Ftime$MEMCTR$0$0                 
            00C7  Ftime$STIF$0$0                   
            00C7  Fusb$MEMCTR$0$0                  
            00C7  Fusb$STIF$0$0                    
            00C7  Fusb_cdc_acm$MEMCTR$0$0          
            00C7  Fusb_cdc_acm$STIF$0$0            
            00C9  Fadc$WDCTL$0$0                   
            00C9  Fboard$WDCTL$0$0                 
            00C9  Fdma$WDCTL$0$0                   
            00C9  Fgreen_led$WDCTL$0$0             
            00C9  Ftest_acc$WDCTL$0$0              
            00C9  Ftime$WDCTL$0$0                  
            00C9  Fusb$WDCTL$0$0                   
            00C9  Fusb_cdc_acm$WDCTL$0$0           
            00CA  Fadc$T3CNT$0$0                   
            00CA  Fboard$T3CNT$0$0                 
            00CA  Fdma$T3CNT$0$0                   
            00CA  Fgreen_led$T3CNT$0$0             
            00CA  Ftest_acc$T3CNT$0$0              
            00CA  Ftime$T3CNT$0$0                  
            00CA  Fusb$T3CNT$0$0                   
            00CA  Fusb_cdc_acm$T3CNT$0$0           
            00CB  Fadc$T3CTL$0$0                   
            00CB  Fboard$T3CTL$0$0                 
            00CB  Fdma$T3CTL$0$0                   
            00CB  Fgreen_led$T3CTL$0$0             
            00CB  Ftest_acc$T3CTL$0$0              
            00CB  Ftime$T3CTL$0$0                  
            00CB  Fusb$T3CTL$0$0                   
            00CB  Fusb_cdc_acm$T3CTL$0$0           
            00CC  Fadc$T3CCTL0$0$0                 
            00CC  Fboard$T3CCTL0$0$0               
            00CC  Fdma$T3CCTL0$0$0                 
            00CC  Fgreen_led$T3CCTL0$0$0           
            00CC  Ftest_acc$T3CCTL0$0$0            
            00CC  Ftime$T3CCTL0$0$0                
            00CC  Fusb$T3CCTL0$0$0                 
            00CC  Fusb_cdc_acm$T3CCTL0$0$0         
            00CD  Fadc$T3CC0$0$0                   
            00CD  Fboard$T3CC0$0$0                 
            00CD  Fdma$T3CC0$0$0                   
            00CD  Fgreen_led$T3CC0$0$0             
            00CD  Ftest_acc$T3CC0$0$0              
            00CD  Ftime$T3CC0$0$0                  
            00CD  Fusb$T3CC0$0$0                   
            00CD  Fusb_cdc_acm$T3CC0$0$0           
            00CE  Fadc$T3CCTL1$0$0                 
            00CE  Fboard$T3CCTL1$0$0               
            00CE  Fdma$T3CCTL1$0$0                 
            00CE  Fgreen_led$T3CCTL1$0$0           
ASxxxx Linker V02.00 + NoICE + sdld,  page 29.
Hexadecimal

Area                               Addr   Size   Decimal Bytes (Attributes)
--------------------------------   ----   ----   ------- ----- ------------
.	.ABS.                            0000   0000 =      0. bytes (ABS,CON)

      Value  Global                              Global Defined In Module
      -----  ---------------------------------   ------------------------
            00CE  Ftest_acc$T3CCTL1$0$0            
            00CE  Ftime$T3CCTL1$0$0                
            00CE  Fusb$T3CCTL1$0$0                 
            00CE  Fusb_cdc_acm$T3CCTL1$0$0         
            00CF  Fadc$T3CC1$0$0                   
            00CF  Fboard$T3CC1$0$0                 
            00CF  Fdma$T3CC1$0$0                   
            00CF  Fgreen_led$T3CC1$0$0             
            00CF  Ftest_acc$T3CC1$0$0              
            00CF  Ftime$T3CC1$0$0                  
            00CF  Fusb$T3CC1$0$0                   
            00CF  Fusb_cdc_acm$T3CC1$0$0           
            00D0  Fadc$P$0$0                       
            00D0  Fadc$PSW$0$0                     
            00D0  Fboard$P$0$0                     
            00D0  Fboard$PSW$0$0                   
            00D0  Fdma$P$0$0                       
            00D0  Fdma$PSW$0$0                     
            00D0  Fgreen_led$P$0$0                 
            00D0  Fgreen_led$PSW$0$0               
            00D0  Ftest_acc$P$0$0                  
            00D0  Ftest_acc$PSW$0$0                
            00D0  Ftime$P$0$0                      
            00D0  Ftime$PSW$0$0                    
            00D0  Fusb$P$0$0                       
            00D0  Fusb$PSW$0$0                     
            00D0  Fusb_cdc_acm$P$0$0               
            00D0  Fusb_cdc_acm$PSW$0$0             
            00D1  Fadc$DMAIRQ$0$0                  
            00D1  Fadc$F1$0$0                      
            00D1  Fboard$DMAIRQ$0$0                
            00D1  Fboard$F1$0$0                    
            00D1  Fdma$DMAIRQ$0$0                  
            00D1  Fdma$F1$0$0                      
            00D1  Fgreen_led$DMAIRQ$0$0            
            00D1  Fgreen_led$F1$0$0                
            00D1  Ftest_acc$DMAIRQ$0$0             
            00D1  Ftest_acc$F1$0$0                 
            00D1  Ftime$DMAIRQ$0$0                 
            00D1  Ftime$F1$0$0                     
            00D1  Fusb$DMAIRQ$0$0                  
            00D1  Fusb$F1$0$0                      
            00D1  Fusb_cdc_acm$DMAIRQ$0$0          
            00D1  Fusb_cdc_acm$F1$0$0              
            00D2  Fadc$DMA1CFGL$0$0                
            00D2  Fadc$OV$0$0                      
            00D2  Fboard$DMA1CFGL$0$0              
            00D2  Fboard$OV$0$0                    
            00D2  Fdma$DMA1CFGL$0$0                
            00D2  Fdma$OV$0$0                      
            00D2  Fgreen_led$DMA1CFGL$0$0          
ASxxxx Linker V02.00 + NoICE + sdld,  page 30.
Hexadecimal

Area                               Addr   Size   Decimal Bytes (Attributes)
--------------------------------   ----   ----   ------- ----- ------------
.	.ABS.                            0000   0000 =      0. bytes (ABS,CON)

      Value  Global                              Global Defined In Module
      -----  ---------------------------------   ------------------------
            00D2  Fgreen_led$OV$0$0                
            00D2  Ftest_acc$DMA1CFGL$0$0           
            00D2  Ftest_acc$OV$0$0                 
            00D2  Ftime$DMA1CFGL$0$0               
            00D2  Ftime$OV$0$0                     
            00D2  Fusb$DMA1CFGL$0$0                
            00D2  Fusb$OV$0$0                      
            00D2  Fusb_cdc_acm$DMA1CFGL$0$0        
            00D2  Fusb_cdc_acm$OV$0$0              
            00D3  Fadc$DMA1CFGH$0$0                
            00D3  Fadc$RS0$0$0                     
            00D3  Fboard$DMA1CFGH$0$0              
            00D3  Fboard$RS0$0$0                   
            00D3  Fdma$DMA1CFGH$0$0                
            00D3  Fdma$RS0$0$0                     
            00D3  Fgreen_led$DMA1CFGH$0$0          
            00D3  Fgreen_led$RS0$0$0               
            00D3  Ftest_acc$DMA1CFGH$0$0           
            00D3  Ftest_acc$RS0$0$0                
            00D3  Ftime$DMA1CFGH$0$0               
            00D3  Ftime$RS0$0$0                    
            00D3  Fusb$DMA1CFGH$0$0                
            00D3  Fusb$RS0$0$0                     
            00D3  Fusb_cdc_acm$DMA1CFGH$0$0        
            00D3  Fusb_cdc_acm$RS0$0$0             
            00D4  Fadc$DMA0CFGL$0$0                
            00D4  Fadc$RS1$0$0                     
            00D4  Fboard$DMA0CFGL$0$0              
            00D4  Fboard$RS1$0$0                   
            00D4  Fdma$DMA0CFGL$0$0                
            00D4  Fdma$RS1$0$0                     
            00D4  Fgreen_led$DMA0CFGL$0$0          
            00D4  Fgreen_led$RS1$0$0               
            00D4  Ftest_acc$DMA0CFGL$0$0           
            00D4  Ftest_acc$RS1$0$0                
            00D4  Ftime$DMA0CFGL$0$0               
            00D4  Ftime$RS1$0$0                    
            00D4  Fusb$DMA0CFGL$0$0                
            00D4  Fusb$RS1$0$0                     
            00D4  Fusb_cdc_acm$DMA0CFGL$0$0        
            00D4  Fusb_cdc_acm$RS1$0$0             
            00D5  Fadc$DMA0CFGH$0$0                
            00D5  Fadc$F0$0$0                      
            00D5  Fboard$DMA0CFGH$0$0              
            00D5  Fboard$F0$0$0                    
            00D5  Fdma$DMA0CFGH$0$0                
            00D5  Fdma$F0$0$0                      
            00D5  Fgreen_led$DMA0CFGH$0$0          
            00D5  Fgreen_led$F0$0$0                
            00D5  Ftest_acc$DMA0CFGH$0$0           
            00D5  Ftest_acc$F0$0$0                 
ASxxxx Linker V02.00 + NoICE + sdld,  page 31.
Hexadecimal

Area                               Addr   Size   Decimal Bytes (Attributes)
--------------------------------   ----   ----   ------- ----- ------------
.	.ABS.                            0000   0000 =      0. bytes (ABS,CON)

      Value  Global                              Global Defined In Module
      -----  ---------------------------------   ------------------------
            00D5  Ftime$DMA0CFGH$0$0               
            00D5  Ftime$F0$0$0                     
            00D5  Fusb$DMA0CFGH$0$0                
            00D5  Fusb$F0$0$0                      
            00D5  Fusb_cdc_acm$DMA0CFGH$0$0        
            00D5  Fusb_cdc_acm$F0$0$0              
            00D6  Fadc$AC$0$0                      
            00D6  Fadc$DMAARM$0$0                  
            00D6  Fboard$AC$0$0                    
            00D6  Fboard$DMAARM$0$0                
            00D6  Fdma$AC$0$0                      
            00D6  Fdma$DMAARM$0$0                  
            00D6  Fgreen_led$AC$0$0                
            00D6  Fgreen_led$DMAARM$0$0            
            00D6  Ftest_acc$AC$0$0                 
            00D6  Ftest_acc$DMAARM$0$0             
            00D6  Ftime$AC$0$0                     
            00D6  Ftime$DMAARM$0$0                 
            00D6  Fusb$AC$0$0                      
            00D6  Fusb$DMAARM$0$0                  
            00D6  Fusb_cdc_acm$AC$0$0              
            00D6  Fusb_cdc_acm$DMAARM$0$0          
            00D7  Fadc$CY$0$0                      
            00D7  Fadc$DMAREQ$0$0                  
            00D7  Fboard$CY$0$0                    
            00D7  Fboard$DMAREQ$0$0                
            00D7  Fdma$CY$0$0                      
            00D7  Fdma$DMAREQ$0$0                  
            00D7  Fgreen_led$CY$0$0                
            00D7  Fgreen_led$DMAREQ$0$0            
            00D7  Ftest_acc$CY$0$0                 
            00D7  Ftest_acc$DMAREQ$0$0             
            00D7  Ftime$CY$0$0                     
            00D7  Ftime$DMAREQ$0$0                 
            00D7  Fusb$CY$0$0                      
            00D7  Fusb$DMAREQ$0$0                  
            00D7  Fusb_cdc_acm$CY$0$0              
            00D7  Fusb_cdc_acm$DMAREQ$0$0          
            00D8  Fadc$T3OVFIF$0$0                 
            00D8  Fadc$TIMIF$0$0                   
            00D8  Fboard$T3OVFIF$0$0               
            00D8  Fboard$TIMIF$0$0                 
            00D8  Fdma$T3OVFIF$0$0                 
            00D8  Fdma$TIMIF$0$0                   
            00D8  Fgreen_led$T3OVFIF$0$0           
            00D8  Fgreen_led$TIMIF$0$0             
            00D8  Ftest_acc$T3OVFIF$0$0            
            00D8  Ftest_acc$TIMIF$0$0              
            00D8  Ftime$T3OVFIF$0$0                
            00D8  Ftime$TIMIF$0$0                  
            00D8  Fusb$T3OVFIF$0$0                 
ASxxxx Linker V02.00 + NoICE + sdld,  page 32.
Hexadecimal

Area                               Addr   Size   Decimal Bytes (Attributes)
--------------------------------   ----   ----   ------- ----- ------------
.	.ABS.                            0000   0000 =      0. bytes (ABS,CON)

      Value  Global                              Global Defined In Module
      -----  ---------------------------------   ------------------------
            00D8  Fusb$TIMIF$0$0                   
            00D8  Fusb_cdc_acm$T3OVFIF$0$0         
            00D8  Fusb_cdc_acm$TIMIF$0$0           
            00D9  Fadc$RFD$0$0                     
            00D9  Fadc$T3CH0IF$0$0                 
            00D9  Fboard$RFD$0$0                   
            00D9  Fboard$T3CH0IF$0$0               
            00D9  Fdma$RFD$0$0                     
            00D9  Fdma$T3CH0IF$0$0                 
            00D9  Fgreen_led$RFD$0$0               
            00D9  Fgreen_led$T3CH0IF$0$0           
            00D9  Ftest_acc$RFD$0$0                
            00D9  Ftest_acc$T3CH0IF$0$0            
            00D9  Ftime$RFD$0$0                    
            00D9  Ftime$T3CH0IF$0$0                
            00D9  Fusb$RFD$0$0                     
            00D9  Fusb$T3CH0IF$0$0                 
            00D9  Fusb_cdc_acm$RFD$0$0             
            00D9  Fusb_cdc_acm$T3CH0IF$0$0         
            00DA  Fadc$T1CC0L$0$0                  
            00DA  Fadc$T3CH1IF$0$0                 
            00DA  Fboard$T1CC0L$0$0                
            00DA  Fboard$T3CH1IF$0$0               
            00DA  Fdma$T1CC0L$0$0                  
            00DA  Fdma$T3CH1IF$0$0                 
            00DA  Fgreen_led$T1CC0L$0$0            
            00DA  Fgreen_led$T3CH1IF$0$0           
            00DA  Ftest_acc$T1CC0L$0$0             
            00DA  Ftest_acc$T3CH1IF$0$0            
            00DA  Ftime$T1CC0L$0$0                 
            00DA  Ftime$T3CH1IF$0$0                
            00DA  Fusb$T1CC0L$0$0                  
            00DA  Fusb$T3CH1IF$0$0                 
            00DA  Fusb_cdc_acm$T1CC0L$0$0          
            00DA  Fusb_cdc_acm$T3CH1IF$0$0         
            00DB  Fadc$T1CC0H$0$0                  
            00DB  Fadc$T4OVFIF$0$0                 
            00DB  Fboard$T1CC0H$0$0                
            00DB  Fboard$T4OVFIF$0$0               
            00DB  Fdma$T1CC0H$0$0                  
            00DB  Fdma$T4OVFIF$0$0                 
            00DB  Fgreen_led$T1CC0H$0$0            
            00DB  Fgreen_led$T4OVFIF$0$0           
            00DB  Ftest_acc$T1CC0H$0$0             
            00DB  Ftest_acc$T4OVFIF$0$0            
            00DB  Ftime$T1CC0H$0$0                 
            00DB  Ftime$T4OVFIF$0$0                
            00DB  Fusb$T1CC0H$0$0                  
            00DB  Fusb$T4OVFIF$0$0                 
            00DB  Fusb_cdc_acm$T1CC0H$0$0          
            00DB  Fusb_cdc_acm$T4OVFIF$0$0         
ASxxxx Linker V02.00 + NoICE + sdld,  page 33.
Hexadecimal

Area                               Addr   Size   Decimal Bytes (Attributes)
--------------------------------   ----   ----   ------- ----- ------------
.	.ABS.                            0000   0000 =      0. bytes (ABS,CON)

      Value  Global                              Global Defined In Module
      -----  ---------------------------------   ------------------------
            00DC  Fadc$T1CC1L$0$0                  
            00DC  Fadc$T4CH0IF$0$0                 
            00DC  Fboard$T1CC1L$0$0                
            00DC  Fboard$T4CH0IF$0$0               
            00DC  Fdma$T1CC1L$0$0                  
            00DC  Fdma$T4CH0IF$0$0                 
            00DC  Fgreen_led$T1CC1L$0$0            
            00DC  Fgreen_led$T4CH0IF$0$0           
            00DC  Ftest_acc$T1CC1L$0$0             
            00DC  Ftest_acc$T4CH0IF$0$0            
            00DC  Ftime$T1CC1L$0$0                 
            00DC  Ftime$T4CH0IF$0$0                
            00DC  Fusb$T1CC1L$0$0                  
            00DC  Fusb$T4CH0IF$0$0                 
            00DC  Fusb_cdc_acm$T1CC1L$0$0          
            00DC  Fusb_cdc_acm$T4CH0IF$0$0         
            00DD  Fadc$T1CC1H$0$0                  
            00DD  Fadc$T4CH1IF$0$0                 
            00DD  Fboard$T1CC1H$0$0                
            00DD  Fboard$T4CH1IF$0$0               
            00DD  Fdma$T1CC1H$0$0                  
            00DD  Fdma$T4CH1IF$0$0                 
            00DD  Fgreen_led$T1CC1H$0$0            
            00DD  Fgreen_led$T4CH1IF$0$0           
            00DD  Ftest_acc$T1CC1H$0$0             
            00DD  Ftest_acc$T4CH1IF$0$0            
            00DD  Ftime$T1CC1H$0$0                 
            00DD  Ftime$T4CH1IF$0$0                
            00DD  Fusb$T1CC1H$0$0                  
            00DD  Fusb$T4CH1IF$0$0                 
            00DD  Fusb_cdc_acm$T1CC1H$0$0          
            00DD  Fusb_cdc_acm$T4CH1IF$0$0         
            00DE  Fadc$OVFIM$0$0                   
            00DE  Fadc$T1CC2L$0$0                  
            00DE  Fboard$OVFIM$0$0                 
            00DE  Fboard$T1CC2L$0$0                
            00DE  Fdma$OVFIM$0$0                   
            00DE  Fdma$T1CC2L$0$0                  
            00DE  Fgreen_led$OVFIM$0$0             
            00DE  Fgreen_led$T1CC2L$0$0            
            00DE  Ftest_acc$OVFIM$0$0              
            00DE  Ftest_acc$T1CC2L$0$0             
            00DE  Ftime$OVFIM$0$0                  
            00DE  Ftime$T1CC2L$0$0                 
            00DE  Fusb$OVFIM$0$0                   
            00DE  Fusb$T1CC2L$0$0                  
            00DE  Fusb_cdc_acm$OVFIM$0$0           
            00DE  Fusb_cdc_acm$T1CC2L$0$0          
            00DF  Fadc$T1CC2H$0$0                  
            00DF  Fadc$_TIMIF7$0$0                 
            00DF  Fboard$T1CC2H$0$0                
ASxxxx Linker V02.00 + NoICE + sdld,  page 34.
Hexadecimal

Area                               Addr   Size   Decimal Bytes (Attributes)
--------------------------------   ----   ----   ------- ----- ------------
.	.ABS.                            0000   0000 =      0. bytes (ABS,CON)

      Value  Global                              Global Defined In Module
      -----  ---------------------------------   ------------------------
            00DF  Fboard$_TIMIF7$0$0               
            00DF  Fdma$T1CC2H$0$0                  
            00DF  Fdma$_TIMIF7$0$0                 
            00DF  Fgreen_led$T1CC2H$0$0            
            00DF  Fgreen_led$_TIMIF7$0$0           
            00DF  Ftest_acc$T1CC2H$0$0             
            00DF  Ftest_acc$_TIMIF7$0$0            
            00DF  Ftime$T1CC2H$0$0                 
            00DF  Ftime$_TIMIF7$0$0                
            00DF  Fusb$T1CC2H$0$0                  
            00DF  Fusb$_TIMIF7$0$0                 
            00DF  Fusb_cdc_acm$T1CC2H$0$0          
            00DF  Fusb_cdc_acm$_TIMIF7$0$0         
            00E0  Fadc$ACC$0$0                     
            00E0  Fadc$ACC_0$0$0                   
            00E0  Fboard$ACC$0$0                   
            00E0  Fboard$ACC_0$0$0                 
            00E0  Fdma$ACC$0$0                     
            00E0  Fdma$ACC_0$0$0                   
            00E0  Fgreen_led$ACC$0$0               
            00E0  Fgreen_led$ACC_0$0$0             
            00E0  Ftest_acc$ACC$0$0                
            00E0  Ftest_acc$ACC_0$0$0              
            00E0  Ftime$ACC$0$0                    
            00E0  Ftime$ACC_0$0$0                  
            00E0  Fusb$ACC$0$0                     
            00E0  Fusb$ACC_0$0$0                   
            00E0  Fusb_cdc_acm$ACC$0$0             
            00E0  Fusb_cdc_acm$ACC_0$0$0           
            00E1  Fadc$ACC_1$0$0                   
            00E1  Fadc$RFST$0$0                    
            00E1  Fboard$ACC_1$0$0                 
            00E1  Fboard$RFST$0$0                  
            00E1  Fdma$ACC_1$0$0                   
            00E1  Fdma$RFST$0$0                    
            00E1  Fgreen_led$ACC_1$0$0             
            00E1  Fgreen_led$RFST$0$0              
            00E1  Ftest_acc$ACC_1$0$0              
            00E1  Ftest_acc$RFST$0$0               
            00E1  Ftime$ACC_1$0$0                  
            00E1  Ftime$RFST$0$0                   
            00E1  Fusb$ACC_1$0$0                   
            00E1  Fusb$RFST$0$0                    
            00E1  Fusb_cdc_acm$ACC_1$0$0           
            00E1  Fusb_cdc_acm$RFST$0$0            
            00E2  Fadc$ACC_2$0$0                   
            00E2  Fadc$T1CNTL$0$0                  
            00E2  Fboard$ACC_2$0$0                 
            00E2  Fboard$T1CNTL$0$0                
            00E2  Fdma$ACC_2$0$0                   
            00E2  Fdma$T1CNTL$0$0                  
ASxxxx Linker V02.00 + NoICE + sdld,  page 35.
Hexadecimal

Area                               Addr   Size   Decimal Bytes (Attributes)
--------------------------------   ----   ----   ------- ----- ------------
.	.ABS.                            0000   0000 =      0. bytes (ABS,CON)

      Value  Global                              Global Defined In Module
      -----  ---------------------------------   ------------------------
            00E2  Fgreen_led$ACC_2$0$0             
            00E2  Fgreen_led$T1CNTL$0$0            
            00E2  Ftest_acc$ACC_2$0$0              
            00E2  Ftest_acc$T1CNTL$0$0             
            00E2  Ftime$ACC_2$0$0                  
            00E2  Ftime$T1CNTL$0$0                 
            00E2  Fusb$ACC_2$0$0                   
            00E2  Fusb$T1CNTL$0$0                  
            00E2  Fusb_cdc_acm$ACC_2$0$0           
            00E2  Fusb_cdc_acm$T1CNTL$0$0          
            00E3  Fadc$ACC_3$0$0                   
            00E3  Fadc$T1CNTH$0$0                  
            00E3  Fboard$ACC_3$0$0                 
            00E3  Fboard$T1CNTH$0$0                
            00E3  Fdma$ACC_3$0$0                   
            00E3  Fdma$T1CNTH$0$0                  
            00E3  Fgreen_led$ACC_3$0$0             
            00E3  Fgreen_led$T1CNTH$0$0            
            00E3  Ftest_acc$ACC_3$0$0              
            00E3  Ftest_acc$T1CNTH$0$0             
            00E3  Ftime$ACC_3$0$0                  
            00E3  Ftime$T1CNTH$0$0                 
            00E3  Fusb$ACC_3$0$0                   
            00E3  Fusb$T1CNTH$0$0                  
            00E3  Fusb_cdc_acm$ACC_3$0$0           
            00E3  Fusb_cdc_acm$T1CNTH$0$0          
            00E4  Fadc$ACC_4$0$0                   
            00E4  Fadc$T1CTL$0$0                   
            00E4  Fboard$ACC_4$0$0                 
            00E4  Fboard$T1CTL$0$0                 
            00E4  Fdma$ACC_4$0$0                   
            00E4  Fdma$T1CTL$0$0                   
            00E4  Fgreen_led$ACC_4$0$0             
            00E4  Fgreen_led$T1CTL$0$0             
            00E4  Ftest_acc$ACC_4$0$0              
            00E4  Ftest_acc$T1CTL$0$0              
            00E4  Ftime$ACC_4$0$0                  
            00E4  Ftime$T1CTL$0$0                  
            00E4  Fusb$ACC_4$0$0                   
            00E4  Fusb$T1CTL$0$0                   
            00E4  Fusb_cdc_acm$ACC_4$0$0           
            00E4  Fusb_cdc_acm$T1CTL$0$0           
            00E5  Fadc$ACC_5$0$0                   
            00E5  Fadc$T1CCTL0$0$0                 
            00E5  Fboard$ACC_5$0$0                 
            00E5  Fboard$T1CCTL0$0$0               
            00E5  Fdma$ACC_5$0$0                   
            00E5  Fdma$T1CCTL0$0$0                 
            00E5  Fgreen_led$ACC_5$0$0             
            00E5  Fgreen_led$T1CCTL0$0$0           
            00E5  Ftest_acc$ACC_5$0$0              
ASxxxx Linker V02.00 + NoICE + sdld,  page 36.
Hexadecimal

Area                               Addr   Size   Decimal Bytes (Attributes)
--------------------------------   ----   ----   ------- ----- ------------
.	.ABS.                            0000   0000 =      0. bytes (ABS,CON)

      Value  Global                              Global Defined In Module
      -----  ---------------------------------   ------------------------
            00E5  Ftest_acc$T1CCTL0$0$0            
            00E5  Ftime$ACC_5$0$0                  
            00E5  Ftime$T1CCTL0$0$0                
            00E5  Fusb$ACC_5$0$0                   
            00E5  Fusb$T1CCTL0$0$0                 
            00E5  Fusb_cdc_acm$ACC_5$0$0           
            00E5  Fusb_cdc_acm$T1CCTL0$0$0         
            00E6  Fadc$ACC_6$0$0                   
            00E6  Fadc$T1CCTL1$0$0                 
            00E6  Fboard$ACC_6$0$0                 
            00E6  Fboard$T1CCTL1$0$0               
            00E6  Fdma$ACC_6$0$0                   
            00E6  Fdma$T1CCTL1$0$0                 
            00E6  Fgreen_led$ACC_6$0$0             
            00E6  Fgreen_led$T1CCTL1$0$0           
            00E6  Ftest_acc$ACC_6$0$0              
            00E6  Ftest_acc$T1CCTL1$0$0            
            00E6  Ftime$ACC_6$0$0                  
            00E6  Ftime$T1CCTL1$0$0                
            00E6  Fusb$ACC_6$0$0                   
            00E6  Fusb$T1CCTL1$0$0                 
            00E6  Fusb_cdc_acm$ACC_6$0$0           
            00E6  Fusb_cdc_acm$T1CCTL1$0$0         
            00E7  Fadc$ACC_7$0$0                   
            00E7  Fadc$T1CCTL2$0$0                 
            00E7  Fboard$ACC_7$0$0                 
            00E7  Fboard$T1CCTL2$0$0               
            00E7  Fdma$ACC_7$0$0                   
            00E7  Fdma$T1CCTL2$0$0                 
            00E7  Fgreen_led$ACC_7$0$0             
            00E7  Fgreen_led$T1CCTL2$0$0           
            00E7  Ftest_acc$ACC_7$0$0              
            00E7  Ftest_acc$T1CCTL2$0$0            
            00E7  Ftime$ACC_7$0$0                  
            00E7  Ftime$T1CCTL2$0$0                
            00E7  Fusb$ACC_7$0$0                   
            00E7  Fusb$T1CCTL2$0$0                 
            00E7  Fusb_cdc_acm$ACC_7$0$0           
            00E7  Fusb_cdc_acm$T1CCTL2$0$0         
            00E8  Fadc$IRCON2$0$0                  
            00E8  Fadc$P2IF$0$0                    
            00E8  Fboard$IRCON2$0$0                
            00E8  Fboard$P2IF$0$0                  
            00E8  Fdma$IRCON2$0$0                  
            00E8  Fdma$P2IF$0$0                    
            00E8  Fgreen_led$IRCON2$0$0            
            00E8  Fgreen_led$P2IF$0$0              
            00E8  Ftest_acc$IRCON2$0$0             
            00E8  Ftest_acc$P2IF$0$0               
            00E8  Ftime$IRCON2$0$0                 
            00E8  Ftime$P2IF$0$0                   
ASxxxx Linker V02.00 + NoICE + sdld,  page 37.
Hexadecimal

Area                               Addr   Size   Decimal Bytes (Attributes)
--------------------------------   ----   ----   ------- ----- ------------
.	.ABS.                            0000   0000 =      0. bytes (ABS,CON)

      Value  Global                              Global Defined In Module
      -----  ---------------------------------   ------------------------
            00E8  Fusb$IRCON2$0$0                  
            00E8  Fusb$P2IF$0$0                    
            00E8  Fusb_cdc_acm$IRCON2$0$0          
            00E8  Fusb_cdc_acm$P2IF$0$0            
            00E9  Fadc$RFIF$0$0                    
            00E9  Fadc$UTX0IF$0$0                  
            00E9  Fboard$RFIF$0$0                  
            00E9  Fboard$UTX0IF$0$0                
            00E9  Fdma$RFIF$0$0                    
            00E9  Fdma$UTX0IF$0$0                  
            00E9  Fgreen_led$RFIF$0$0              
            00E9  Fgreen_led$UTX0IF$0$0            
            00E9  Ftest_acc$RFIF$0$0               
            00E9  Ftest_acc$UTX0IF$0$0             
            00E9  Ftime$RFIF$0$0                   
            00E9  Ftime$UTX0IF$0$0                 
            00E9  Fusb$RFIF$0$0                    
            00E9  Fusb$UTX0IF$0$0                  
            00E9  Fusb_cdc_acm$RFIF$0$0            
            00E9  Fusb_cdc_acm$UTX0IF$0$0          
            00EA  Fadc$T4CNT$0$0                   
            00EA  Fadc$UTX1IF$0$0                  
            00EA  Fboard$T4CNT$0$0                 
            00EA  Fboard$UTX1IF$0$0                
            00EA  Fdma$T4CNT$0$0                   
            00EA  Fdma$UTX1IF$0$0                  
            00EA  Fgreen_led$T4CNT$0$0             
            00EA  Fgreen_led$UTX1IF$0$0            
            00EA  Ftest_acc$T4CNT$0$0              
            00EA  Ftest_acc$UTX1IF$0$0             
            00EA  Ftime$T4CNT$0$0                  
            00EA  Ftime$UTX1IF$0$0                 
            00EA  Fusb$T4CNT$0$0                   
            00EA  Fusb$UTX1IF$0$0                  
            00EA  Fusb_cdc_acm$T4CNT$0$0           
            00EA  Fusb_cdc_acm$UTX1IF$0$0          
            00EB  Fadc$P1IF$0$0                    
            00EB  Fadc$T4CTL$0$0                   
            00EB  Fboard$P1IF$0$0                  
            00EB  Fboard$T4CTL$0$0                 
            00EB  Fdma$P1IF$0$0                    
            00EB  Fdma$T4CTL$0$0                   
            00EB  Fgreen_led$P1IF$0$0              
            00EB  Fgreen_led$T4CTL$0$0             
            00EB  Ftest_acc$P1IF$0$0               
            00EB  Ftest_acc$T4CTL$0$0              
            00EB  Ftime$P1IF$0$0                   
            00EB  Ftime$T4CTL$0$0                  
            00EB  Fusb$P1IF$0$0                    
            00EB  Fusb$T4CTL$0$0                   
            00EB  Fusb_cdc_acm$P1IF$0$0            
ASxxxx Linker V02.00 + NoICE + sdld,  page 38.
Hexadecimal

Area                               Addr   Size   Decimal Bytes (Attributes)
--------------------------------   ----   ----   ------- ----- ------------
.	.ABS.                            0000   0000 =      0. bytes (ABS,CON)

      Value  Global                              Global Defined In Module
      -----  ---------------------------------   ------------------------
            00EB  Fusb_cdc_acm$T4CTL$0$0           
            00EC  Fadc$T4CCTL0$0$0                 
            00EC  Fadc$WDTIF$0$0                   
            00EC  Fboard$T4CCTL0$0$0               
            00EC  Fboard$WDTIF$0$0                 
            00EC  Fdma$T4CCTL0$0$0                 
            00EC  Fdma$WDTIF$0$0                   
            00EC  Fgreen_led$T4CCTL0$0$0           
            00EC  Fgreen_led$WDTIF$0$0             
            00EC  Ftest_acc$T4CCTL0$0$0            
            00EC  Ftest_acc$WDTIF$0$0              
            00EC  Ftime$T4CCTL0$0$0                
            00EC  Ftime$WDTIF$0$0                  
            00EC  Fusb$T4CCTL0$0$0                 
            00EC  Fusb$WDTIF$0$0                   
            00EC  Fusb_cdc_acm$T4CCTL0$0$0         
            00EC  Fusb_cdc_acm$WDTIF$0$0           
            00ED  Fadc$T4CC0$0$0                   
            00ED  Fadc$_IRCON25$0$0                
            00ED  Fboard$T4CC0$0$0                 
            00ED  Fboard$_IRCON25$0$0              
            00ED  Fdma$T4CC0$0$0                   
            00ED  Fdma$_IRCON25$0$0                
            00ED  Fgreen_led$T4CC0$0$0             
            00ED  Fgreen_led$_IRCON25$0$0          
            00ED  Ftest_acc$T4CC0$0$0              
            00ED  Ftest_acc$_IRCON25$0$0           
            00ED  Ftime$T4CC0$0$0                  
            00ED  Ftime$_IRCON25$0$0               
            00ED  Fusb$T4CC0$0$0                   
            00ED  Fusb$_IRCON25$0$0                
            00ED  Fusb_cdc_acm$T4CC0$0$0           
            00ED  Fusb_cdc_acm$_IRCON25$0$0        
            00EE  Fadc$T4CCTL1$0$0                 
            00EE  Fadc$_IRCON26$0$0                
            00EE  Fboard$T4CCTL1$0$0               
            00EE  Fboard$_IRCON26$0$0              
            00EE  Fdma$T4CCTL1$0$0                 
            00EE  Fdma$_IRCON26$0$0                
            00EE  Fgreen_led$T4CCTL1$0$0           
            00EE  Fgreen_led$_IRCON26$0$0          
            00EE  Ftest_acc$T4CCTL1$0$0            
            00EE  Ftest_acc$_IRCON26$0$0           
            00EE  Ftime$T4CCTL1$0$0                
            00EE  Ftime$_IRCON26$0$0               
            00EE  Fusb$T4CCTL1$0$0                 
            00EE  Fusb$_IRCON26$0$0                
            00EE  Fusb_cdc_acm$T4CCTL1$0$0         
            00EE  Fusb_cdc_acm$_IRCON26$0$0        
            00EF  Fadc$T4CC1$0$0                   
            00EF  Fadc$_IRCON27$0$0                
ASxxxx Linker V02.00 + NoICE + sdld,  page 39.
Hexadecimal

Area                               Addr   Size   Decimal Bytes (Attributes)
--------------------------------   ----   ----   ------- ----- ------------
.	.ABS.                            0000   0000 =      0. bytes (ABS,CON)

      Value  Global                              Global Defined In Module
      -----  ---------------------------------   ------------------------
            00EF  Fboard$T4CC1$0$0                 
            00EF  Fboard$_IRCON27$0$0              
            00EF  Fdma$T4CC1$0$0                   
            00EF  Fdma$_IRCON27$0$0                
            00EF  Fgreen_led$T4CC1$0$0             
            00EF  Fgreen_led$_IRCON27$0$0          
            00EF  Ftest_acc$T4CC1$0$0              
            00EF  Ftest_acc$_IRCON27$0$0           
            00EF  Ftime$T4CC1$0$0                  
            00EF  Ftime$_IRCON27$0$0               
            00EF  Fusb$T4CC1$0$0                   
            00EF  Fusb$_IRCON27$0$0                
            00EF  Fusb_cdc_acm$T4CC1$0$0           
            00EF  Fusb_cdc_acm$_IRCON27$0$0        
            00F0  Fadc$B$0$0                       
            00F0  Fadc$B_0$0$0                     
            00F0  Fboard$B$0$0                     
            00F0  Fboard$B_0$0$0                   
            00F0  Fdma$B$0$0                       
            00F0  Fdma$B_0$0$0                     
            00F0  Fgreen_led$B$0$0                 
            00F0  Fgreen_led$B_0$0$0               
            00F0  Ftest_acc$B$0$0                  
            00F0  Ftest_acc$B_0$0$0                
            00F0  Ftime$B$0$0                      
            00F0  Ftime$B_0$0$0                    
            00F0  Fusb$B$0$0                       
            00F0  Fusb$B_0$0$0                     
            00F0  Fusb_cdc_acm$B$0$0               
            00F0  Fusb_cdc_acm$B_0$0$0             
            00F1  Fadc$B_1$0$0                     
            00F1  Fadc$PERCFG$0$0                  
            00F1  Fboard$B_1$0$0                   
            00F1  Fboard$PERCFG$0$0                
            00F1  Fdma$B_1$0$0                     
            00F1  Fdma$PERCFG$0$0                  
            00F1  Fgreen_led$B_1$0$0               
            00F1  Fgreen_led$PERCFG$0$0            
            00F1  Ftest_acc$B_1$0$0                
            00F1  Ftest_acc$PERCFG$0$0             
            00F1  Ftime$B_1$0$0                    
            00F1  Ftime$PERCFG$0$0                 
            00F1  Fusb$B_1$0$0                     
            00F1  Fusb$PERCFG$0$0                  
            00F1  Fusb_cdc_acm$B_1$0$0             
            00F1  Fusb_cdc_acm$PERCFG$0$0          
            00F2  Fadc$ADCCFG$0$0                  
            00F2  Fadc$B_2$0$0                     
            00F2  Fboard$ADCCFG$0$0                
            00F2  Fboard$B_2$0$0                   
            00F2  Fdma$ADCCFG$0$0                  
ASxxxx Linker V02.00 + NoICE + sdld,  page 40.
Hexadecimal

Area                               Addr   Size   Decimal Bytes (Attributes)
--------------------------------   ----   ----   ------- ----- ------------
.	.ABS.                            0000   0000 =      0. bytes (ABS,CON)

      Value  Global                              Global Defined In Module
      -----  ---------------------------------   ------------------------
            00F2  Fdma$B_2$0$0                     
            00F2  Fgreen_led$ADCCFG$0$0            
            00F2  Fgreen_led$B_2$0$0               
            00F2  Ftest_acc$ADCCFG$0$0             
            00F2  Ftest_acc$B_2$0$0                
            00F2  Ftime$ADCCFG$0$0                 
            00F2  Ftime$B_2$0$0                    
            00F2  Fusb$ADCCFG$0$0                  
            00F2  Fusb$B_2$0$0                     
            00F2  Fusb_cdc_acm$ADCCFG$0$0          
            00F2  Fusb_cdc_acm$B_2$0$0             
            00F3  Fadc$B_3$0$0                     
            00F3  Fadc$P0SEL$0$0                   
            00F3  Fboard$B_3$0$0                   
            00F3  Fboard$P0SEL$0$0                 
            00F3  Fdma$B_3$0$0                     
            00F3  Fdma$P0SEL$0$0                   
            00F3  Fgreen_led$B_3$0$0               
            00F3  Fgreen_led$P0SEL$0$0             
            00F3  Ftest_acc$B_3$0$0                
            00F3  Ftest_acc$P0SEL$0$0              
            00F3  Ftime$B_3$0$0                    
            00F3  Ftime$P0SEL$0$0                  
            00F3  Fusb$B_3$0$0                     
            00F3  Fusb$P0SEL$0$0                   
            00F3  Fusb_cdc_acm$B_3$0$0             
            00F3  Fusb_cdc_acm$P0SEL$0$0           
            00F4  Fadc$B_4$0$0                     
            00F4  Fadc$P1SEL$0$0                   
            00F4  Fboard$B_4$0$0                   
            00F4  Fboard$P1SEL$0$0                 
            00F4  Fdma$B_4$0$0                     
            00F4  Fdma$P1SEL$0$0                   
            00F4  Fgreen_led$B_4$0$0               
            00F4  Fgreen_led$P1SEL$0$0             
            00F4  Ftest_acc$B_4$0$0                
            00F4  Ftest_acc$P1SEL$0$0              
            00F4  Ftime$B_4$0$0                    
            00F4  Ftime$P1SEL$0$0                  
            00F4  Fusb$B_4$0$0                     
            00F4  Fusb$P1SEL$0$0                   
            00F4  Fusb_cdc_acm$B_4$0$0             
            00F4  Fusb_cdc_acm$P1SEL$0$0           
            00F5  Fadc$B_5$0$0                     
            00F5  Fadc$P2SEL$0$0                   
            00F5  Fboard$B_5$0$0                   
            00F5  Fboard$P2SEL$0$0                 
            00F5  Fdma$B_5$0$0                     
            00F5  Fdma$P2SEL$0$0                   
            00F5  Fgreen_led$B_5$0$0               
            00F5  Fgreen_led$P2SEL$0$0             
ASxxxx Linker V02.00 + NoICE + sdld,  page 41.
Hexadecimal

Area                               Addr   Size   Decimal Bytes (Attributes)
--------------------------------   ----   ----   ------- ----- ------------
.	.ABS.                            0000   0000 =      0. bytes (ABS,CON)

      Value  Global                              Global Defined In Module
      -----  ---------------------------------   ------------------------
            00F5  Ftest_acc$B_5$0$0                
            00F5  Ftest_acc$P2SEL$0$0              
            00F5  Ftime$B_5$0$0                    
            00F5  Ftime$P2SEL$0$0                  
            00F5  Fusb$B_5$0$0                     
            00F5  Fusb$P2SEL$0$0                   
            00F5  Fusb_cdc_acm$B_5$0$0             
            00F5  Fusb_cdc_acm$P2SEL$0$0           
            00F5  _B_5                             
            00F6  Fadc$B_6$0$0                     
            00F6  Fadc$P1INP$0$0                   
            00F6  Fboard$B_6$0$0                   
            00F6  Fboard$P1INP$0$0                 
            00F6  Fdma$B_6$0$0                     
            00F6  Fdma$P1INP$0$0                   
            00F6  Fgreen_led$B_6$0$0               
            00F6  Fgreen_led$P1INP$0$0             
            00F6  Ftest_acc$B_6$0$0                
            00F6  Ftest_acc$P1INP$0$0              
            00F6  Ftime$B_6$0$0                    
            00F6  Ftime$P1INP$0$0                  
            00F6  Fusb$B_6$0$0                     
            00F6  Fusb$P1INP$0$0                   
            00F6  Fusb_cdc_acm$B_6$0$0             
            00F6  Fusb_cdc_acm$P1INP$0$0           
            00F6  _B_6                             
            00F7  Fadc$B_7$0$0                     
            00F7  Fadc$P2INP$0$0                   
            00F7  Fboard$B_7$0$0                   
            00F7  Fboard$P2INP$0$0                 
            00F7  Fdma$B_7$0$0                     
            00F7  Fdma$P2INP$0$0                   
            00F7  Fgreen_led$B_7$0$0               
            00F7  Fgreen_led$P2INP$0$0             
            00F7  Ftest_acc$B_7$0$0                
            00F7  Ftest_acc$P2INP$0$0              
            00F7  Ftime$B_7$0$0                    
            00F7  Ftime$P2INP$0$0                  
            00F7  Fusb$B_7$0$0                     
            00F7  Fusb$P2INP$0$0                   
            00F7  Fusb_cdc_acm$B_7$0$0             
            00F7  Fusb_cdc_acm$P2INP$0$0           
            00F7  _B_7                             
            00F8  Fadc$U1ACTIVE$0$0                
            00F8  Fadc$U1CSR$0$0                   
            00F8  Fboard$U1ACTIVE$0$0              
            00F8  Fboard$U1CSR$0$0                 
            00F8  Fdma$U1ACTIVE$0$0                
            00F8  Fdma$U1CSR$0$0                   
            00F8  Fgreen_led$U1ACTIVE$0$0          
            00F8  Fgreen_led$U1CSR$0$0             
ASxxxx Linker V02.00 + NoICE + sdld,  page 42.
Hexadecimal

Area                               Addr   Size   Decimal Bytes (Attributes)
--------------------------------   ----   ----   ------- ----- ------------
.	.ABS.                            0000   0000 =      0. bytes (ABS,CON)

      Value  Global                              Global Defined In Module
      -----  ---------------------------------   ------------------------
            00F8  Ftest_acc$U1ACTIVE$0$0           
            00F8  Ftest_acc$U1CSR$0$0              
            00F8  Ftime$U1ACTIVE$0$0               
            00F8  Ftime$U1CSR$0$0                  
            00F8  Fusb$U1ACTIVE$0$0                
            00F8  Fusb$U1CSR$0$0                   
            00F8  Fusb_cdc_acm$U1ACTIVE$0$0        
            00F8  Fusb_cdc_acm$U1CSR$0$0           
            00F9  Fadc$U1DBUF$0$0                  
            00F9  Fadc$U1TX_BYTE$0$0               
            00F9  Fboard$U1DBUF$0$0                
            00F9  Fboard$U1TX_BYTE$0$0             
            00F9  Fdma$U1DBUF$0$0                  
            00F9  Fdma$U1TX_BYTE$0$0               
            00F9  Fgreen_led$U1DBUF$0$0            
            00F9  Fgreen_led$U1TX_BYTE$0$0         
            00F9  Ftest_acc$U1DBUF$0$0             
            00F9  Ftest_acc$U1TX_BYTE$0$0          
            00F9  Ftime$U1DBUF$0$0                 
            00F9  Ftime$U1TX_BYTE$0$0              
            00F9  Fusb$U1DBUF$0$0                  
            00F9  Fusb$U1TX_BYTE$0$0               
            00F9  Fusb_cdc_acm$U1DBUF$0$0          
            00F9  Fusb_cdc_acm$U1TX_BYTE$0$0       
            00FA  Fadc$U1BAUD$0$0                  
            00FA  Fadc$U1RX_BYTE$0$0               
            00FA  Fboard$U1BAUD$0$0                
            00FA  Fboard$U1RX_BYTE$0$0             
            00FA  Fdma$U1BAUD$0$0                  
            00FA  Fdma$U1RX_BYTE$0$0               
            00FA  Fgreen_led$U1BAUD$0$0            
            00FA  Fgreen_led$U1RX_BYTE$0$0         
            00FA  Ftest_acc$U1BAUD$0$0             
            00FA  Ftest_acc$U1RX_BYTE$0$0          
            00FA  Ftime$U1BAUD$0$0                 
            00FA  Ftime$U1RX_BYTE$0$0              
            00FA  Fusb$U1BAUD$0$0                  
            00FA  Fusb$U1RX_BYTE$0$0               
            00FA  Fusb_cdc_acm$U1BAUD$0$0          
            00FA  Fusb_cdc_acm$U1RX_BYTE$0$0       
            00FB  Fadc$U1ERR$0$0                   
            00FB  Fadc$U1UCR$0$0                   
            00FB  Fboard$U1ERR$0$0                 
            00FB  Fboard$U1UCR$0$0                 
            00FB  Fdma$U1ERR$0$0                   
            00FB  Fdma$U1UCR$0$0                   
            00FB  Fgreen_led$U1ERR$0$0             
            00FB  Fgreen_led$U1UCR$0$0             
            00FB  Ftest_acc$U1ERR$0$0              
            00FB  Ftest_acc$U1UCR$0$0              
            00FB  Ftime$U1ERR$0$0                  
ASxxxx Linker V02.00 + NoICE + sdld,  page 43.
Hexadecimal

Area                               Addr   Size   Decimal Bytes (Attributes)
--------------------------------   ----   ----   ------- ----- ------------
.	.ABS.                            0000   0000 =      0. bytes (ABS,CON)

      Value  Global                              Global Defined In Module
      -----  ---------------------------------   ------------------------
            00FB  Ftime$U1UCR$0$0                  
            00FB  Fusb$U1ERR$0$0                   
            00FB  Fusb$U1UCR$0$0                   
            00FB  Fusb_cdc_acm$U1ERR$0$0           
            00FB  Fusb_cdc_acm$U1UCR$0$0           
            00FC  Fadc$U1FE$0$0                    
            00FC  Fadc$U1GCR$0$0                   
            00FC  Fboard$U1FE$0$0                  
            00FC  Fboard$U1GCR$0$0                 
            00FC  Fdma$U1FE$0$0                    
            00FC  Fdma$U1GCR$0$0                   
            00FC  Fgreen_led$U1FE$0$0              
            00FC  Fgreen_led$U1GCR$0$0             
            00FC  Ftest_acc$U1FE$0$0               
            00FC  Ftest_acc$U1GCR$0$0              
            00FC  Ftime$U1FE$0$0                   
            00FC  Ftime$U1GCR$0$0                  
            00FC  Fusb$U1FE$0$0                    
            00FC  Fusb$U1GCR$0$0                   
            00FC  Fusb_cdc_acm$U1FE$0$0            
            00FC  Fusb_cdc_acm$U1GCR$0$0           
            00FD  Fadc$P0DIR$0$0                   
            00FD  Fadc$U1SLAVE$0$0                 
            00FD  Fboard$P0DIR$0$0                 
            00FD  Fboard$U1SLAVE$0$0               
            00FD  Fdma$P0DIR$0$0                   
            00FD  Fdma$U1SLAVE$0$0                 
            00FD  Fgreen_led$P0DIR$0$0             
            00FD  Fgreen_led$U1SLAVE$0$0           
            00FD  Ftest_acc$P0DIR$0$0              
            00FD  Ftest_acc$U1SLAVE$0$0            
            00FD  Ftime$P0DIR$0$0                  
            00FD  Ftime$U1SLAVE$0$0                
            00FD  Fusb$P0DIR$0$0                   
            00FD  Fusb$U1SLAVE$0$0                 
            00FD  Fusb_cdc_acm$P0DIR$0$0           
            00FD  Fusb_cdc_acm$U1SLAVE$0$0         
            00FE  Fadc$P1DIR$0$0                   
            00FE  Fadc$U1RE$0$0                    
            00FE  Fboard$P1DIR$0$0                 
            00FE  Fboard$U1RE$0$0                  
            00FE  Fdma$P1DIR$0$0                   
            00FE  Fdma$U1RE$0$0                    
            00FE  Fgreen_led$P1DIR$0$0             
            00FE  Fgreen_led$U1RE$0$0              
            00FE  Ftest_acc$P1DIR$0$0              
            00FE  Ftest_acc$U1RE$0$0               
            00FE  Ftime$P1DIR$0$0                  
            00FE  Ftime$U1RE$0$0                   
            00FE  Fusb$P1DIR$0$0                   
            00FE  Fusb$U1RE$0$0                    
ASxxxx Linker V02.00 + NoICE + sdld,  page 44.
Hexadecimal

Area                               Addr   Size   Decimal Bytes (Attributes)
--------------------------------   ----   ----   ------- ----- ------------
.	.ABS.                            0000   0000 =      0. bytes (ABS,CON)

      Value  Global                              Global Defined In Module
      -----  ---------------------------------   ------------------------
            00FE  Fusb_cdc_acm$P1DIR$0$0           
            00FE  Fusb_cdc_acm$U1RE$0$0            
            00FF  Fadc$P2DIR$0$0                   
            00FF  Fadc$U1MODE$0$0                  
            00FF  Fboard$P2DIR$0$0                 
            00FF  Fboard$U1MODE$0$0                
            00FF  Fdma$P2DIR$0$0                   
            00FF  Fdma$U1MODE$0$0                  
            00FF  Fgreen_led$P2DIR$0$0             
            00FF  Fgreen_led$U1MODE$0$0            
            00FF  Ftest_acc$P2DIR$0$0              
            00FF  Ftest_acc$U1MODE$0$0             
            00FF  Ftime$P2DIR$0$0                  
            00FF  Ftime$U1MODE$0$0                 
            00FF  Fusb$P2DIR$0$0                   
            00FF  Fusb$U1MODE$0$0                  
            00FF  Fusb_cdc_acm$P2DIR$0$0           
            00FF  Fusb_cdc_acm$U1MODE$0$0          
            03CC  _bootloaderDeviceDescriptor      
            03E0  _serialNumber                    
            03E6  _serialNumberStringDescriptor    
            DE00  Fadc$USBADDR$0$0                 
            DE00  Fboard$USBADDR$0$0               
            DE00  Fdma$USBADDR$0$0                 
            DE00  Fgreen_led$USBADDR$0$0           
            DE00  Ftest_acc$USBADDR$0$0            
            DE00  Ftime$USBADDR$0$0                
            DE00  Fusb$USBADDR$0$0                 
            DE00  Fusb_cdc_acm$USBADDR$0$0         
            DE01  Fadc$USBPOW$0$0                  
            DE01  Fboard$USBPOW$0$0                
            DE01  Fdma$USBPOW$0$0                  
            DE01  Fgreen_led$USBPOW$0$0            
            DE01  Ftest_acc$USBPOW$0$0             
            DE01  Ftime$USBPOW$0$0                 
            DE01  Fusb$USBPOW$0$0                  
            DE01  Fusb_cdc_acm$USBPOW$0$0          
            DE02  Fadc$USBIIF$0$0                  
            DE02  Fboard$USBIIF$0$0                
            DE02  Fdma$USBIIF$0$0                  
            DE02  Fgreen_led$USBIIF$0$0            
            DE02  Ftest_acc$USBIIF$0$0             
            DE02  Ftime$USBIIF$0$0                 
            DE02  Fusb$USBIIF$0$0                  
            DE02  Fusb_cdc_acm$USBIIF$0$0          
            DE04  Fadc$USBOIF$0$0                  
            DE04  Fboard$USBOIF$0$0                
            DE04  Fdma$USBOIF$0$0                  
            DE04  Fgreen_led$USBOIF$0$0            
            DE04  Ftest_acc$USBOIF$0$0             
            DE04  Ftime$USBOIF$0$0                 
ASxxxx Linker V02.00 + NoICE + sdld,  page 45.
Hexadecimal

Area                               Addr   Size   Decimal Bytes (Attributes)
--------------------------------   ----   ----   ------- ----- ------------
.	.ABS.                            0000   0000 =      0. bytes (ABS,CON)

      Value  Global                              Global Defined In Module
      -----  ---------------------------------   ------------------------
            DE04  Fusb$USBOIF$0$0                  
            DE04  Fusb_cdc_acm$USBOIF$0$0          
            DE06  Fadc$USBCIF$0$0                  
            DE06  Fboard$USBCIF$0$0                
            DE06  Fdma$USBCIF$0$0                  
            DE06  Fgreen_led$USBCIF$0$0            
            DE06  Ftest_acc$USBCIF$0$0             
            DE06  Ftime$USBCIF$0$0                 
            DE06  Fusb$USBCIF$0$0                  
            DE06  Fusb_cdc_acm$USBCIF$0$0          
            DE07  Fadc$USBIIE$0$0                  
            DE07  Fboard$USBIIE$0$0                
            DE07  Fdma$USBIIE$0$0                  
            DE07  Fgreen_led$USBIIE$0$0            
            DE07  Ftest_acc$USBIIE$0$0             
            DE07  Ftime$USBIIE$0$0                 
            DE07  Fusb$USBIIE$0$0                  
            DE07  Fusb_cdc_acm$USBIIE$0$0          
            DE09  Fadc$USBOIE$0$0                  
            DE09  Fboard$USBOIE$0$0                
            DE09  Fdma$USBOIE$0$0                  
            DE09  Fgreen_led$USBOIE$0$0            
            DE09  Ftest_acc$USBOIE$0$0             
            DE09  Ftime$USBOIE$0$0                 
            DE09  Fusb$USBOIE$0$0                  
            DE09  Fusb_cdc_acm$USBOIE$0$0          
            DE0B  Fadc$USBCIE$0$0                  
            DE0B  Fboard$USBCIE$0$0                
            DE0B  Fdma$USBCIE$0$0                  
            DE0B  Fgreen_led$USBCIE$0$0            
            DE0B  Ftest_acc$USBCIE$0$0             
            DE0B  Ftime$USBCIE$0$0                 
            DE0B  Fusb$USBCIE$0$0                  
            DE0B  Fusb_cdc_acm$USBCIE$0$0          
            DE0C  Fadc$USBFRML$0$0                 
            DE0C  Fboard$USBFRML$0$0               
            DE0C  Fdma$USBFRML$0$0                 
            DE0C  Fgreen_led$USBFRML$0$0           
            DE0C  Ftest_acc$USBFRML$0$0            
            DE0C  Ftime$USBFRML$0$0                
            DE0C  Fusb$USBFRML$0$0                 
            DE0C  Fusb_cdc_acm$USBFRML$0$0         
            DE0D  Fadc$USBFRMH$0$0                 
            DE0D  Fboard$USBFRMH$0$0               
            DE0D  Fdma$USBFRMH$0$0                 
            DE0D  Fgreen_led$USBFRMH$0$0           
            DE0D  Ftest_acc$USBFRMH$0$0            
            DE0D  Ftime$USBFRMH$0$0                
            DE0D  Fusb$USBFRMH$0$0                 
            DE0D  Fusb_cdc_acm$USBFRMH$0$0         
            DE0E  Fadc$USBINDEX$0$0                
ASxxxx Linker V02.00 + NoICE + sdld,  page 46.
Hexadecimal

Area                               Addr   Size   Decimal Bytes (Attributes)
--------------------------------   ----   ----   ------- ----- ------------
.	.ABS.                            0000   0000 =      0. bytes (ABS,CON)

      Value  Global                              Global Defined In Module
      -----  ---------------------------------   ------------------------
            DE0E  Fboard$USBINDEX$0$0              
            DE0E  Fdma$USBINDEX$0$0                
            DE0E  Fgreen_led$USBINDEX$0$0          
            DE0E  Ftest_acc$USBINDEX$0$0           
            DE0E  Ftime$USBINDEX$0$0               
            DE0E  Fusb$USBINDEX$0$0                
            DE0E  Fusb_cdc_acm$USBINDEX$0$0        
            DE10  Fadc$USBMAXI$0$0                 
            DE10  Fboard$USBMAXI$0$0               
            DE10  Fdma$USBMAXI$0$0                 
            DE10  Fgreen_led$USBMAXI$0$0           
            DE10  Ftest_acc$USBMAXI$0$0            
            DE10  Ftime$USBMAXI$0$0                
            DE10  Fusb$USBMAXI$0$0                 
            DE10  Fusb_cdc_acm$USBMAXI$0$0         
            DE11  Fadc$USBCSIL$0$0                 
            DE11  Fboard$USBCSIL$0$0               
            DE11  Fdma$USBCSIL$0$0                 
            DE11  Fgreen_led$USBCSIL$0$0           
            DE11  Ftest_acc$USBCSIL$0$0            
            DE11  Ftime$USBCSIL$0$0                
            DE11  Fusb$USBCSIL$0$0                 
            DE11  Fusb_cdc_acm$USBCSIL$0$0         
            DE12  Fadc$USBCSIH$0$0                 
            DE12  Fboard$USBCSIH$0$0               
            DE12  Fdma$USBCSIH$0$0                 
            DE12  Fgreen_led$USBCSIH$0$0           
            DE12  Ftest_acc$USBCSIH$0$0            
            DE12  Ftime$USBCSIH$0$0                
            DE12  Fusb$USBCSIH$0$0                 
            DE12  Fusb_cdc_acm$USBCSIH$0$0         
            DE13  Fadc$USBMAXO$0$0                 
            DE13  Fboard$USBMAXO$0$0               
            DE13  Fdma$USBMAXO$0$0                 
            DE13  Fgreen_led$USBMAXO$0$0           
            DE13  Ftest_acc$USBMAXO$0$0            
            DE13  Ftime$USBMAXO$0$0                
            DE13  Fusb$USBMAXO$0$0                 
            DE13  Fusb_cdc_acm$USBMAXO$0$0         
            DE14  Fadc$USBCSOL$0$0                 
            DE14  Fboard$USBCSOL$0$0               
            DE14  Fdma$USBCSOL$0$0                 
            DE14  Fgreen_led$USBCSOL$0$0           
            DE14  Ftest_acc$USBCSOL$0$0            
            DE14  Ftime$USBCSOL$0$0                
            DE14  Fusb$USBCSOL$0$0                 
            DE14  Fusb_cdc_acm$USBCSOL$0$0         
            DE15  Fadc$USBCSOH$0$0                 
            DE15  Fboard$USBCSOH$0$0               
            DE15  Fdma$USBCSOH$0$0                 
            DE15  Fgreen_led$USBCSOH$0$0           
ASxxxx Linker V02.00 + NoICE + sdld,  page 47.
Hexadecimal

Area                               Addr   Size   Decimal Bytes (Attributes)
--------------------------------   ----   ----   ------- ----- ------------
.	.ABS.                            0000   0000 =      0. bytes (ABS,CON)

      Value  Global                              Global Defined In Module
      -----  ---------------------------------   ------------------------
            DE15  Ftest_acc$USBCSOH$0$0            
            DE15  Ftime$USBCSOH$0$0                
            DE15  Fusb$USBCSOH$0$0                 
            DE15  Fusb_cdc_acm$USBCSOH$0$0         
            DE16  Fadc$USBCNTL$0$0                 
            DE16  Fboard$USBCNTL$0$0               
            DE16  Fdma$USBCNTL$0$0                 
            DE16  Fgreen_led$USBCNTL$0$0           
            DE16  Ftest_acc$USBCNTL$0$0            
            DE16  Ftime$USBCNTL$0$0                
            DE16  Fusb$USBCNTL$0$0                 
            DE16  Fusb_cdc_acm$USBCNTL$0$0         
            DE17  Fadc$USBCNTH$0$0                 
            DE17  Fboard$USBCNTH$0$0               
            DE17  Fdma$USBCNTH$0$0                 
            DE17  Fgreen_led$USBCNTH$0$0           
            DE17  Ftest_acc$USBCNTH$0$0            
            DE17  Ftime$USBCNTH$0$0                
            DE17  Fusb$USBCNTH$0$0                 
            DE17  Fusb_cdc_acm$USBCNTH$0$0         
            DE20  Fadc$USBF0$0$0                   
            DE20  Fboard$USBF0$0$0                 
            DE20  Fdma$USBF0$0$0                   
            DE20  Fgreen_led$USBF0$0$0             
            DE20  Ftest_acc$USBF0$0$0              
            DE20  Ftime$USBF0$0$0                  
            DE20  Fusb$USBF0$0$0                   
            DE20  Fusb_cdc_acm$USBF0$0$0           
            DE22  Fadc$USBF1$0$0                   
            DE22  Fboard$USBF1$0$0                 
            DE22  Fdma$USBF1$0$0                   
            DE22  Fgreen_led$USBF1$0$0             
            DE22  Ftest_acc$USBF1$0$0              
            DE22  Ftime$USBF1$0$0                  
            DE22  Fusb$USBF1$0$0                   
            DE22  Fusb_cdc_acm$USBF1$0$0           
            DE24  Fadc$USBF2$0$0                   
            DE24  Fboard$USBF2$0$0                 
            DE24  Fdma$USBF2$0$0                   
            DE24  Fgreen_led$USBF2$0$0             
            DE24  Ftest_acc$USBF2$0$0              
            DE24  Ftime$USBF2$0$0                  
            DE24  Fusb$USBF2$0$0                   
            DE24  Fusb_cdc_acm$USBF2$0$0           
            DE26  Fadc$USBF3$0$0                   
            DE26  Fboard$USBF3$0$0                 
            DE26  Fdma$USBF3$0$0                   
            DE26  Fgreen_led$USBF3$0$0             
            DE26  Ftest_acc$USBF3$0$0              
            DE26  Ftime$USBF3$0$0                  
            DE26  Fusb$USBF3$0$0                   
ASxxxx Linker V02.00 + NoICE + sdld,  page 48.
Hexadecimal

Area                               Addr   Size   Decimal Bytes (Attributes)
--------------------------------   ----   ----   ------- ----- ------------
.	.ABS.                            0000   0000 =      0. bytes (ABS,CON)

      Value  Global                              Global Defined In Module
      -----  ---------------------------------   ------------------------
            DE26  Fusb_cdc_acm$USBF3$0$0           
            DE28  Fadc$USBF4$0$0                   
            DE28  Fboard$USBF4$0$0                 
            DE28  Fdma$USBF4$0$0                   
            DE28  Fgreen_led$USBF4$0$0             
            DE28  Ftest_acc$USBF4$0$0              
            DE28  Ftime$USBF4$0$0                  
            DE28  Fusb$USBF4$0$0                   
            DE28  Fusb_cdc_acm$USBF4$0$0           
            DE2A  Fadc$USBF5$0$0                   
            DE2A  Fboard$USBF5$0$0                 
            DE2A  Fdma$USBF5$0$0                   
            DE2A  Fgreen_led$USBF5$0$0             
            DE2A  Ftest_acc$USBF5$0$0              
            DE2A  Ftime$USBF5$0$0                  
            DE2A  Fusb$USBF5$0$0                   
            DE2A  Fusb_cdc_acm$USBF5$0$0           
            DF00  Fadc$SYNC1$0$0                   
            DF00  Fboard$SYNC1$0$0                 
            DF00  Fdma$SYNC1$0$0                   
            DF00  Fgreen_led$SYNC1$0$0             
            DF00  Ftest_acc$SYNC1$0$0              
            DF00  Ftime$SYNC1$0$0                  
            DF00  Fusb$SYNC1$0$0                   
            DF00  Fusb_cdc_acm$SYNC1$0$0           
            DF01  Fadc$SYNC0$0$0                   
            DF01  Fboard$SYNC0$0$0                 
            DF01  Fdma$SYNC0$0$0                   
            DF01  Fgreen_led$SYNC0$0$0             
            DF01  Ftest_acc$SYNC0$0$0              
            DF01  Ftime$SYNC0$0$0                  
            DF01  Fusb$SYNC0$0$0                   
            DF01  Fusb_cdc_acm$SYNC0$0$0           
            DF02  Fadc$PKTLEN$0$0                  
            DF02  Fboard$PKTLEN$0$0                
            DF02  Fdma$PKTLEN$0$0                  
            DF02  Fgreen_led$PKTLEN$0$0            
            DF02  Ftest_acc$PKTLEN$0$0             
            DF02  Ftime$PKTLEN$0$0                 
            DF02  Fusb$PKTLEN$0$0                  
            DF02  Fusb_cdc_acm$PKTLEN$0$0          
            DF03  Fadc$PKTCTRL1$0$0                
            DF03  Fboard$PKTCTRL1$0$0              
            DF03  Fdma$PKTCTRL1$0$0                
            DF03  Fgreen_led$PKTCTRL1$0$0          
            DF03  Ftest_acc$PKTCTRL1$0$0           
            DF03  Ftime$PKTCTRL1$0$0               
            DF03  Fusb$PKTCTRL1$0$0                
            DF03  Fusb_cdc_acm$PKTCTRL1$0$0        
            DF04  Fadc$PKTCTRL0$0$0                
            DF04  Fboard$PKTCTRL0$0$0              
ASxxxx Linker V02.00 + NoICE + sdld,  page 49.
Hexadecimal

Area                               Addr   Size   Decimal Bytes (Attributes)
--------------------------------   ----   ----   ------- ----- ------------
.	.ABS.                            0000   0000 =      0. bytes (ABS,CON)

      Value  Global                              Global Defined In Module
      -----  ---------------------------------   ------------------------
            DF04  Fdma$PKTCTRL0$0$0                
            DF04  Fgreen_led$PKTCTRL0$0$0          
            DF04  Ftest_acc$PKTCTRL0$0$0           
            DF04  Ftime$PKTCTRL0$0$0               
            DF04  Fusb$PKTCTRL0$0$0                
            DF04  Fusb_cdc_acm$PKTCTRL0$0$0        
            DF05  Fadc$ADDR$0$0                    
            DF05  Fboard$ADDR$0$0                  
            DF05  Fdma$ADDR$0$0                    
            DF05  Fgreen_led$ADDR$0$0              
            DF05  Ftest_acc$ADDR$0$0               
            DF05  Ftime$ADDR$0$0                   
            DF05  Fusb$ADDR$0$0                    
            DF05  Fusb_cdc_acm$ADDR$0$0            
            DF06  Fadc$CHANNR$0$0                  
            DF06  Fboard$CHANNR$0$0                
            DF06  Fdma$CHANNR$0$0                  
            DF06  Fgreen_led$CHANNR$0$0            
            DF06  Ftest_acc$CHANNR$0$0             
            DF06  Ftime$CHANNR$0$0                 
            DF06  Fusb$CHANNR$0$0                  
            DF06  Fusb_cdc_acm$CHANNR$0$0          
            DF07  Fadc$FSCTRL1$0$0                 
            DF07  Fboard$FSCTRL1$0$0               
            DF07  Fdma$FSCTRL1$0$0                 
            DF07  Fgreen_led$FSCTRL1$0$0           
            DF07  Ftest_acc$FSCTRL1$0$0            
            DF07  Ftime$FSCTRL1$0$0                
            DF07  Fusb$FSCTRL1$0$0                 
            DF07  Fusb_cdc_acm$FSCTRL1$0$0         
            DF08  Fadc$FSCTRL0$0$0                 
            DF08  Fboard$FSCTRL0$0$0               
            DF08  Fdma$FSCTRL0$0$0                 
            DF08  Fgreen_led$FSCTRL0$0$0           
            DF08  Ftest_acc$FSCTRL0$0$0            
            DF08  Ftime$FSCTRL0$0$0                
            DF08  Fusb$FSCTRL0$0$0                 
            DF08  Fusb_cdc_acm$FSCTRL0$0$0         
            DF09  Fadc$FREQ2$0$0                   
            DF09  Fboard$FREQ2$0$0                 
            DF09  Fdma$FREQ2$0$0                   
            DF09  Fgreen_led$FREQ2$0$0             
            DF09  Ftest_acc$FREQ2$0$0              
            DF09  Ftime$FREQ2$0$0                  
            DF09  Fusb$FREQ2$0$0                   
            DF09  Fusb_cdc_acm$FREQ2$0$0           
            DF0A  Fadc$FREQ1$0$0                   
            DF0A  Fboard$FREQ1$0$0                 
            DF0A  Fdma$FREQ1$0$0                   
            DF0A  Fgreen_led$FREQ1$0$0             
            DF0A  Ftest_acc$FREQ1$0$0              
ASxxxx Linker V02.00 + NoICE + sdld,  page 50.
Hexadecimal

Area                               Addr   Size   Decimal Bytes (Attributes)
--------------------------------   ----   ----   ------- ----- ------------
.	.ABS.                            0000   0000 =      0. bytes (ABS,CON)

      Value  Global                              Global Defined In Module
      -----  ---------------------------------   ------------------------
            DF0A  Ftime$FREQ1$0$0                  
            DF0A  Fusb$FREQ1$0$0                   
            DF0A  Fusb_cdc_acm$FREQ1$0$0           
            DF0B  Fadc$FREQ0$0$0                   
            DF0B  Fboard$FREQ0$0$0                 
            DF0B  Fdma$FREQ0$0$0                   
            DF0B  Fgreen_led$FREQ0$0$0             
            DF0B  Ftest_acc$FREQ0$0$0              
            DF0B  Ftime$FREQ0$0$0                  
            DF0B  Fusb$FREQ0$0$0                   
            DF0B  Fusb_cdc_acm$FREQ0$0$0           
            DF0C  Fadc$MDMCFG4$0$0                 
            DF0C  Fboard$MDMCFG4$0$0               
            DF0C  Fdma$MDMCFG4$0$0                 
            DF0C  Fgreen_led$MDMCFG4$0$0           
            DF0C  Ftest_acc$MDMCFG4$0$0            
            DF0C  Ftime$MDMCFG4$0$0                
            DF0C  Fusb$MDMCFG4$0$0                 
            DF0C  Fusb_cdc_acm$MDMCFG4$0$0         
            DF0D  Fadc$MDMCFG3$0$0                 
            DF0D  Fboard$MDMCFG3$0$0               
            DF0D  Fdma$MDMCFG3$0$0                 
            DF0D  Fgreen_led$MDMCFG3$0$0           
            DF0D  Ftest_acc$MDMCFG3$0$0            
            DF0D  Ftime$MDMCFG3$0$0                
            DF0D  Fusb$MDMCFG3$0$0                 
            DF0D  Fusb_cdc_acm$MDMCFG3$0$0         
            DF0E  Fadc$MDMCFG2$0$0                 
            DF0E  Fboard$MDMCFG2$0$0               
            DF0E  Fdma$MDMCFG2$0$0                 
            DF0E  Fgreen_led$MDMCFG2$0$0           
            DF0E  Ftest_acc$MDMCFG2$0$0            
            DF0E  Ftime$MDMCFG2$0$0                
            DF0E  Fusb$MDMCFG2$0$0                 
            DF0E  Fusb_cdc_acm$MDMCFG2$0$0         
            DF0F  Fadc$MDMCFG1$0$0                 
            DF0F  Fboard$MDMCFG1$0$0               
            DF0F  Fdma$MDMCFG1$0$0                 
            DF0F  Fgreen_led$MDMCFG1$0$0           
            DF0F  Ftest_acc$MDMCFG1$0$0            
            DF0F  Ftime$MDMCFG1$0$0                
            DF0F  Fusb$MDMCFG1$0$0                 
            DF0F  Fusb_cdc_acm$MDMCFG1$0$0         
            DF10  Fadc$MDMCFG0$0$0                 
            DF10  Fboard$MDMCFG0$0$0               
            DF10  Fdma$MDMCFG0$0$0                 
            DF10  Fgreen_led$MDMCFG0$0$0           
            DF10  Ftest_acc$MDMCFG0$0$0            
            DF10  Ftime$MDMCFG0$0$0                
            DF10  Fusb$MDMCFG0$0$0                 
            DF10  Fusb_cdc_acm$MDMCFG0$0$0         
ASxxxx Linker V02.00 + NoICE + sdld,  page 51.
Hexadecimal

Area                               Addr   Size   Decimal Bytes (Attributes)
--------------------------------   ----   ----   ------- ----- ------------
.	.ABS.                            0000   0000 =      0. bytes (ABS,CON)

      Value  Global                              Global Defined In Module
      -----  ---------------------------------   ------------------------
            DF11  Fadc$DEVIATN$0$0                 
            DF11  Fboard$DEVIATN$0$0               
            DF11  Fdma$DEVIATN$0$0                 
            DF11  Fgreen_led$DEVIATN$0$0           
            DF11  Ftest_acc$DEVIATN$0$0            
            DF11  Ftime$DEVIATN$0$0                
            DF11  Fusb$DEVIATN$0$0                 
            DF11  Fusb_cdc_acm$DEVIATN$0$0         
            DF12  Fadc$MCSM2$0$0                   
            DF12  Fboard$MCSM2$0$0                 
            DF12  Fdma$MCSM2$0$0                   
            DF12  Fgreen_led$MCSM2$0$0             
            DF12  Ftest_acc$MCSM2$0$0              
            DF12  Ftime$MCSM2$0$0                  
            DF12  Fusb$MCSM2$0$0                   
            DF12  Fusb_cdc_acm$MCSM2$0$0           
            DF13  Fadc$MCSM1$0$0                   
            DF13  Fboard$MCSM1$0$0                 
            DF13  Fdma$MCSM1$0$0                   
            DF13  Fgreen_led$MCSM1$0$0             
            DF13  Ftest_acc$MCSM1$0$0              
            DF13  Ftime$MCSM1$0$0                  
            DF13  Fusb$MCSM1$0$0                   
            DF13  Fusb_cdc_acm$MCSM1$0$0           
            DF14  Fadc$MCSM0$0$0                   
            DF14  Fboard$MCSM0$0$0                 
            DF14  Fdma$MCSM0$0$0                   
            DF14  Fgreen_led$MCSM0$0$0             
            DF14  Ftest_acc$MCSM0$0$0              
            DF14  Ftime$MCSM0$0$0                  
            DF14  Fusb$MCSM0$0$0                   
            DF14  Fusb_cdc_acm$MCSM0$0$0           
            DF15  Fadc$FOCCFG$0$0                  
            DF15  Fboard$FOCCFG$0$0                
            DF15  Fdma$FOCCFG$0$0                  
            DF15  Fgreen_led$FOCCFG$0$0            
            DF15  Ftest_acc$FOCCFG$0$0             
            DF15  Ftime$FOCCFG$0$0                 
            DF15  Fusb$FOCCFG$0$0                  
            DF15  Fusb_cdc_acm$FOCCFG$0$0          
            DF16  Fadc$BSCFG$0$0                   
            DF16  Fboard$BSCFG$0$0                 
            DF16  Fdma$BSCFG$0$0                   
            DF16  Fgreen_led$BSCFG$0$0             
            DF16  Ftest_acc$BSCFG$0$0              
            DF16  Ftime$BSCFG$0$0                  
            DF16  Fusb$BSCFG$0$0                   
            DF16  Fusb_cdc_acm$BSCFG$0$0           
            DF17  Fadc$AGCCTRL2$0$0                
            DF17  Fboard$AGCCTRL2$0$0              
            DF17  Fdma$AGCCTRL2$0$0                
ASxxxx Linker V02.00 + NoICE + sdld,  page 52.
Hexadecimal

Area                               Addr   Size   Decimal Bytes (Attributes)
--------------------------------   ----   ----   ------- ----- ------------
.	.ABS.                            0000   0000 =      0. bytes (ABS,CON)

      Value  Global                              Global Defined In Module
      -----  ---------------------------------   ------------------------
            DF17  Fgreen_led$AGCCTRL2$0$0          
            DF17  Ftest_acc$AGCCTRL2$0$0           
            DF17  Ftime$AGCCTRL2$0$0               
            DF17  Fusb$AGCCTRL2$0$0                
            DF17  Fusb_cdc_acm$AGCCTRL2$0$0        
            DF18  Fadc$AGCCTRL1$0$0                
            DF18  Fboard$AGCCTRL1$0$0              
            DF18  Fdma$AGCCTRL1$0$0                
            DF18  Fgreen_led$AGCCTRL1$0$0          
            DF18  Ftest_acc$AGCCTRL1$0$0           
            DF18  Ftime$AGCCTRL1$0$0               
            DF18  Fusb$AGCCTRL1$0$0                
            DF18  Fusb_cdc_acm$AGCCTRL1$0$0        
            DF19  Fadc$AGCCTRL0$0$0                
            DF19  Fboard$AGCCTRL0$0$0              
            DF19  Fdma$AGCCTRL0$0$0                
            DF19  Fgreen_led$AGCCTRL0$0$0          
            DF19  Ftest_acc$AGCCTRL0$0$0           
            DF19  Ftime$AGCCTRL0$0$0               
            DF19  Fusb$AGCCTRL0$0$0                
            DF19  Fusb_cdc_acm$AGCCTRL0$0$0        
            DF1A  Fadc$FREND1$0$0                  
            DF1A  Fboard$FREND1$0$0                
            DF1A  Fdma$FREND1$0$0                  
            DF1A  Fgreen_led$FREND1$0$0            
            DF1A  Ftest_acc$FREND1$0$0             
            DF1A  Ftime$FREND1$0$0                 
            DF1A  Fusb$FREND1$0$0                  
            DF1A  Fusb_cdc_acm$FREND1$0$0          
            DF1B  Fadc$FREND0$0$0                  
            DF1B  Fboard$FREND0$0$0                
            DF1B  Fdma$FREND0$0$0                  
            DF1B  Fgreen_led$FREND0$0$0            
            DF1B  Ftest_acc$FREND0$0$0             
            DF1B  Ftime$FREND0$0$0                 
            DF1B  Fusb$FREND0$0$0                  
            DF1B  Fusb_cdc_acm$FREND0$0$0          
            DF1C  Fadc$FSCAL3$0$0                  
            DF1C  Fboard$FSCAL3$0$0                
            DF1C  Fdma$FSCAL3$0$0                  
            DF1C  Fgreen_led$FSCAL3$0$0            
            DF1C  Ftest_acc$FSCAL3$0$0             
            DF1C  Ftime$FSCAL3$0$0                 
            DF1C  Fusb$FSCAL3$0$0                  
            DF1C  Fusb_cdc_acm$FSCAL3$0$0          
            DF1D  Fadc$FSCAL2$0$0                  
            DF1D  Fboard$FSCAL2$0$0                
            DF1D  Fdma$FSCAL2$0$0                  
            DF1D  Fgreen_led$FSCAL2$0$0            
            DF1D  Ftest_acc$FSCAL2$0$0             
            DF1D  Ftime$FSCAL2$0$0                 
ASxxxx Linker V02.00 + NoICE + sdld,  page 53.
Hexadecimal

Area                               Addr   Size   Decimal Bytes (Attributes)
--------------------------------   ----   ----   ------- ----- ------------
.	.ABS.                            0000   0000 =      0. bytes (ABS,CON)

      Value  Global                              Global Defined In Module
      -----  ---------------------------------   ------------------------
            DF1D  Fusb$FSCAL2$0$0                  
            DF1D  Fusb_cdc_acm$FSCAL2$0$0          
            DF1E  Fadc$FSCAL1$0$0                  
            DF1E  Fboard$FSCAL1$0$0                
            DF1E  Fdma$FSCAL1$0$0                  
            DF1E  Fgreen_led$FSCAL1$0$0            
            DF1E  Ftest_acc$FSCAL1$0$0             
            DF1E  Ftime$FSCAL1$0$0                 
            DF1E  Fusb$FSCAL1$0$0                  
            DF1E  Fusb_cdc_acm$FSCAL1$0$0          
            DF1F  Fadc$FSCAL0$0$0                  
            DF1F  Fboard$FSCAL0$0$0                
            DF1F  Fdma$FSCAL0$0$0                  
            DF1F  Fgreen_led$FSCAL0$0$0            
            DF1F  Ftest_acc$FSCAL0$0$0             
            DF1F  Ftime$FSCAL0$0$0                 
            DF1F  Fusb$FSCAL0$0$0                  
            DF1F  Fusb_cdc_acm$FSCAL0$0$0          
            DF23  Fadc$TEST2$0$0                   
            DF23  Fboard$TEST2$0$0                 
            DF23  Fdma$TEST2$0$0                   
            DF23  Fgreen_led$TEST2$0$0             
            DF23  Ftest_acc$TEST2$0$0              
            DF23  Ftime$TEST2$0$0                  
            DF23  Fusb$TEST2$0$0                   
            DF23  Fusb_cdc_acm$TEST2$0$0           
            DF24  Fadc$TEST1$0$0                   
            DF24  Fboard$TEST1$0$0                 
            DF24  Fdma$TEST1$0$0                   
            DF24  Fgreen_led$TEST1$0$0             
            DF24  Ftest_acc$TEST1$0$0              
            DF24  Ftime$TEST1$0$0                  
            DF24  Fusb$TEST1$0$0                   
            DF24  Fusb_cdc_acm$TEST1$0$0           
            DF25  Fadc$TEST0$0$0                   
            DF25  Fboard$TEST0$0$0                 
            DF25  Fdma$TEST0$0$0                   
            DF25  Fgreen_led$TEST0$0$0             
            DF25  Ftest_acc$TEST0$0$0              
            DF25  Ftime$TEST0$0$0                  
            DF25  Fusb$TEST0$0$0                   
            DF25  Fusb_cdc_acm$TEST0$0$0           
            DF2E  Fadc$PA_TABLE0$0$0               
            DF2E  Fboard$PA_TABLE0$0$0             
            DF2E  Fdma$PA_TABLE0$0$0               
            DF2E  Fgreen_led$PA_TABLE0$0$0         
            DF2E  Ftest_acc$PA_TABLE0$0$0          
            DF2E  Ftime$PA_TABLE0$0$0              
            DF2E  Fusb$PA_TABLE0$0$0               
            DF2E  Fusb_cdc_acm$PA_TABLE0$0$0       
            DF2F  Fadc$IOCFG2$0$0                  
ASxxxx Linker V02.00 + NoICE + sdld,  page 54.
Hexadecimal

Area                               Addr   Size   Decimal Bytes (Attributes)
--------------------------------   ----   ----   ------- ----- ------------
.	.ABS.                            0000   0000 =      0. bytes (ABS,CON)

      Value  Global                              Global Defined In Module
      -----  ---------------------------------   ------------------------
            DF2F  Fboard$IOCFG2$0$0                
            DF2F  Fdma$IOCFG2$0$0                  
            DF2F  Fgreen_led$IOCFG2$0$0            
            DF2F  Ftest_acc$IOCFG2$0$0             
            DF2F  Ftime$IOCFG2$0$0                 
            DF2F  Fusb$IOCFG2$0$0                  
            DF2F  Fusb_cdc_acm$IOCFG2$0$0          
            DF30  Fadc$IOCFG1$0$0                  
            DF30  Fboard$IOCFG1$0$0                
            DF30  Fdma$IOCFG1$0$0                  
            DF30  Fgreen_led$IOCFG1$0$0            
            DF30  Ftest_acc$IOCFG1$0$0             
            DF30  Ftime$IOCFG1$0$0                 
            DF30  Fusb$IOCFG1$0$0                  
            DF30  Fusb_cdc_acm$IOCFG1$0$0          
            DF31  Fadc$IOCFG0$0$0                  
            DF31  Fboard$IOCFG0$0$0                
            DF31  Fdma$IOCFG0$0$0                  
            DF31  Fgreen_led$IOCFG0$0$0            
            DF31  Ftest_acc$IOCFG0$0$0             
            DF31  Ftime$IOCFG0$0$0                 
            DF31  Fusb$IOCFG0$0$0                  
            DF31  Fusb_cdc_acm$IOCFG0$0$0          
            DF36  Fadc$PARTNUM$0$0                 
            DF36  Fboard$PARTNUM$0$0               
            DF36  Fdma$PARTNUM$0$0                 
            DF36  Fgreen_led$PARTNUM$0$0           
            DF36  Ftest_acc$PARTNUM$0$0            
            DF36  Ftime$PARTNUM$0$0                
            DF36  Fusb$PARTNUM$0$0                 
            DF36  Fusb_cdc_acm$PARTNUM$0$0         
            DF37  Fadc$VERSION$0$0                 
            DF37  Fboard$VERSION$0$0               
            DF37  Fdma$VERSION$0$0                 
            DF37  Fgreen_led$VERSION$0$0           
            DF37  Ftest_acc$VERSION$0$0            
            DF37  Ftime$VERSION$0$0                
            DF37  Fusb$VERSION$0$0                 
            DF37  Fusb_cdc_acm$VERSION$0$0         
            DF38  Fadc$FREQEST$0$0                 
            DF38  Fboard$FREQEST$0$0               
            DF38  Fdma$FREQEST$0$0                 
            DF38  Fgreen_led$FREQEST$0$0           
            DF38  Ftest_acc$FREQEST$0$0            
            DF38  Ftime$FREQEST$0$0                
            DF38  Fusb$FREQEST$0$0                 
            DF38  Fusb_cdc_acm$FREQEST$0$0         
            DF39  Fadc$LQI$0$0                     
            DF39  Fboard$LQI$0$0                   
            DF39  Fdma$LQI$0$0                     
            DF39  Fgreen_led$LQI$0$0               
ASxxxx Linker V02.00 + NoICE + sdld,  page 55.
Hexadecimal

Area                               Addr   Size   Decimal Bytes (Attributes)
--------------------------------   ----   ----   ------- ----- ------------
.	.ABS.                            0000   0000 =      0. bytes (ABS,CON)

      Value  Global                              Global Defined In Module
      -----  ---------------------------------   ------------------------
            DF39  Ftest_acc$LQI$0$0                
            DF39  Ftime$LQI$0$0                    
            DF39  Fusb$LQI$0$0                     
            DF39  Fusb_cdc_acm$LQI$0$0             
            DF3A  Fadc$RSSI$0$0                    
            DF3A  Fboard$RSSI$0$0                  
            DF3A  Fdma$RSSI$0$0                    
            DF3A  Fgreen_led$RSSI$0$0              
            DF3A  Ftest_acc$RSSI$0$0               
            DF3A  Ftime$RSSI$0$0                   
            DF3A  Fusb$RSSI$0$0                    
            DF3A  Fusb_cdc_acm$RSSI$0$0            
            DF3B  Fadc$MARCSTATE$0$0               
            DF3B  Fboard$MARCSTATE$0$0             
            DF3B  Fdma$MARCSTATE$0$0               
            DF3B  Fgreen_led$MARCSTATE$0$0         
            DF3B  Ftest_acc$MARCSTATE$0$0          
            DF3B  Ftime$MARCSTATE$0$0              
            DF3B  Fusb$MARCSTATE$0$0               
            DF3B  Fusb_cdc_acm$MARCSTATE$0$0       
            DF3C  Fadc$PKTSTATUS$0$0               
            DF3C  Fboard$PKTSTATUS$0$0             
            DF3C  Fdma$PKTSTATUS$0$0               
            DF3C  Fgreen_led$PKTSTATUS$0$0         
            DF3C  Ftest_acc$PKTSTATUS$0$0          
            DF3C  Ftime$PKTSTATUS$0$0              
            DF3C  Fusb$PKTSTATUS$0$0               
            DF3C  Fusb_cdc_acm$PKTSTATUS$0$0       
            DF3D  Fadc$VCO_VC_DAC$0$0              
            DF3D  Fboard$VCO_VC_DAC$0$0            
            DF3D  Fdma$VCO_VC_DAC$0$0              
            DF3D  Fgreen_led$VCO_VC_DAC$0$0        
            DF3D  Ftest_acc$VCO_VC_DAC$0$0         
            DF3D  Ftime$VCO_VC_DAC$0$0             
            DF3D  Fusb$VCO_VC_DAC$0$0              
            DF3D  Fusb_cdc_acm$VCO_VC_DAC$0$0      
            DF40  Fadc$I2SCFG0$0$0                 
            DF40  Fboard$I2SCFG0$0$0               
            DF40  Fdma$I2SCFG0$0$0                 
            DF40  Fgreen_led$I2SCFG0$0$0           
            DF40  Ftest_acc$I2SCFG0$0$0            
            DF40  Ftime$I2SCFG0$0$0                
            DF40  Fusb$I2SCFG0$0$0                 
            DF40  Fusb_cdc_acm$I2SCFG0$0$0         
            DF41  Fadc$I2SCFG1$0$0                 
            DF41  Fboard$I2SCFG1$0$0               
            DF41  Fdma$I2SCFG1$0$0                 
            DF41  Fgreen_led$I2SCFG1$0$0           
            DF41  Ftest_acc$I2SCFG1$0$0            
            DF41  Ftime$I2SCFG1$0$0                
            DF41  Fusb$I2SCFG1$0$0                 
ASxxxx Linker V02.00 + NoICE + sdld,  page 56.
Hexadecimal

Area                               Addr   Size   Decimal Bytes (Attributes)
--------------------------------   ----   ----   ------- ----- ------------
.	.ABS.                            0000   0000 =      0. bytes (ABS,CON)

      Value  Global                              Global Defined In Module
      -----  ---------------------------------   ------------------------
            DF41  Fusb_cdc_acm$I2SCFG1$0$0         
            DF42  Fadc$I2SDATL$0$0                 
            DF42  Fboard$I2SDATL$0$0               
            DF42  Fdma$I2SDATL$0$0                 
            DF42  Fgreen_led$I2SDATL$0$0           
            DF42  Ftest_acc$I2SDATL$0$0            
            DF42  Ftime$I2SDATL$0$0                
            DF42  Fusb$I2SDATL$0$0                 
            DF42  Fusb_cdc_acm$I2SDATL$0$0         
            DF43  Fadc$I2SDATH$0$0                 
            DF43  Fboard$I2SDATH$0$0               
            DF43  Fdma$I2SDATH$0$0                 
            DF43  Fgreen_led$I2SDATH$0$0           
            DF43  Ftest_acc$I2SDATH$0$0            
            DF43  Ftime$I2SDATH$0$0                
            DF43  Fusb$I2SDATH$0$0                 
            DF43  Fusb_cdc_acm$I2SDATH$0$0         
            DF44  Fadc$I2SWCNT$0$0                 
            DF44  Fboard$I2SWCNT$0$0               
            DF44  Fdma$I2SWCNT$0$0                 
            DF44  Fgreen_led$I2SWCNT$0$0           
            DF44  Ftest_acc$I2SWCNT$0$0            
            DF44  Ftime$I2SWCNT$0$0                
            DF44  Fusb$I2SWCNT$0$0                 
            DF44  Fusb_cdc_acm$I2SWCNT$0$0         
            DF45  Fadc$I2SSTAT$0$0                 
            DF45  Fboard$I2SSTAT$0$0               
            DF45  Fdma$I2SSTAT$0$0                 
            DF45  Fgreen_led$I2SSTAT$0$0           
            DF45  Ftest_acc$I2SSTAT$0$0            
            DF45  Ftime$I2SSTAT$0$0                
            DF45  Fusb$I2SSTAT$0$0                 
            DF45  Fusb_cdc_acm$I2SSTAT$0$0         
            DF46  Fadc$I2SCLKF0$0$0                
            DF46  Fboard$I2SCLKF0$0$0              
            DF46  Fdma$I2SCLKF0$0$0                
            DF46  Fgreen_led$I2SCLKF0$0$0          
            DF46  Ftest_acc$I2SCLKF0$0$0           
            DF46  Ftime$I2SCLKF0$0$0               
            DF46  Fusb$I2SCLKF0$0$0                
            DF46  Fusb_cdc_acm$I2SCLKF0$0$0        
            DF47  Fadc$I2SCLKF1$0$0                
            DF47  Fboard$I2SCLKF1$0$0              
            DF47  Fdma$I2SCLKF1$0$0                
            DF47  Fgreen_led$I2SCLKF1$0$0          
            DF47  Ftest_acc$I2SCLKF1$0$0           
            DF47  Ftime$I2SCLKF1$0$0               
            DF47  Fusb$I2SCLKF1$0$0                
            DF47  Fusb_cdc_acm$I2SCLKF1$0$0        
            DF48  Fadc$I2SCLKF2$0$0                
            DF48  Fboard$I2SCLKF2$0$0              
ASxxxx Linker V02.00 + NoICE + sdld,  page 57.
Hexadecimal

Area                               Addr   Size   Decimal Bytes (Attributes)
--------------------------------   ----   ----   ------- ----- ------------
.	.ABS.                            0000   0000 =      0. bytes (ABS,CON)

      Value  Global                              Global Defined In Module
      -----  ---------------------------------   ------------------------
            DF48  Fdma$I2SCLKF2$0$0                
            DF48  Fgreen_led$I2SCLKF2$0$0          
            DF48  Ftest_acc$I2SCLKF2$0$0           
            DF48  Ftime$I2SCLKF2$0$0               
            DF48  Fusb$I2SCLKF2$0$0                
            DF48  Fusb_cdc_acm$I2SCLKF2$0$0        
ASxxxx Linker V02.00 + NoICE + sdld,  page 58.
Hexadecimal

Area                               Addr   Size   Decimal Bytes (Attributes)
--------------------------------   ----   ----   ------- ----- ------------
BSEG_BYTES                         0020   0003 =      3. bytes (REL,CON)

      Value  Global                              Global Defined In Module
      -----  ---------------------------------   ------------------------
ASxxxx Linker V02.00 + NoICE + sdld,  page 59.
Hexadecimal

Area                               Addr   Size   Decimal Bytes (Attributes)
--------------------------------   ----   ----   ------- ----- ------------
_CODE                              0020   0000 =      0. bytes (REL,CON)

      Value  Global                              Global Defined In Module
      -----  ---------------------------------   ------------------------
ASxxxx Linker V02.00 + NoICE + sdld,  page 60.
Hexadecimal

Area                               Addr   Size   Decimal Bytes (Attributes)
--------------------------------   ----   ----   ------- ----- ------------
REG_BANK_0                         0000   0008 =      8. bytes (REL,OVR)

      Value  Global                              Global Defined In Module
      -----  ---------------------------------   ------------------------
ASxxxx Linker V02.00 + NoICE + sdld,  page 61.
Hexadecimal

Area                               Addr   Size   Decimal Bytes (Attributes)
--------------------------------   ----   ----   ------- ----- ------------
REG_BANK_1                         0008   0008 =      8. bytes (REL,OVR)

      Value  Global                              Global Defined In Module
      -----  ---------------------------------   ------------------------
ASxxxx Linker V02.00 + NoICE + sdld,  page 62.
Hexadecimal

Area                               Addr   Size   Decimal Bytes (Attributes)
--------------------------------   ----   ----   ------- ----- ------------
REG_BANK_2                         0010   0008 =      8. bytes (REL,OVR)

      Value  Global                              Global Defined In Module
      -----  ---------------------------------   ------------------------
ASxxxx Linker V02.00 + NoICE + sdld,  page 63.
Hexadecimal

Area                               Addr   Size   Decimal Bytes (Attributes)
--------------------------------   ----   ----   ------- ----- ------------
REG_BANK_3                         0018   0008 =      8. bytes (REL,OVR)

      Value  Global                              Global Defined In Module
      -----  ---------------------------------   ------------------------
ASxxxx Linker V02.00 + NoICE + sdld,  page 64.
Hexadecimal

Area                               Addr   Size   Decimal Bytes (Attributes)
--------------------------------   ----   ----   ------- ----- ------------
BSEG                               0000   0013 =     19. bytes (REL,CON,BIT)

      Value  Global                              Global Defined In Module
      -----  ---------------------------------   ------------------------
       0B:  0000  Ftest_acc$initComplete$0$0       
       0B:  0001  Fusb_cdc_acm$sendEmptyPacketSoon$
       0B:  0002  Fusb_cdc_acm$startBootloaderSoon$
       0B:  0003  G$usbSuspendMode$0$0             
       0B:  0003  _usbSuspendMode                  
       0B:  0004  G$usbActivityFlag$0$0            
       0B:  0004  _usbActivityFlag                 
       0B:  0005  LusbSleep$savedP0IE$1$1          
       0B:  0006  Fboard$vbusHighBit$0$0           
       0B:  0007  LboardDetectVbus$savedState$2$2  
       0B:  0008  G$usbBlinkActive$0$0             
       0B:  0008  _usbBlinkActive                  
ASxxxx Linker V02.00 + NoICE + sdld,  page 65.
Hexadecimal

Area                               Addr   Size   Decimal Bytes (Attributes)
--------------------------------   ----   ----   ------- ----- ------------
BIT_BANK                           0018   0000 =      0. bytes (REL,OVR)

      Value  Global                              Global Defined In Module
      -----  ---------------------------------   ------------------------
ASxxxx Linker V02.00 + NoICE + sdld,  page 66.
Hexadecimal

Area                               Addr   Size   Decimal Bytes (Attributes)
--------------------------------   ----   ----   ------- ----- ------------
DSEG                               0000   0080 =    128. bytes (REL,CON)

      Value  Global                              Global Defined In Module
      -----  ---------------------------------   ------------------------
            0023  Ftest_acc$accSample$0$0          
            0025  Fusb_cdc_acm$inFifoBytesLoaded$0$
            0026  _bp                              

ASxxxx Linker V02.00 + NoICE + sdld,  page 67.
Hexadecimal

Area                               Addr   Size   Decimal Bytes (Attributes)
--------------------------------   ----   ----   ------- ----- ------------
OSEG                               002B   0004 =      4. bytes (REL,OVR)

      Value  Global                              Global Defined In Module
      -----  ---------------------------------   ------------------------
            002B  _calculate_digit_ul_1_1          

ASxxxx Linker V02.00 + NoICE + sdld,  page 68.
Hexadecimal

Area                               Addr   Size   Decimal Bytes (Attributes)
--------------------------------   ----   ----   ------- ----- ------------
ISEG                               0000   0000 =      0. bytes (REL,CON)

      Value  Global                              Global Defined In Module
      -----  ---------------------------------   ------------------------
ASxxxx Linker V02.00 + NoICE + sdld,  page 69.
Hexadecimal

Area                               Addr   Size   Decimal Bytes (Attributes)
--------------------------------   ----   ----   ------- ----- ------------
SSEG                               002F   00D1 =    209. bytes (REL,OVR)

      Value  Global                              Global Defined In Module
      -----  ---------------------------------   ------------------------
            002F  __start__stack                   

ASxxxx Linker V02.00 + NoICE + sdld,  page 70.
Hexadecimal

Area                               Addr   Size   Decimal Bytes (Attributes)
--------------------------------   ----   ----   ------- ----- ------------
PSEG                               F000   0042 =     66. bytes (REL,CON,PAG,XDATA)

      Value  Global                              Global Defined In Module
      -----  ---------------------------------   ------------------------
       0D:  F000  Ftest_acc$counter$0$0            
       0D:  F002  G$timeMs$0$0                     
       0D:  F002  _timeMs                          
       0D:  F006  G$usbComControlLineState$0$0     
       0D:  F006  _usbComControlLineState          
       0D:  F007  G$usbComSerialState$0$0          
       0D:  F007  _usbComSerialState               
       0D:  F008  Fusb_cdc_acm$lastReportedSerialSt
       0D:  F009  G$usbComLineCodingChangeHandler$0
       0D:  F009  _usbComLineCodingChangeHandler   
       0D:  F00B  LusbComRxReceive$size$1$1        
       0D:  F00B  _usbComRxReceive_PARM_2          
       0D:  F00C  LusbComTxSend$size$1$1           
       0D:  F00C  _usbComTxSend_PARM_2             
       0D:  F00D  G$controlTransferPointer$0$0     
       0D:  F00D  _controlTransferPointer          
       0D:  F00F  LusbReadFifo$count$1$1           
       0D:  F00F  _usbReadFifo_PARM_2              
       0D:  F010  LusbReadFifo$buffer$1$1          
       0D:  F010  _usbReadFifo_PARM_3              
       0D:  F012  LusbWriteFifo$count$1$1          
       0D:  F012  _usbWriteFifo_PARM_2             
       0D:  F013  LusbWriteFifo$buffer$1$1         
       0D:  F013  _usbWriteFifo_PARM_3             
       0D:  F015  LusbControlRead$source$1$1       
       0D:  F015  _usbControlRead_PARM_2           
       0D:  F017  LusbControlWrite$source$1$1      
       0D:  F017  _usbControlWrite_PARM_2          
       0D:  F019  LusbInitEndpointIn$maxPacketSize$
       0D:  F019  _usbInitEndpointIn_PARM_2        
       0D:  F01A  LusbInitEndpointOut$maxPacketSize
       0D:  F01A  _usbInitEndpointOut_PARM_2       
       0D:  F01B  LboardDetectVbus$lastCheck$1$1   
       0D:  F01C  _vsprintf_PARM_2                 
       0D:  F01F  _vsprintf_PARM_3                 
       0D:  F023  G$usbLastActivity$0$0            
       0D:  F023  _usbLastActivity                 
       0D:  F024  G$usbBlinkStart$0$0              
       0D:  F024  _usbBlinkStart                   
       0D:  F031  __print_format_PARM_2            
       0D:  F034  __print_format_PARM_3            
       0D:  F037  __print_format_PARM_4            
       0D:  F041  __gptrput_PARM_2                 

ASxxxx Linker V02.00 + NoICE + sdld,  page 71.
Hexadecimal

Area                               Addr   Size   Decimal Bytes (Attributes)
--------------------------------   ----   ----   ------- ----- ------------
XSEG                               F000   0051 =     81. bytes (REL,CON,XDATA)

      Value  Global                              Global Defined In Module
      -----  ---------------------------------   ------------------------
       0D:  F042  Ftest_acc$operationalTimeStamp$0$
       0D:  F046  LreportResults$buffer$2$2        
       0D:  F066  Fusb_cdc_acm$startBootloaderReque
       0D:  F067  G$usbSetupPacket$0$0             
       0D:  F067  _usbSetupPacket                  
       0D:  F06F  G$controlTransferBytesLeft$0$0   
       0D:  F06F  _controlTransferBytesLeft        
       0D:  F071  LusbStandardDeviceRequestHandler$
       0D:  F073  G$dmaConfig$0$0                  
       0D:  F073  _dmaConfig                       

ASxxxx Linker V02.00 + NoICE + sdld,  page 72.
Hexadecimal

Area                               Addr   Size   Decimal Bytes (Attributes)
--------------------------------   ----   ----   ------- ----- ------------
XISEG                              F093   0009 =      9. bytes (REL,CON,XDATA)

      Value  Global                              Global Defined In Module
      -----  ---------------------------------   ------------------------
       0D:  F093  G$usbComLineCoding$0$0           
       0D:  F093  _usbComLineCoding                
       0D:  F09A  G$usbDeviceState$0$0             
       0D:  F09A  _usbDeviceState                  
       0D:  F09B  G$controlTransferState$0$0       
       0D:  F09B  _controlTransferState            

ASxxxx Linker V02.00 + NoICE + sdld,  page 73.
Hexadecimal

Area                               Addr   Size   Decimal Bytes (Attributes)
--------------------------------   ----   ----   ------- ----- ------------
HOME                               0400   006D =    109. bytes (REL,CON,CODE)

      Value  Global                              Global Defined In Module
      -----  ---------------------------------   ------------------------
       0C:  0400  A$test_acc$732                   
       0C:  0403  A$test_acc$733                   
       0C:  040B  A$test_acc$735                   
       0C:  0413  A$test_acc$737                   
       0C:  041B  A$test_acc$739                   
       0C:  0423  A$test_acc$741                   
       0C:  042B  A$test_acc$743                   
       0C:  0433  A$test_acc$745                   
       0C:  043B  A$test_acc$747                   
       0C:  0443  A$test_acc$749                   
       0C:  044B  A$test_acc$751                   
       0C:  0453  A$test_acc$753                   
       0C:  045B  A$test_acc$755                   
       0C:  0463  A$test_acc$757                   
       0C:  0466  A$test_acc$779                   
       0C:  0466  __sdcc_program_startup           
       0C:  0469  A$test_acc$781                   
       0C:  046B  __sdcc_call_dptr                 

ASxxxx Linker V02.00 + NoICE + sdld,  page 74.
Hexadecimal

Area                               Addr   Size   Decimal Bytes (Attributes)
--------------------------------   ----   ----   ------- ----- ------------
GSINIT0                            046D   0003 =      3. bytes (REL,CON,CODE)

      Value  Global                              Global Defined In Module
      -----  ---------------------------------   ------------------------
       0C:  046D  __sdcc_gsinit_startup            

ASxxxx Linker V02.00 + NoICE + sdld,  page 75.
Hexadecimal

Area                               Addr   Size   Decimal Bytes (Attributes)
--------------------------------   ----   ----   ------- ----- ------------
GSINIT1                            0470   0000 =      0. bytes (REL,CON,CODE)

      Value  Global                              Global Defined In Module
      -----  ---------------------------------   ------------------------
ASxxxx Linker V02.00 + NoICE + sdld,  page 76.
Hexadecimal

Area                               Addr   Size   Decimal Bytes (Attributes)
--------------------------------   ----   ----   ------- ----- ------------
GSINIT2                            0470   000A =     10. bytes (REL,CON,CODE)

      Value  Global                              Global Defined In Module
      -----  ---------------------------------   ------------------------
ASxxxx Linker V02.00 + NoICE + sdld,  page 77.
Hexadecimal

Area                               Addr   Size   Decimal Bytes (Attributes)
--------------------------------   ----   ----   ------- ----- ------------
GSINIT3                            047A   0022 =     34. bytes (REL,CON,CODE)

      Value  Global                              Global Defined In Module
      -----  ---------------------------------   ------------------------
       0C:  047A  __mcs51_genXINIT                 

ASxxxx Linker V02.00 + NoICE + sdld,  page 78.
Hexadecimal

Area                               Addr   Size   Decimal Bytes (Attributes)
--------------------------------   ----   ----   ------- ----- ------------
GSINIT4                            049C   002A =     42. bytes (REL,CON,CODE)

      Value  Global                              Global Defined In Module
      -----  ---------------------------------   ------------------------
       0C:  049C  __mcs51_genRAMCLEAR              
       0C:  04A2  __mcs51_genXRAMCLEAR             

ASxxxx Linker V02.00 + NoICE + sdld,  page 79.
Hexadecimal

Area                               Addr   Size   Decimal Bytes (Attributes)
--------------------------------   ----   ----   ------- ----- ------------
GSINIT5                            04C6   0000 =      0. bytes (REL,CON,CODE)

      Value  Global                              Global Defined In Module
      -----  ---------------------------------   ------------------------
ASxxxx Linker V02.00 + NoICE + sdld,  page 80.
Hexadecimal

Area                               Addr   Size   Decimal Bytes (Attributes)
--------------------------------   ----   ----   ------- ----- ------------
GSINIT                             04C6   0034 =     52. bytes (REL,CON,CODE)

      Value  Global                              Global Defined In Module
      -----  ---------------------------------   ------------------------
       0C:  04C6  A$time$719                       
       0C:  04C6  C$time.c$16$1$1                  
       0C:  04C8  A$time$720                       
       0C:  04C9  A$time$721                       
       0C:  04CA  A$time$722                       
       0C:  04CB  A$time$723                       
       0C:  04CC  A$time$724                       
       0C:  04CD  A$time$725                       
       0C:  04CE  A$time$726                       
       0C:  04CF  A$time$727                       
       0C:  04D0  A$usb_cdc_acm$765                
       0C:  04D0  C$usb_cdc_acm.c$97$1$1           
       0C:  04D3  A$usb_cdc_acm$769                
       0C:  04D3  C$usb_cdc_acm.c$92$1$1           
       0C:  04D5  A$usb_cdc_acm$773                
       0C:  04D5  C$usb_cdc_acm.c$100$1$1          
       0C:  04D7  A$usb_cdc_acm$777                
       0C:  04D7  C$usb_cdc_acm.c$71$1$1           
       0C:  04D9  A$usb_cdc_acm$778                
       0C:  04DA  A$usb_cdc_acm$779                
       0C:  04DB  A$usb_cdc_acm$783                
       0C:  04DB  C$usb_cdc_acm.c$73$1$1           
       0C:  04DD  A$usb_cdc_acm$784                
       0C:  04DE  A$usb_cdc_acm$785                
       0C:  04DF  A$usb_cdc_acm$789                
       0C:  04DF  C$usb_cdc_acm.c$77$1$1           
       0C:  04E1  A$usb_cdc_acm$790                
       0C:  04E3  A$usb_cdc_acm$791                
       0C:  04E4  A$usb_cdc_acm$795                
       0C:  04E4  C$usb_cdc_acm.c$87$1$1           
       0C:  04E6  A$usb_cdc_acm$796                
       0C:  04E8  A$usb_cdc_acm$797                
       0C:  04EA  A$usb_cdc_acm$798                
       0C:  04EB  A$usb_cdc_acm$799                
       0C:  04EC  A$usb_cdc_acm$800                
       0C:  04ED  A$usb_cdc_acm$801                
       0C:  04EE  A$usb_cdc_acm$802                
       0C:  04EF  A$usb$787                        
       0C:  04EF  C$usb.c$24$1$1                   
       0C:  04F1  A$usb$791                        
       0C:  04F1  C$usb.c$27$1$1                   
       0C:  04F3  A$board$731                      
       0C:  04F3  C$board.c$86$2$1                 
       0C:  04F5  A$board$732                      
       0C:  04F7  A$board$733                      
       0C:  04F8  A$green_led$721                  
       0C:  04F8  C$green_led.c$9$1$1              

ASxxxx Linker V02.00 + NoICE + sdld,  page 81.
Hexadecimal

Area                               Addr   Size   Decimal Bytes (Attributes)
--------------------------------   ----   ----   ------- ----- ------------
GSFINAL                            04FA   0003 =      3. bytes (REL,CON,CODE)

      Value  Global                              Global Defined In Module
      -----  ---------------------------------   ------------------------
       0C:  04FA  A$test_acc$772                   

ASxxxx Linker V02.00 + NoICE + sdld,  page 82.
Hexadecimal

Area                               Addr   Size   Decimal Bytes (Attributes)
--------------------------------   ----   ----   ------- ----- ------------
CSEG                               04FD   1484 =   5252. bytes (REL,CON,CODE)

      Value  Global                              Global Defined In Module
      -----  ---------------------------------   ------------------------
       0C:  04FD  A$test_acc$805                   
       0C:  04FD  C$test_acc.c$294$0$0             
       0C:  04FD  G$ISR_T3$0$0                     
       0C:  04FD  _ISR_T3                          
       0C:  04FF  A$test_acc$806                   
       0C:  0502  A$test_acc$809                   
       0C:  0502  C$test_acc.c$298$1$1             
       0C:  0504  A$test_acc$812                   
       0C:  0504  C$test_acc.c$300$1$1             
       0C:  0507  A$test_acc$815                   
       0C:  0507  C$test_acc.c$304$2$2             
       0C:  050A  A$test_acc$819                   
       0C:  050A  C$test_acc.c$308$1$1             
       0C:  050C  A$test_acc$820                   
       0C:  050E  A$test_acc$823                   
       0C:  050E  C$test_acc.c$309$1$1             
       0C:  050E  XG$ISR_T3$0$0                    
       0C:  050F  A$test_acc$847                   
       0C:  050F  C$test_acc.c$327$1$1             
       0C:  050F  G$ISR_ADC$0$0                    
       0C:  050F  _ISR_ADC                         
       0C:  0511  A$test_acc$848                   
       0C:  0513  A$test_acc$849                   
       0C:  0516  A$test_acc$852                   
       0C:  0516  C$test_acc.c$331$1$1             
       0C:  0518  A$test_acc$855                   
       0C:  0518  C$test_acc.c$334$1$1             
       0C:  051B  A$test_acc$858                   
       0C:  051B  C$test_acc.c$337$2$2             
       0C:  051E  A$test_acc$859                   
       0C:  0520  A$test_acc$860                   
       0C:  0521  A$test_acc$861                   
       0C:  0522  A$test_acc$862                   
       0C:  0524  A$test_acc$863                   
       0C:  0525  A$test_acc$864                   
       0C:  0526  A$test_acc$865                   
       0C:  0528  A$test_acc$866                   
       0C:  052A  A$test_acc$867                   
       0C:  052C  A$test_acc$868                   
       0C:  052E  A$test_acc$869                   
       0C:  0530  A$test_acc$870                   
       0C:  0532  A$test_acc$871                   
       0C:  0534  A$test_acc$872                   
       0C:  0536  A$test_acc$876                   
       0C:  0536  C$test_acc.c$343$1$1             
       0C:  0538  A$test_acc$877                   
       0C:  053A  A$test_acc$878                   
       0C:  053C  A$test_acc$881                   
       0C:  053C  C$test_acc.c$344$1$1             
       0C:  053C  XG$ISR_ADC$0$0                   
ASxxxx Linker V02.00 + NoICE + sdld,  page 83.
Hexadecimal

Area                               Addr   Size   Decimal Bytes (Attributes)
--------------------------------   ----   ----   ------- ----- ------------
CSEG                               04FD   1484 =   5252. bytes (REL,CON,CODE)

      Value  Global                              Global Defined In Module
      -----  ---------------------------------   ------------------------
       0C:  053D  A$test_acc$906                   
       0C:  053D  C$test_acc.c$365$1$1             
       0C:  053D  C$test_acc.c$367$1$1             
       0C:  053D  Ftest_acc$updateLeds$0$0         
       0C:  0540  A$test_acc$909                   
       0C:  0540  C$test_acc.c$368$2$2             
       0C:  0543  A$test_acc$910                   
       0C:  0545  A$test_acc$911                   
       0C:  0548  A$test_acc$912                   
       0C:  054A  A$test_acc$914                   
       0C:  054D  A$test_acc$918                   
       0C:  054D  C$test_acc.c$372$1$1             
       0C:  0550  A$test_acc$919                   
       0C:  0552  A$test_acc$920                   
       0C:  0554  A$test_acc$921                   
       0C:  0556  A$test_acc$922                   
       0C:  0557  A$test_acc$923                   
       0C:  055A  A$test_acc$924                   
       0C:  055B  A$test_acc$925                   
       0C:  055C  A$test_acc$926                   
       0C:  055D  A$test_acc$927                   
       0C:  055E  A$test_acc$928                   
       0C:  055F  A$test_acc$929                   
       0C:  0560  A$test_acc$930                   
       0C:  0561  A$test_acc$931                   
       0C:  0562  A$test_acc$932                   
       0C:  0563  A$test_acc$933                   
       0C:  0564  A$test_acc$934                   
       0C:  0565  A$test_acc$935                   
       0C:  0566  A$test_acc$936                   
       0C:  0567  A$test_acc$937                   
       0C:  0568  A$test_acc$938                   
       0C:  0569  A$test_acc$939                   
       0C:  056A  A$test_acc$940                   
       0C:  056B  A$test_acc$941                   
       0C:  056C  A$test_acc$942                   
       0C:  056D  A$test_acc$943                   
       0C:  056E  A$test_acc$944                   
       0C:  056F  A$test_acc$945                   
       0C:  0570  A$test_acc$946                   
       0C:  0571  A$test_acc$947                   
       0C:  0572  A$test_acc$948                   
       0C:  0573  A$test_acc$949                   
       0C:  0575  A$test_acc$950                   
       0C:  0576  A$test_acc$951                   
       0C:  0578  A$test_acc$952                   
       0C:  0579  A$test_acc$953                   
       0C:  057A  A$test_acc$954                   
       0C:  057B  A$test_acc$955                   
       0C:  057C  A$test_acc$956                   
       0C:  057D  A$test_acc$957                   
ASxxxx Linker V02.00 + NoICE + sdld,  page 84.
Hexadecimal

Area                               Addr   Size   Decimal Bytes (Attributes)
--------------------------------   ----   ----   ------- ----- ------------
CSEG                               04FD   1484 =   5252. bytes (REL,CON,CODE)

      Value  Global                              Global Defined In Module
      -----  ---------------------------------   ------------------------
       0C:  057F  A$test_acc$960                   
       0C:  057F  C$test_acc.c$375$3$4             
       0C:  0582  A$test_acc$963                   
       0C:  0582  C$test_acc.c$378$2$3             
       0C:  0585  A$test_acc$964                   
       0C:  0587  A$test_acc$965                   
       0C:  0589  A$test_acc$966                   
       0C:  058B  A$test_acc$967                   
       0C:  058C  A$test_acc$968                   
       0C:  058F  A$test_acc$969                   
       0C:  0590  A$test_acc$970                   
       0C:  0591  A$test_acc$971                   
       0C:  0592  A$test_acc$972                   
       0C:  0593  A$test_acc$973                   
       0C:  0594  A$test_acc$974                   
       0C:  0595  A$test_acc$975                   
       0C:  0596  A$test_acc$976                   
       0C:  0597  A$test_acc$977                   
       0C:  0598  A$test_acc$978                   
       0C:  0599  A$test_acc$979                   
       0C:  059A  A$test_acc$983                   
       0C:  059A  C$test_acc.c$380$2$1             
       0C:  059A  XFtest_acc$updateLeds$0$0        
       0C:  059B  A$test_acc$998                   
       0C:  059B  C$test_acc.c$383$2$1             
       0C:  059B  C$test_acc.c$385$1$1             
       0C:  059B  Ftest_acc$reportResults$0$0      
       0C:  059E  A$test_acc$999                   
       0C:  05A0  A$test_acc$1000                  
       0C:  05A2  A$test_acc$1001                  
       0C:  05A5  A$test_acc$1003                  
       0C:  05A7  A$test_acc$1006                  
       0C:  05A7  C$test_acc.c$391$2$2             
       0C:  05A9  A$test_acc$1007                  
       0C:  05AB  A$test_acc$1008                  
       0C:  05AD  A$test_acc$1009                  
       0C:  05AF  A$test_acc$1010                  
       0C:  05B1  A$test_acc$1011                  
       0C:  05B3  A$test_acc$1012                  
       0C:  05B5  A$test_acc$1013                  
       0C:  05B7  A$test_acc$1014                  
       0C:  05B9  A$test_acc$1015                  
       0C:  05BB  A$test_acc$1016                  
       0C:  05BD  A$test_acc$1017                  
       0C:  05BF  A$test_acc$1018                  
       0C:  05C0  A$test_acc$1019                  
       0C:  05C2  A$test_acc$1020                  
       0C:  05C5  A$test_acc$1021                  
       0C:  05C7  A$test_acc$1022                  
       0C:  05C9  A$test_acc$1023                  
       0C:  05CB  A$test_acc$1024                  
ASxxxx Linker V02.00 + NoICE + sdld,  page 85.
Hexadecimal

Area                               Addr   Size   Decimal Bytes (Attributes)
--------------------------------   ----   ----   ------- ----- ------------
CSEG                               04FD   1484 =   5252. bytes (REL,CON,CODE)

      Value  Global                              Global Defined In Module
      -----  ---------------------------------   ------------------------
       0C:  05CD  A$test_acc$1025                  
       0C:  05CF  A$test_acc$1026                  
       0C:  05D0  A$test_acc$1027                  
       0C:  05D1  A$test_acc$1030                  
       0C:  05D1  C$test_acc.c$393$2$2             
       0C:  05D4  A$test_acc$1033                  
       0C:  05D4  C$test_acc.c$395$2$1             
       0C:  05D4  XFtest_acc$reportResults$0$0     
       0C:  05D7  A$test_acc$1035                  
       0C:  05D8  A$test_acc$1049                  
       0C:  05D8  C$test_acc.c$419$2$1             
       0C:  05D8  C$test_acc.c$422$1$1             
       0C:  05D8  G$main$0$0                       
       0C:  05D8  _main                            
       0C:  05DA  A$test_acc$1052                  
       0C:  05DA  C$test_acc.c$425$1$1             
       0C:  05DD  A$test_acc$1055                  
       0C:  05DD  C$test_acc.c$426$1$1             
       0C:  05E0  A$test_acc$1058                  
       0C:  05E0  C$test_acc.c$429$1$1             
       0C:  05E3  A$test_acc$1061                  
       0C:  05E3  C$test_acc.c$430$1$1             
       0C:  05E6  A$test_acc$1064                  
       0C:  05E6  C$test_acc.c$432$1$1             
       0C:  05E7  A$test_acc$1065                  
       0C:  05E9  A$test_acc$1066                  
       0C:  05EB  A$test_acc$1069                  
       0C:  05EB  C$test_acc.c$433$1$1             
       0C:  05ED  A$test_acc$1070                  
       0C:  05EE  A$test_acc$1071                  
       0C:  05EF  A$test_acc$1072                  
       0C:  05F0  A$test_acc$1073                  
       0C:  05F1  A$test_acc$1076                  
       0C:  05F1  C$test_acc.c$435$1$1             
       0C:  05F4  A$test_acc$1077                  
       0C:  05F6  A$test_acc$1078                  
       0C:  05F8  A$test_acc$1079                  
       0C:  05FA  A$test_acc$1080                  
       0C:  05FB  A$test_acc$1081                  
       0C:  05FE  A$test_acc$1082                  
       0C:  05FF  A$test_acc$1083                  
       0C:  0600  A$test_acc$1084                  
       0C:  0601  A$test_acc$1085                  
       0C:  0602  A$test_acc$1086                  
       0C:  0603  A$test_acc$1087                  
       0C:  0604  A$test_acc$1088                  
       0C:  0605  A$test_acc$1089                  
       0C:  0606  A$test_acc$1090                  
       0C:  0607  A$test_acc$1091                  
       0C:  0608  A$test_acc$1092                  
       0C:  0609  A$test_acc$1095                  
ASxxxx Linker V02.00 + NoICE + sdld,  page 86.
Hexadecimal

Area                               Addr   Size   Decimal Bytes (Attributes)
--------------------------------   ----   ----   ------- ----- ------------
CSEG                               04FD   1484 =   5252. bytes (REL,CON,CODE)

      Value  Global                              Global Defined In Module
      -----  ---------------------------------   ------------------------
       0C:  0609  C$test_acc.c$438$1$1             
       0C:  060B  A$test_acc$1101                  
       0C:  060B  C$test_acc.c$441$1$1             
       0C:  060B  C$test_acc.c$443$2$2             
       0C:  060D  A$test_acc$1102                  
       0C:  060E  A$test_acc$1103                  
       0C:  0610  A$test_acc$1104                  
       0C:  0611  A$test_acc$1105                  
       0C:  0612  A$test_acc$1106                  
       0C:  0613  A$test_acc$1107                  
       0C:  0615  A$test_acc$1108                  
       0C:  0616  A$test_acc$1111                  
       0C:  0616  C$test_acc.c$444$2$2             
       0C:  0618  A$test_acc$1112                  
       0C:  0619  A$test_acc$1113                  
       0C:  061C  A$test_acc$1114                  
       0C:  061D  A$test_acc$1115                  
       0C:  061E  A$test_acc$1116                  
       0C:  0621  A$test_acc$1117                  
       0C:  0623  A$test_acc$1119                  
       0C:  0625  A$test_acc$1123                  
       0C:  0625  C$test_acc.c$445$3$3             
       0C:  0627  A$test_acc$1124                  
       0C:  0628  A$test_acc$1125                  
       0C:  0629  A$test_acc$1126                  
       0C:  062A  A$test_acc$1127                  
       0C:  062B  A$test_acc$1131                  
       0C:  062B  C$test_acc.c$448$2$2             
       0C:  062D  A$test_acc$1132                  
       0C:  062E  A$test_acc$1133                  
       0C:  0630  A$test_acc$1134                  
       0C:  0631  A$test_acc$1135                  
       0C:  0632  A$test_acc$1136                  
       0C:  0634  A$test_acc$1137                  
       0C:  0636  A$test_acc$1140                  
       0C:  0636  C$test_acc.c$449$3$4             
       0C:  0639  A$test_acc$1144                  
       0C:  0639  C$test_acc.c$451$2$2             
       0C:  063C  A$test_acc$1147                  
       0C:  063C  C$test_acc.c$452$2$2             
       0C:  063F  A$test_acc$1150                  
       0C:  063F  C$test_acc.c$453$2$2             
       0C:  0642  A$test_acc$1153                  
       0C:  0642  C$test_acc.c$455$1$1             
       0C:  0642  XG$main$0$0                      
       0C:  0644  A$time$758                       
       0C:  0644  C$time.c$22$0$0                  
       0C:  0644  C$time.c$24$1$0                  
       0C:  0644  G$getMs$0$0                      
       0C:  0644  _getMs                           
       0C:  0646  A$time$759                       
ASxxxx Linker V02.00 + NoICE + sdld,  page 87.
Hexadecimal

Area                               Addr   Size   Decimal Bytes (Attributes)
--------------------------------   ----   ----   ------- ----- ------------
CSEG                               04FD   1484 =   5252. bytes (REL,CON,CODE)

      Value  Global                              Global Defined In Module
      -----  ---------------------------------   ------------------------
       0C:  0647  A$time$760                       
       0C:  0648  A$time$761                       
       0C:  0649  A$time$764                       
       0C:  0649  C$time.c$26$1$1                  
       0C:  064B  A$time$767                       
       0C:  064B  C$time.c$27$1$1                  
       0C:  064D  A$time$768                       
       0C:  064E  A$time$769                       
       0C:  064F  A$time$770                       
       0C:  0650  A$time$771                       
       0C:  0651  A$time$772                       
       0C:  0652  A$time$773                       
       0C:  0653  A$time$774                       
       0C:  0654  A$time$775                       
       0C:  0655  A$time$776                       
       0C:  0656  A$time$777                       
       0C:  0657  A$time$778                       
       0C:  0658  A$time$781                       
       0C:  0658  C$time.c$28$1$1                  
       0C:  0659  A$time$782                       
       0C:  065B  A$time$783                       
       0C:  065D  A$time$786                       
       0C:  065D  C$time.c$29$1$1                  
       0C:  065F  A$time$787                       
       0C:  0661  A$time$788                       
       0C:  0663  A$time$789                       
       0C:  0664  A$time$792                       
       0C:  0664  C$time.c$30$1$1                  
       0C:  0664  XG$getMs$0$0                     
       0C:  0665  A$time$812                       
       0C:  0665  C$time.c$32$1$1                  
       0C:  0665  G$ISR_T4$0$0                     
       0C:  0665  _ISR_T4                          
       0C:  0667  A$time$813                       
       0C:  0669  A$time$814                       
       0C:  066C  A$time$817                       
       0C:  066C  C$time.c$34$1$1                  
       0C:  066E  A$time$818                       
       0C:  066F  A$time$819                       
       0C:  0671  A$time$820                       
       0C:  0672  A$time$821                       
       0C:  0673  A$time$822                       
       0C:  0674  A$time$823                       
       0C:  0676  A$time$824                       
       0C:  0677  A$time$825                       
       0C:  0678  A$time$826                       
       0C:  0679  A$time$827                       
       0C:  067B  A$time$828                       
       0C:  067C  A$time$829                       
       0C:  067D  A$time$830                       
       0C:  067E  A$time$831                       
ASxxxx Linker V02.00 + NoICE + sdld,  page 88.
Hexadecimal

Area                               Addr   Size   Decimal Bytes (Attributes)
--------------------------------   ----   ----   ------- ----- ------------
CSEG                               04FD   1484 =   5252. bytes (REL,CON,CODE)

      Value  Global                              Global Defined In Module
      -----  ---------------------------------   ------------------------
       0C:  0680  A$time$832                       
       0C:  0681  A$time$835                       
       0C:  0681  C$time.c$37$1$1                  
       0C:  0684  A$time$836                       
       0C:  0686  A$time$837                       
       0C:  0688  A$time$840                       
       0C:  0688  C$time.c$38$1$1                  
       0C:  0688  XG$ISR_T4$0$0                    
       0C:  0689  A$time$863                       
       0C:  0689  C$time.c$46$1$1                  
       0C:  0689  G$delayMs$0$0                    
       0C:  0689  _delayMs                         
       0C:  068B  A$time$864                       
       0C:  068D  A$time$868                       
       0C:  068D  C$time.c$52$1$1                  
       0C:  068F  A$time$869                       
       0C:  0691  A$time$870                       
       0C:  0692  A$time$871                       
       0C:  0695  A$time$872                       
       0C:  0696  A$time$874                       
       0C:  0697  A$time$875                       
       0C:  0698  A$time$876                       
       0C:  069A  A$time$879                       
       0C:  069A  C$time.c$54$2$2                  
       0C:  069D  A$time$880                       
       0C:  069F  A$time$881                       
       0C:  06A1  A$time$882                       
       0C:  06A4  A$time$885                       
       0C:  06A4  C$time.c$55$2$2                  
       0C:  06A7  A$time$886                       
       0C:  06AA  A$time$889                       
       0C:  06AA  C$time.c$56$2$2                  
       0C:  06AD  A$time$890                       
       0C:  06B0  A$time$893                       
       0C:  06B0  C$time.c$57$2$2                  
       0C:  06B3  A$time$894                       
       0C:  06B6  A$time$895                       
       0C:  06B8  A$time$896                       
       0C:  06BA  A$time$897                       
       0C:  06BC  A$time$901                       
       0C:  06BC  C$time.c$59$1$1                  
       0C:  06BC  XG$delayMs$0$0                   
       0C:  06BD  A$time$915                       
       0C:  06BD  C$time.c$67$1$1                  
       0C:  06BD  C$time.c$70$1$1                  
       0C:  06BD  G$timeInit$0$0                   
       0C:  06BD  _timeInit                        
       0C:  06C0  A$time$918                       
       0C:  06C0  C$time.c$72$1$1                  
       0C:  06C2  A$time$921                       
       0C:  06C2  C$time.c$79$1$1                  
ASxxxx Linker V02.00 + NoICE + sdld,  page 89.
Hexadecimal

Area                               Addr   Size   Decimal Bytes (Attributes)
--------------------------------   ----   ----   ------- ----- ------------
CSEG                               04FD   1484 =   5252. bytes (REL,CON,CODE)

      Value  Global                              Global Defined In Module
      -----  ---------------------------------   ------------------------
       0C:  06C5  A$time$924                       
       0C:  06C5  C$time.c$81$1$1                  
       0C:  06C7  A$time$927                       
       0C:  06C7  C$time.c$82$1$1                  
       0C:  06C7  XG$timeInit$0$0                  
       0C:  06C8  A$time$941                       
       0C:  06C8  C$time.c$84$1$1                  
       0C:  06C8  C$time.c$87$1$1                  
       0C:  06C8  G$isrTimerInit$0$0               
       0C:  06C8  _isrTimerInit                    
       0C:  06CB  A$time$944                       
       0C:  06CB  C$time.c$89$1$1                  
       0C:  06CD  A$time$947                       
       0C:  06CD  C$time.c$96$1$1                  
       0C:  06D0  A$time$950                       
       0C:  06D0  C$time.c$99$1$1                  
       0C:  06D3  A$time$953                       
       0C:  06D3  C$time.c$100$1$1                 
       0C:  06D6  A$time$956                       
       0C:  06D6  C$time.c$101$1$1                 
       0C:  06D6  XG$isrTimerInit$0$0              
       0C:  06D7  A$usb_cdc_acm$833                
       0C:  06D7  C$usb_cdc_acm.c$234$0$0          
       0C:  06D7  C$usb_cdc_acm.c$236$1$1          
       0C:  06D7  G$usbCallbackInitEndpoints$0$0   
       0C:  06D7  _usbCallbackInitEndpoints        
       0C:  06D9  A$usb_cdc_acm$834                
       0C:  06DB  A$usb_cdc_acm$835                
       0C:  06DC  A$usb_cdc_acm$836                
       0C:  06DF  A$usb_cdc_acm$837                
       0C:  06E2  A$usb_cdc_acm$840                
       0C:  06E2  C$usb_cdc_acm.c$237$1$1          
       0C:  06E4  A$usb_cdc_acm$841                
       0C:  06E6  A$usb_cdc_acm$842                
       0C:  06E7  A$usb_cdc_acm$843                
       0C:  06EA  A$usb_cdc_acm$844                
       0C:  06ED  A$usb_cdc_acm$847                
       0C:  06ED  C$usb_cdc_acm.c$238$1$1          
       0C:  06EF  A$usb_cdc_acm$848                
       0C:  06F1  A$usb_cdc_acm$849                
       0C:  06F2  A$usb_cdc_acm$850                
       0C:  06F5  A$usb_cdc_acm$851                
       0C:  06F8  A$usb_cdc_acm$854                
       0C:  06F8  C$usb_cdc_acm.c$241$1$1          
       0C:  06FA  A$usb_cdc_acm$855                
       0C:  06FC  A$usb_cdc_acm$856                
       0C:  06FD  A$usb_cdc_acm$859                
       0C:  06FD  C$usb_cdc_acm.c$242$1$1          
       0C:  06FD  XG$usbCallbackInitEndpoints$0$0  
       0C:  06FE  A$usb_cdc_acm$873                
       0C:  06FE  C$usb_cdc_acm.c$246$1$1          
ASxxxx Linker V02.00 + NoICE + sdld,  page 90.
Hexadecimal

Area                               Addr   Size   Decimal Bytes (Attributes)
--------------------------------   ----   ----   ------- ----- ------------
CSEG                               04FD   1484 =   5252. bytes (REL,CON,CODE)

      Value  Global                              Global Defined In Module
      -----  ---------------------------------   ------------------------
       0C:  06FE  C$usb_cdc_acm.c$248$1$1          
       0C:  06FE  G$usbCallbackSetupHandler$0$0    
       0C:  06FE  _usbCallbackSetupHandler         
       0C:  0701  A$usb_cdc_acm$874                
       0C:  0702  A$usb_cdc_acm$875                
       0C:  0703  A$usb_cdc_acm$876                
       0C:  0706  A$usb_cdc_acm$879                
       0C:  0706  C$usb_cdc_acm.c$249$1$1          
       0C:  0709  A$usb_cdc_acm$882                
       0C:  0709  C$usb_cdc_acm.c$251$1$1          
       0C:  070C  A$usb_cdc_acm$883                
       0C:  070D  A$usb_cdc_acm$884                
       0C:  070E  A$usb_cdc_acm$885                
       0C:  070F  A$usb_cdc_acm$886                
       0C:  0710  A$usb_cdc_acm$887                
       0C:  0711  A$usb_cdc_acm$888                
       0C:  0712  A$usb_cdc_acm$889                
       0C:  0714  A$usb_cdc_acm$892                
       0C:  0714  C$usb_cdc_acm.c$252$1$1          
       0C:  0717  A$usb_cdc_acm$893                
       0C:  071A  A$usb_cdc_acm$897                
       0C:  071A  C$usb_cdc_acm.c$254$1$1          
       0C:  071D  A$usb_cdc_acm$898                
       0C:  071E  A$usb_cdc_acm$899                
       0C:  071F  A$usb_cdc_acm$900                
       0C:  0722  A$usb_cdc_acm$901                
       0C:  0724  A$usb_cdc_acm$903                
       0C:  0727  A$usb_cdc_acm$904                
       0C:  0729  A$usb_cdc_acm$908                
       0C:  0729  C$usb_cdc_acm.c$256$2$2          
       0C:  072C  A$usb_cdc_acm$909                
       0C:  072E  A$usb_cdc_acm$913                
       0C:  072E  C$usb_cdc_acm.c$257$2$2          
       0C:  0730  A$usb_cdc_acm$914                
       0C:  0732  A$usb_cdc_acm$915                
       0C:  0733  A$usb_cdc_acm$916                
       0C:  0734  A$usb_cdc_acm$917                
       0C:  0736  A$usb_cdc_acm$918                
       0C:  0737  A$usb_cdc_acm$919                
       0C:  073A  A$usb_cdc_acm$924                
       0C:  073A  C$usb_cdc_acm.c$258$2$2          
       0C:  073A  C$usb_cdc_acm.c$260$2$2          
       0C:  073D  A$usb_cdc_acm$928                
       0C:  073D  C$usb_cdc_acm.c$261$2$2          
       0C:  073F  A$usb_cdc_acm$929                
       0C:  0741  A$usb_cdc_acm$930                
       0C:  0742  A$usb_cdc_acm$931                
       0C:  0743  A$usb_cdc_acm$932                
       0C:  0745  A$usb_cdc_acm$933                
       0C:  0746  A$usb_cdc_acm$934                
       0C:  0749  A$usb_cdc_acm$939                
ASxxxx Linker V02.00 + NoICE + sdld,  page 91.
Hexadecimal

Area                               Addr   Size   Decimal Bytes (Attributes)
--------------------------------   ----   ----   ------- ----- ------------
CSEG                               04FD   1484 =   5252. bytes (REL,CON,CODE)

      Value  Global                              Global Defined In Module
      -----  ---------------------------------   ------------------------
       0C:  0749  C$usb_cdc_acm.c$262$2$2          
       0C:  0749  C$usb_cdc_acm.c$264$2$2          
       0C:  074C  A$usb_cdc_acm$943                
       0C:  074C  C$usb_cdc_acm.c$265$2$2          
       0C:  074F  A$usb_cdc_acm$944                
       0C:  0750  A$usb_cdc_acm$945                
       0C:  0751  A$usb_cdc_acm$946                
       0C:  0752  A$usb_cdc_acm$947                
       0C:  0753  A$usb_cdc_acm$948                
       0C:  0755  A$usb_cdc_acm$949                
       0C:  0756  A$usb_cdc_acm$950                
       0C:  0757  A$usb_cdc_acm$957                
       0C:  0757  C$usb_cdc_acm.c$266$2$2          
       0C:  0757  C$usb_cdc_acm.c$268$1$1          
       0C:  0757  C$usb_cdc_acm.c$269$1$1          
       0C:  0757  XG$usbCallbackSetupHandler$0$0   
       0C:  075A  A$usb_cdc_acm$959                
       0C:  075B  A$usb_cdc_acm$975                
       0C:  075B  C$usb_cdc_acm.c$271$1$1          
       0C:  075B  C$usb_cdc_acm.c$274$1$1          
       0C:  075B  G$usbCallbackClassDescriptorHandl
       0C:  075B  XG$usbCallbackClassDescriptorHand
       0C:  075B  _usbCallbackClassDescriptorHandle
       0C:  075C  A$usb_cdc_acm$991                
       0C:  075C  C$usb_cdc_acm.c$276$1$1          
       0C:  075C  C$usb_cdc_acm.c$279$1$1          
       0C:  075C  Fusb_cdc_acm$doNothing$0$0       
       0C:  075C  XFusb_cdc_acm$doNothing$0$0      
       0C:  075D  A$usb_cdc_acm$1005               
       0C:  075D  C$usb_cdc_acm.c$281$1$1          
       0C:  075D  C$usb_cdc_acm.c$283$1$1          
       0C:  075D  G$usbCallbackControlWriteHandler$
       0C:  075D  _usbCallbackControlWriteHandler  
       0C:  075F  A$usb_cdc_acm$1006               
       0C:  0760  A$usb_cdc_acm$1007               
       0C:  0762  A$usb_cdc_acm$1008               
       0C:  0763  A$usb_cdc_acm$1009               
       0C:  0764  A$usb_cdc_acm$1010               
       0C:  0766  A$usb_cdc_acm$1011               
       0C:  0769  A$usb_cdc_acm$1014               
       0C:  0769  C$usb_cdc_acm.c$285$1$1          
       0C:  076C  A$usb_cdc_acm$1015               
       0C:  076D  A$usb_cdc_acm$1016               
       0C:  076E  A$usb_cdc_acm$1017               
       0C:  076F  A$usb_cdc_acm$1018               
       0C:  0770  A$usb_cdc_acm$1019               
       0C:  0771  A$usb_cdc_acm$1020               
       0C:  0772  A$usb_cdc_acm$1021               
       0C:  0773  A$usb_cdc_acm$1022               
       0C:  0774  A$usb_cdc_acm$1023               
       0C:  0775  A$usb_cdc_acm$1024               
ASxxxx Linker V02.00 + NoICE + sdld,  page 92.
Hexadecimal

Area                               Addr   Size   Decimal Bytes (Attributes)
--------------------------------   ----   ----   ------- ----- ------------
CSEG                               04FD   1484 =   5252. bytes (REL,CON,CODE)

      Value  Global                              Global Defined In Module
      -----  ---------------------------------   ------------------------
       0C:  0776  A$usb_cdc_acm$1025               
       0C:  0777  A$usb_cdc_acm$1026               
       0C:  077A  A$usb_cdc_acm$1027               
       0C:  077D  A$usb_cdc_acm$1028               
       0C:  0780  A$usb_cdc_acm$1029               
       0C:  0783  A$usb_cdc_acm$1030               
       0C:  0786  A$usb_cdc_acm$1033               
       0C:  0786  C$usb_cdc_acm.c$290$2$2          
       0C:  0788  A$usb_cdc_acm$1036               
       0C:  0788  C$usb_cdc_acm.c$291$2$2          
       0C:  078B  A$usb_cdc_acm$1037               
       0C:  078D  A$usb_cdc_acm$1038               
       0C:  078F  A$usb_cdc_acm$1039               
       0C:  0791  A$usb_cdc_acm$1040               
       0C:  0792  A$usb_cdc_acm$1041               
       0C:  0795  A$usb_cdc_acm$1042               
       0C:  0796  A$usb_cdc_acm$1043               
       0C:  0797  A$usb_cdc_acm$1047               
       0C:  0797  C$usb_cdc_acm.c$293$2$1          
       0C:  0797  XG$usbCallbackControlWriteHandler
       0C:  0798  A$usb_cdc_acm$1061               
       0C:  0798  C$usb_cdc_acm.c$299$2$1          
       0C:  0798  C$usb_cdc_acm.c$301$1$1          
       0C:  0798  G$usbComRxAvailable$0$0          
       0C:  0798  _usbComRxAvailable               
       0C:  079B  A$usb_cdc_acm$1062               
       0C:  079C  A$usb_cdc_acm$1063               
       0C:  079D  A$usb_cdc_acm$1064               
       0C:  07A0  A$usb_cdc_acm$1065               
       0C:  07A2  A$usb_cdc_acm$1069               
       0C:  07A2  C$usb_cdc_acm.c$304$2$2          
       0C:  07A5  A$usb_cdc_acm$1070               
       0C:  07A6  A$usb_cdc_acm$1074               
       0C:  07A6  C$usb_cdc_acm.c$307$1$1          
       0C:  07A9  A$usb_cdc_acm$1075               
       0C:  07AB  A$usb_cdc_acm$1076               
       0C:  07AC  A$usb_cdc_acm$1079               
       0C:  07AC  C$usb_cdc_acm.c$308$1$1          
       0C:  07AF  A$usb_cdc_acm$1080               
       0C:  07B0  A$usb_cdc_acm$1081               
       0C:  07B1  A$usb_cdc_acm$1082               
       0C:  07B4  A$usb_cdc_acm$1085               
       0C:  07B4  C$usb_cdc_acm.c$312$2$3          
       0C:  07B7  A$usb_cdc_acm$1086               
       0C:  07B8  A$usb_cdc_acm$1087               
       0C:  07BA  A$usb_cdc_acm$1092               
       0C:  07BA  C$usb_cdc_acm.c$316$2$4          
       0C:  07BA  C$usb_cdc_acm.c$318$1$1          
       0C:  07BA  XG$usbComRxAvailable$0$0         
       0C:  07BB  A$usb_cdc_acm$1094               
       0C:  07BE  A$usb_cdc_acm$1095               
ASxxxx Linker V02.00 + NoICE + sdld,  page 93.
Hexadecimal

Area                               Addr   Size   Decimal Bytes (Attributes)
--------------------------------   ----   ----   ------- ----- ------------
CSEG                               04FD   1484 =   5252. bytes (REL,CON,CODE)

      Value  Global                              Global Defined In Module
      -----  ---------------------------------   ------------------------
       0C:  07BF  A$usb_cdc_acm$1109               
       0C:  07BF  C$usb_cdc_acm.c$325$1$1          
       0C:  07BF  C$usb_cdc_acm.c$329$1$1          
       0C:  07BF  G$usbComRxReceiveByte$0$0        
       0C:  07BF  _usbComRxReceiveByte             
       0C:  07C2  A$usb_cdc_acm$1110               
       0C:  07C4  A$usb_cdc_acm$1111               
       0C:  07C5  A$usb_cdc_acm$1114               
       0C:  07C5  C$usb_cdc_acm.c$330$1$1          
       0C:  07C8  A$usb_cdc_acm$1115               
       0C:  07C9  A$usb_cdc_acm$1116               
       0C:  07CA  A$usb_cdc_acm$1119               
       0C:  07CA  C$usb_cdc_acm.c$332$1$1          
       0C:  07CD  A$usb_cdc_acm$1120               
       0C:  07CE  A$usb_cdc_acm$1121               
       0C:  07CF  A$usb_cdc_acm$1122               
       0C:  07D1  A$usb_cdc_acm$1125               
       0C:  07D1  C$usb_cdc_acm.c$334$2$2          
       0C:  07D4  A$usb_cdc_acm$1126               
       0C:  07D5  A$usb_cdc_acm$1127               
       0C:  07D6  A$usb_cdc_acm$1128               
       0C:  07D8  A$usb_cdc_acm$1129               
       0C:  07D9  A$usb_cdc_acm$1133               
       0C:  07D9  C$usb_cdc_acm.c$337$1$1          
       0C:  07DB  A$usb_cdc_acm$1136               
       0C:  07DB  C$usb_cdc_acm.c$338$1$1          
       0C:  07DD  A$usb_cdc_acm$1139               
       0C:  07DD  C$usb_cdc_acm.c$339$1$1          
       0C:  07DD  XG$usbComRxReceiveByte$0$0       
       0C:  07DE  A$usb_cdc_acm$1151               
       0C:  07DE  C$usb_cdc_acm.c$343$1$1          
       0C:  07DE  G$usbComRxReceive$0$0            
       0C:  07DE  _usbComRxReceive                 
       0C:  07E0  A$usb_cdc_acm$1152               
       0C:  07E2  A$usb_cdc_acm$1155               
       0C:  07E2  C$usb_cdc_acm.c$345$1$1          
       0C:  07E4  A$usb_cdc_acm$1156               
       0C:  07E6  A$usb_cdc_acm$1157               
       0C:  07E7  A$usb_cdc_acm$1158               
       0C:  07E8  A$usb_cdc_acm$1159               
       0C:  07EA  A$usb_cdc_acm$1160               
       0C:  07EB  A$usb_cdc_acm$1161               
       0C:  07EC  A$usb_cdc_acm$1162               
       0C:  07ED  A$usb_cdc_acm$1163               
       0C:  07EE  A$usb_cdc_acm$1164               
       0C:  07EF  A$usb_cdc_acm$1165               
       0C:  07F2  A$usb_cdc_acm$1166               
       0C:  07F5  A$usb_cdc_acm$1169               
       0C:  07F5  C$usb_cdc_acm.c$347$1$1          
       0C:  07F8  A$usb_cdc_acm$1170               
       0C:  07F9  A$usb_cdc_acm$1171               
ASxxxx Linker V02.00 + NoICE + sdld,  page 94.
Hexadecimal

Area                               Addr   Size   Decimal Bytes (Attributes)
--------------------------------   ----   ----   ------- ----- ------------
CSEG                               04FD   1484 =   5252. bytes (REL,CON,CODE)

      Value  Global                              Global Defined In Module
      -----  ---------------------------------   ------------------------
       0C:  07FA  A$usb_cdc_acm$1172               
       0C:  07FC  A$usb_cdc_acm$1175               
       0C:  07FC  C$usb_cdc_acm.c$349$2$2          
       0C:  07FF  A$usb_cdc_acm$1176               
       0C:  0800  A$usb_cdc_acm$1177               
       0C:  0801  A$usb_cdc_acm$1178               
       0C:  0803  A$usb_cdc_acm$1179               
       0C:  0804  A$usb_cdc_acm$1183               
       0C:  0804  C$usb_cdc_acm.c$351$2$1          
       0C:  0804  XG$usbComRxReceive$0$0           
       0C:  0805  A$usb_cdc_acm$1197               
       0C:  0805  C$usb_cdc_acm.c$358$2$1          
       0C:  0805  C$usb_cdc_acm.c$360$1$1          
       0C:  0805  Fusb_cdc_acm$sendPacketNow$0$0   
       0C:  0808  A$usb_cdc_acm$1198               
       0C:  080A  A$usb_cdc_acm$1199               
       0C:  080B  A$usb_cdc_acm$1202               
       0C:  080B  C$usb_cdc_acm.c$361$1$1          
       0C:  080E  A$usb_cdc_acm$1203               
       0C:  080F  A$usb_cdc_acm$1204               
       0C:  0810  A$usb_cdc_acm$1205               
       0C:  0812  A$usb_cdc_acm$1206               
       0C:  0813  A$usb_cdc_acm$1209               
       0C:  0813  C$usb_cdc_acm.c$364$1$1          
       0C:  0815  A$usb_cdc_acm$1210               
       0C:  0818  A$usb_cdc_acm$1211               
       0C:  0819  A$usb_cdc_acm$1212               
       0C:  081B  A$usb_cdc_acm$1214               
       0C:  081C  A$usb_cdc_acm$1216               
       0C:  081E  A$usb_cdc_acm$1219               
       0C:  081E  C$usb_cdc_acm.c$367$1$1          
       0C:  0821  A$usb_cdc_acm$1222               
       0C:  0821  C$usb_cdc_acm.c$370$1$1          
       0C:  0823  A$usb_cdc_acm$1225               
       0C:  0823  C$usb_cdc_acm.c$371$1$1          
       0C:  0823  XFusb_cdc_acm$sendPacketNow$0$0  
       0C:  0824  A$usb_cdc_acm$1239               
       0C:  0824  C$usb_cdc_acm.c$373$1$1          
       0C:  0824  C$usb_cdc_acm.c$375$1$1          
       0C:  0824  G$usbComService$0$0              
       0C:  0824  _usbComService                   
       0C:  0827  A$usb_cdc_acm$1242               
       0C:  0827  C$usb_cdc_acm.c$378$1$1          
       0C:  082A  A$usb_cdc_acm$1243               
       0C:  082D  A$usb_cdc_acm$1244               
       0C:  082F  A$usb_cdc_acm$1245               
       0C:  0831  A$usb_cdc_acm$1246               
       0C:  0832  A$usb_cdc_acm$1247               
       0C:  0835  A$usb_cdc_acm$1248               
       0C:  0836  A$usb_cdc_acm$1249               
       0C:  0837  A$usb_cdc_acm$1250               
ASxxxx Linker V02.00 + NoICE + sdld,  page 95.
Hexadecimal

Area                               Addr   Size   Decimal Bytes (Attributes)
--------------------------------   ----   ----   ------- ----- ------------
CSEG                               04FD   1484 =   5252. bytes (REL,CON,CODE)

      Value  Global                              Global Defined In Module
      -----  ---------------------------------   ------------------------
       0C:  0838  A$usb_cdc_acm$1251               
       0C:  0839  A$usb_cdc_acm$1252               
       0C:  083A  A$usb_cdc_acm$1253               
       0C:  083B  A$usb_cdc_acm$1254               
       0C:  083D  A$usb_cdc_acm$1255               
       0C:  0840  A$usb_cdc_acm$1257               
       0C:  0842  A$usb_cdc_acm$1260               
       0C:  0842  C$usb_cdc_acm.c$388$2$2          
       0C:  0845  A$usb_cdc_acm$1264               
       0C:  0845  C$usb_cdc_acm.c$391$1$1          
       0C:  0848  A$usb_cdc_acm$1265               
       0C:  0849  A$usb_cdc_acm$1266               
       0C:  084A  A$usb_cdc_acm$1267               
       0C:  084D  A$usb_cdc_acm$1268               
       0C:  084F  A$usb_cdc_acm$1272               
       0C:  084F  C$usb_cdc_acm.c$394$2$3          
       0C:  0850  A$usb_cdc_acm$1276               
       0C:  0850  C$usb_cdc_acm.c$402$1$1          
       0C:  0853  A$usb_cdc_acm$1277               
       0C:  0855  A$usb_cdc_acm$1278               
       0C:  0856  A$usb_cdc_acm$1281               
       0C:  0856  C$usb_cdc_acm.c$403$1$1          
       0C:  0858  A$usb_cdc_acm$1282               
       0C:  085A  A$usb_cdc_acm$1283               
       0C:  085D  A$usb_cdc_acm$1284               
       0C:  0860  A$usb_cdc_acm$1285               
       0C:  0861  A$usb_cdc_acm$1286               
       0C:  0862  A$usb_cdc_acm$1287               
       0C:  0865  A$usb_cdc_acm$1291               
       0C:  0865  C$usb_cdc_acm.c$405$2$4          
       0C:  0868  A$usb_cdc_acm$1295               
       0C:  0868  C$usb_cdc_acm.c$409$1$1          
       0C:  086B  A$usb_cdc_acm$1296               
       0C:  086D  A$usb_cdc_acm$1297               
       0C:  086E  A$usb_cdc_acm$1300               
       0C:  086E  C$usb_cdc_acm.c$410$1$1          
       0C:  0870  A$usb_cdc_acm$1301               
       0C:  0872  A$usb_cdc_acm$1302               
       0C:  0873  A$usb_cdc_acm$1303               
       0C:  0875  A$usb_cdc_acm$1304               
       0C:  0876  A$usb_cdc_acm$1305               
       0C:  0879  A$usb_cdc_acm$1306               
       0C:  087A  A$usb_cdc_acm$1308               
       0C:  087D  A$usb_cdc_acm$1309               
       0C:  087E  A$usb_cdc_acm$1310               
       0C:  087F  A$usb_cdc_acm$1311               
       0C:  0882  A$usb_cdc_acm$1320               
       0C:  0882  C$usb_cdc_acm.c$416$2$5          
       0C:  0882  C$usb_cdc_acm.c$417$2$5          
       0C:  0882  C$usb_cdc_acm.c$420$2$5          
       0C:  0882  C$usb_cdc_acm.c$421$2$5          
ASxxxx Linker V02.00 + NoICE + sdld,  page 96.
Hexadecimal

Area                               Addr   Size   Decimal Bytes (Attributes)
--------------------------------   ----   ----   ------- ----- ------------
CSEG                               04FD   1484 =   5252. bytes (REL,CON,CODE)

      Value  Global                              Global Defined In Module
      -----  ---------------------------------   ------------------------
       0C:  0885  A$usb_cdc_acm$1321               
       0C:  0887  A$usb_cdc_acm$1322               
       0C:  0888  A$usb_cdc_acm$1323               
       0C:  088A  A$usb_cdc_acm$1324               
       0C:  088B  A$usb_cdc_acm$1325               
       0C:  088C  A$usb_cdc_acm$1326               
       0C:  088D  A$usb_cdc_acm$1335               
       0C:  088D  C$usb_cdc_acm.c$424$2$5          
       0C:  088D  C$usb_cdc_acm.c$425$2$5          
       0C:  088D  C$usb_cdc_acm.c$428$2$5          
       0C:  088D  C$usb_cdc_acm.c$429$2$5          
       0C:  088E  A$usb_cdc_acm$1336               
       0C:  088F  A$usb_cdc_acm$1337               
       0C:  0892  A$usb_cdc_acm$1338               
       0C:  0893  A$usb_cdc_acm$1339               
       0C:  0894  A$usb_cdc_acm$1340               
       0C:  0895  A$usb_cdc_acm$1341               
       0C:  0897  A$usb_cdc_acm$1342               
       0C:  0898  A$usb_cdc_acm$1343               
       0C:  0899  A$usb_cdc_acm$1344               
       0C:  089A  A$usb_cdc_acm$1347               
       0C:  089A  C$usb_cdc_acm.c$432$2$5          
       0C:  089C  A$usb_cdc_acm$1348               
       0C:  089F  A$usb_cdc_acm$1349               
       0C:  08A0  A$usb_cdc_acm$1350               
       0C:  08A1  A$usb_cdc_acm$1353               
       0C:  08A1  C$usb_cdc_acm.c$433$2$5          
       0C:  08A4  A$usb_cdc_acm$1354               
       0C:  08A5  A$usb_cdc_acm$1355               
       0C:  08A6  A$usb_cdc_acm$1358               
       0C:  08A6  C$usb_cdc_acm.c$435$2$5          
       0C:  08A9  A$usb_cdc_acm$1359               
       0C:  08AA  A$usb_cdc_acm$1360               
       0C:  08AC  A$usb_cdc_acm$1361               
       0C:  08AD  A$usb_cdc_acm$1364               
       0C:  08AD  C$usb_cdc_acm.c$438$2$5          
       0C:  08AF  A$usb_cdc_acm$1365               
       0C:  08B0  A$usb_cdc_acm$1366               
       0C:  08B2  A$usb_cdc_acm$1367               
       0C:  08B3  A$usb_cdc_acm$1370               
       0C:  08B3  C$usb_cdc_acm.c$440$2$5          
       0C:  08B5  A$usb_cdc_acm$1371               
       0C:  08B6  A$usb_cdc_acm$1372               
       0C:  08B7  A$usb_cdc_acm$1373               
       0C:  08B9  A$usb_cdc_acm$1374               
       0C:  08BA  A$usb_cdc_acm$1377               
       0C:  08BA  C$usb_cdc_acm.c$443$2$5          
       0C:  08BC  A$usb_cdc_acm$1381               
       0C:  08BC  C$usb_cdc_acm.c$445$2$1          
       0C:  08BC  XG$usbComService$0$0             
       0C:  08BD  A$usb_cdc_acm$1395               
ASxxxx Linker V02.00 + NoICE + sdld,  page 97.
Hexadecimal

Area                               Addr   Size   Decimal Bytes (Attributes)
--------------------------------   ----   ----   ------- ----- ------------
CSEG                               04FD   1484 =   5252. bytes (REL,CON,CODE)

      Value  Global                              Global Defined In Module
      -----  ---------------------------------   ------------------------
       0C:  08BD  C$usb_cdc_acm.c$449$2$1          
       0C:  08BD  C$usb_cdc_acm.c$453$1$1          
       0C:  08BD  G$usbComTxAvailable$0$0          
       0C:  08BD  _usbComTxAvailable               
       0C:  08C0  A$usb_cdc_acm$1396               
       0C:  08C1  A$usb_cdc_acm$1397               
       0C:  08C2  A$usb_cdc_acm$1398               
       0C:  08C5  A$usb_cdc_acm$1399               
       0C:  08C7  A$usb_cdc_acm$1403               
       0C:  08C7  C$usb_cdc_acm.c$456$2$2          
       0C:  08CA  A$usb_cdc_acm$1404               
       0C:  08CB  A$usb_cdc_acm$1408               
       0C:  08CB  C$usb_cdc_acm.c$459$1$1          
       0C:  08CE  A$usb_cdc_acm$1409               
       0C:  08D0  A$usb_cdc_acm$1410               
       0C:  08D1  A$usb_cdc_acm$1413               
       0C:  08D1  C$usb_cdc_acm.c$460$1$1          
       0C:  08D4  A$usb_cdc_acm$1414               
       0C:  08D5  A$usb_cdc_acm$1417               
       0C:  08D5  C$usb_cdc_acm.c$461$1$1          
       0C:  08D6  A$usb_cdc_acm$1418               
       0C:  08D9  A$usb_cdc_acm$1421               
       0C:  08D9  C$usb_cdc_acm.c$463$2$3          
       0C:  08DA  A$usb_cdc_acm$1422               
       0C:  08DD  A$usb_cdc_acm$1425               
       0C:  08DD  C$usb_cdc_acm.c$465$3$4          
       0C:  08E0  A$usb_cdc_acm$1426               
       0C:  08E1  A$usb_cdc_acm$1430               
       0C:  08E1  C$usb_cdc_acm.c$467$2$3          
       0C:  08E3  A$usb_cdc_acm$1431               
       0C:  08E4  A$usb_cdc_acm$1432               
       0C:  08E6  A$usb_cdc_acm$1433               
       0C:  08E8  A$usb_cdc_acm$1434               
       0C:  08E9  A$usb_cdc_acm$1438               
       0C:  08E9  C$usb_cdc_acm.c$471$2$5          
       0C:  08EB  A$usb_cdc_acm$1439               
       0C:  08EC  A$usb_cdc_acm$1440               
       0C:  08EE  A$usb_cdc_acm$1441               
       0C:  08F0  A$usb_cdc_acm$1444               
       0C:  08F0  C$usb_cdc_acm.c$473$1$1          
       0C:  08F0  XG$usbComTxAvailable$0$0         
       0C:  08F1  A$usb_cdc_acm$1456               
       0C:  08F1  C$usb_cdc_acm.c$477$1$1          
       0C:  08F1  G$usbComTxSend$0$0               
       0C:  08F1  _usbComTxSend                    
       0C:  08F3  A$usb_cdc_acm$1457               
       0C:  08F5  A$usb_cdc_acm$1461               
       0C:  08F5  C$usb_cdc_acm.c$480$1$1          
       0C:  08F7  A$usb_cdc_acm$1462               
       0C:  08F8  A$usb_cdc_acm$1463               
       0C:  08FA  A$usb_cdc_acm$1466               
ASxxxx Linker V02.00 + NoICE + sdld,  page 98.
Hexadecimal

Area                               Addr   Size   Decimal Bytes (Attributes)
--------------------------------   ----   ----   ------- ----- ------------
CSEG                               04FD   1484 =   5252. bytes (REL,CON,CODE)

      Value  Global                              Global Defined In Module
      -----  ---------------------------------   ------------------------
       0C:  08FA  C$usb_cdc_acm.c$482$2$2          
       0C:  08FC  A$usb_cdc_acm$1467               
       0C:  08FD  A$usb_cdc_acm$1468               
       0C:  08FF  A$usb_cdc_acm$1469               
       0C:  0900  A$usb_cdc_acm$1472               
       0C:  0900  C$usb_cdc_acm.c$483$2$2          
       0C:  0902  A$usb_cdc_acm$1473               
       0C:  0903  A$usb_cdc_acm$1474               
       0C:  0906  A$usb_cdc_acm$1476               
       0C:  0908  A$usb_cdc_acm$1477               
       0C:  090A  A$usb_cdc_acm$1478               
       0C:  090B  A$usb_cdc_acm$1479               
       0C:  090C  A$usb_cdc_acm$1483               
       0C:  090C  C$usb_cdc_acm.c$485$2$2          
       0C:  090E  A$usb_cdc_acm$1484               
       0C:  090F  A$usb_cdc_acm$1485               
       0C:  0910  A$usb_cdc_acm$1486               
       0C:  0912  A$usb_cdc_acm$1487               
       0C:  0913  A$usb_cdc_acm$1488               
       0C:  0914  A$usb_cdc_acm$1489               
       0C:  0915  A$usb_cdc_acm$1490               
       0C:  0916  A$usb_cdc_acm$1491               
       0C:  0917  A$usb_cdc_acm$1492               
       0C:  091A  A$usb_cdc_acm$1493               
       0C:  091C  A$usb_cdc_acm$1494               
       0C:  091E  A$usb_cdc_acm$1495               
       0C:  0920  A$usb_cdc_acm$1496               
       0C:  0923  A$usb_cdc_acm$1497               
       0C:  0925  A$usb_cdc_acm$1498               
       0C:  0927  A$usb_cdc_acm$1499               
       0C:  0929  A$usb_cdc_acm$1502               
       0C:  0929  C$usb_cdc_acm.c$487$2$2          
       0C:  092A  A$usb_cdc_acm$1503               
       0C:  092B  A$usb_cdc_acm$1504               
       0C:  092C  A$usb_cdc_acm$1505               
       0C:  092D  A$usb_cdc_acm$1506               
       0C:  092E  A$usb_cdc_acm$1507               
       0C:  092F  A$usb_cdc_acm$1510               
       0C:  092F  C$usb_cdc_acm.c$488$2$2          
       0C:  0931  A$usb_cdc_acm$1511               
       0C:  0932  A$usb_cdc_acm$1512               
       0C:  0933  A$usb_cdc_acm$1513               
       0C:  0934  A$usb_cdc_acm$1514               
       0C:  0935  A$usb_cdc_acm$1517               
       0C:  0935  C$usb_cdc_acm.c$489$2$2          
       0C:  0936  A$usb_cdc_acm$1518               
       0C:  0938  A$usb_cdc_acm$1519               
       0C:  093A  A$usb_cdc_acm$1522               
       0C:  093A  C$usb_cdc_acm.c$491$2$2          
       0C:  093C  A$usb_cdc_acm$1523               
       0C:  093F  A$usb_cdc_acm$1526               
ASxxxx Linker V02.00 + NoICE + sdld,  page 99.
Hexadecimal

Area                               Addr   Size   Decimal Bytes (Attributes)
--------------------------------   ----   ----   ------- ----- ------------
CSEG                               04FD   1484 =   5252. bytes (REL,CON,CODE)

      Value  Global                              Global Defined In Module
      -----  ---------------------------------   ------------------------
       0C:  093F  C$usb_cdc_acm.c$493$3$4          
       0C:  0941  A$usb_cdc_acm$1527               
       0C:  0943  A$usb_cdc_acm$1528               
       0C:  0946  A$usb_cdc_acm$1529               
       0C:  0948  A$usb_cdc_acm$1530               
       0C:  094A  A$usb_cdc_acm$1531               
       0C:  094C  A$usb_cdc_acm$1535               
       0C:  094C  C$usb_cdc_acm.c$496$1$1          
       0C:  094C  XG$usbComTxSend$0$0              
       0C:  094D  A$usb_cdc_acm$1547               
       0C:  094D  C$usb_cdc_acm.c$498$1$1          
       0C:  094D  G$usbComTxSendByte$0$0           
       0C:  094D  _usbComTxSendByte                
       0C:  094F  A$usb_cdc_acm$1548               
       0C:  0952  A$usb_cdc_acm$1549               
       0C:  0953  A$usb_cdc_acm$1552               
       0C:  0953  C$usb_cdc_acm.c$503$1$1          
       0C:  0955  A$usb_cdc_acm$1555               
       0C:  0955  C$usb_cdc_acm.c$505$1$1          
       0C:  0957  A$usb_cdc_acm$1556               
       0C:  095A  A$usb_cdc_acm$1561               
       0C:  095A  C$usb_cdc_acm.c$507$2$2          
       0C:  095A  C$usb_cdc_acm.c$511$2$1          
       0C:  095A  XG$usbComTxSendByte$0$0          
       0C:  095D  A$usb_cdc_acm$1563               
       0C:  095E  A$usb_cdc_acm$1577               
       0C:  095E  C$usb_cdc_acm.c$515$2$1          
       0C:  095E  C$usb_cdc_acm.c$517$1$1          
       0C:  095E  G$usbComRxControlSignals$0$0     
       0C:  095E  _usbComRxControlSignals          
       0C:  0960  A$usb_cdc_acm$1578               
       0C:  0961  A$usb_cdc_acm$1579               
       0C:  0963  A$usb_cdc_acm$1582               
       0C:  0963  C$usb_cdc_acm.c$518$1$1          
       0C:  0963  XG$usbComRxControlSignals$0$0    
       0C:  0964  A$usb_cdc_acm$1594               
       0C:  0964  C$usb_cdc_acm.c$520$1$1          
       0C:  0964  G$usbComTxControlSignals$0$0     
       0C:  0964  _usbComTxControlSignals          
       0C:  0966  A$usb_cdc_acm$1597               
       0C:  0966  C$usb_cdc_acm.c$522$1$1          
       0C:  0968  A$usb_cdc_acm$1598               
       0C:  0969  A$usb_cdc_acm$1599               
       0C:  096B  A$usb_cdc_acm$1600               
       0C:  096C  A$usb_cdc_acm$1601               
       0C:  096E  A$usb_cdc_acm$1602               
       0C:  096F  A$usb_cdc_acm$1605               
       0C:  096F  C$usb_cdc_acm.c$523$1$1          
       0C:  096F  XG$usbComTxControlSignals$0$0    
       0C:  0970  A$usb_cdc_acm$1617               
       0C:  0970  C$usb_cdc_acm.c$525$1$1          
ASxxxx Linker V02.00 + NoICE + sdld,  page 100.
Hexadecimal

Area                               Addr   Size   Decimal Bytes (Attributes)
--------------------------------   ----   ----   ------- ----- ------------
CSEG                               04FD   1484 =   5252. bytes (REL,CON,CODE)

      Value  Global                              Global Defined In Module
      -----  ---------------------------------   ------------------------
       0C:  0970  G$usbComTxControlSignalEvents$0$0
       0C:  0970  _usbComTxControlSignalEvents     
       0C:  0972  A$usb_cdc_acm$1620               
       0C:  0972  C$usb_cdc_acm.c$527$1$1          
       0C:  0974  A$usb_cdc_acm$1621               
       0C:  0975  A$usb_cdc_acm$1622               
       0C:  0976  A$usb_cdc_acm$1623               
       0C:  0977  A$usb_cdc_acm$1626               
       0C:  0977  C$usb_cdc_acm.c$528$1$1          
       0C:  0977  XG$usbComTxControlSignalEvents$0$
       0C:  0978  A$usb$824                        
       0C:  0978  C$usb.c$29$0$0                   
       0C:  0978  C$usb.c$31$0$0                   
       0C:  0978  G$usbInit$0$0                    
       0C:  0978  XG$usbInit$0$0                   
       0C:  0978  _usbInit                         
       0C:  0979  A$usb$836                        
       0C:  0979  C$usb.c$34$0$0                   
       0C:  0979  G$usbReadFifo$0$0                
       0C:  0979  _usbReadFifo                     
       0C:  097B  A$usb$839                        
       0C:  097B  C$usb.c$36$1$1                   
       0C:  097C  A$usb$840                        
       0C:  097D  A$usb$841                        
       0C:  097F  A$usb$842                        
       0C:  0980  A$usb$843                        
       0C:  0981  A$usb$844                        
       0C:  0982  A$usb$845                        
       0C:  0984  A$usb$846                        
       0C:  0985  A$usb$847                        
       0C:  0986  A$usb$848                        
       0C:  0988  A$usb$849                        
       0C:  0989  A$usb$850                        
       0C:  098A  A$usb$853                        
       0C:  098A  C$usb.c$37$1$1                   
       0C:  098C  A$usb$854                        
       0C:  098D  A$usb$855                        
       0C:  098E  A$usb$856                        
       0C:  0990  A$usb$857                        
       0C:  0991  A$usb$858                        
       0C:  0992  A$usb$859                        
       0C:  0993  A$usb$860                        
       0C:  0994  A$usb$861                        
       0C:  0995  A$usb$863                        
       0C:  0996  A$usb$864                        
       0C:  0998  A$usb$867                        
       0C:  0998  C$usb.c$39$2$2                   
       0C:  0999  A$usb$870                        
       0C:  0999  C$usb.c$40$2$2                   
       0C:  099B  A$usb$871                        
       0C:  099D  A$usb$872                        
ASxxxx Linker V02.00 + NoICE + sdld,  page 101.
Hexadecimal

Area                               Addr   Size   Decimal Bytes (Attributes)
--------------------------------   ----   ----   ------- ----- ------------
CSEG                               04FD   1484 =   5252. bytes (REL,CON,CODE)

      Value  Global                              Global Defined In Module
      -----  ---------------------------------   ------------------------
       0C:  099E  A$usb$873                        
       0C:  099F  A$usb$874                        
       0C:  09A1  A$usb$875                        
       0C:  09A3  A$usb$876                        
       0C:  09A4  A$usb$877                        
       0C:  09A5  A$usb$878                        
       0C:  09A7  A$usb$879                        
       0C:  09A9  A$usb$880                        
       0C:  09AB  A$usb$884                        
       0C:  09AB  C$usb.c$43$1$1                   
       0C:  09AD  A$usb$887                        
       0C:  09AD  C$usb.c$44$1$1                   
       0C:  09AD  XG$usbReadFifo$0$0               
       0C:  09AE  A$usb$899                        
       0C:  09AE  C$usb.c$46$1$1                   
       0C:  09AE  G$usbWriteFifo$0$0               
       0C:  09AE  _usbWriteFifo                    
       0C:  09B0  A$usb$902                        
       0C:  09B0  C$usb.c$48$1$1                   
       0C:  09B1  A$usb$903                        
       0C:  09B2  A$usb$904                        
       0C:  09B4  A$usb$905                        
       0C:  09B5  A$usb$906                        
       0C:  09B6  A$usb$907                        
       0C:  09B7  A$usb$908                        
       0C:  09B9  A$usb$909                        
       0C:  09BA  A$usb$910                        
       0C:  09BB  A$usb$911                        
       0C:  09BD  A$usb$912                        
       0C:  09BE  A$usb$913                        
       0C:  09BF  A$usb$916                        
       0C:  09BF  C$usb.c$49$1$1                   
       0C:  09C1  A$usb$917                        
       0C:  09C2  A$usb$918                        
       0C:  09C3  A$usb$919                        
       0C:  09C5  A$usb$920                        
       0C:  09C6  A$usb$921                        
       0C:  09C7  A$usb$922                        
       0C:  09C8  A$usb$923                        
       0C:  09C9  A$usb$924                        
       0C:  09CA  A$usb$926                        
       0C:  09CB  A$usb$927                        
       0C:  09CD  A$usb$930                        
       0C:  09CD  C$usb.c$51$2$2                   
       0C:  09CE  A$usb$933                        
       0C:  09CE  C$usb.c$52$2$2                   
       0C:  09D0  A$usb$934                        
       0C:  09D2  A$usb$935                        
       0C:  09D3  A$usb$936                        
       0C:  09D4  A$usb$937                        
       0C:  09D5  A$usb$938                        
ASxxxx Linker V02.00 + NoICE + sdld,  page 102.
Hexadecimal

Area                               Addr   Size   Decimal Bytes (Attributes)
--------------------------------   ----   ----   ------- ----- ------------
CSEG                               04FD   1484 =   5252. bytes (REL,CON,CODE)

      Value  Global                              Global Defined In Module
      -----  ---------------------------------   ------------------------
       0C:  09D7  A$usb$939                        
       0C:  09D9  A$usb$940                        
       0C:  09DB  A$usb$941                        
       0C:  09DD  A$usb$942                        
       0C:  09DE  A$usb$943                        
       0C:  09DF  A$usb$944                        
       0C:  09E1  A$usb$948                        
       0C:  09E1  C$usb.c$57$1$1                   
       0C:  09E1  XG$usbWriteFifo$0$0              
       0C:  09E2  A$usb$962                        
       0C:  09E2  C$usb.c$61$1$1                   
       0C:  09E2  C$usb.c$63$1$1                   
       0C:  09E2  Fusb$basicUsbInit$0$0            
       0C:  09E4  A$usb$965                        
       0C:  09E4  C$usb.c$66$1$1                   
       0C:  09E7  A$usb$966                        
       0C:  09E9  A$usb$967                        
       0C:  09EA  A$usb$970                        
       0C:  09EA  C$usb.c$70$1$1                   
       0C:  09ED  A$usb$971                        
       0C:  09EF  A$usb$972                        
       0C:  09F0  A$usb$975                        
       0C:  09F0  C$usb.c$71$1$1                   
       0C:  09F0  XFusb$basicUsbInit$0$0           
       0C:  09F1  A$usb$989                        
       0C:  09F1  C$usb.c$73$1$1                   
       0C:  09F1  C$usb.c$79$1$1                   
       0C:  09F1  G$usbPoll$0$0                    
       0C:  09F1  _usbPoll                         
       0C:  09F4  A$usb$990                        
       0C:  09F6  A$usb$993                        
       0C:  09F6  C$usb.c$84$2$2                   
       0C:  09F9  A$usb$996                        
       0C:  09F9  C$usb.c$86$2$2                   
       0C:  09FC  A$usb$999                        
       0C:  09FC  C$usb.c$87$2$2                   
       0C:  09FF  A$usb$1000                       
       0C:  0A00  A$usb$1001                       
       0C:  0A01  A$usb$1004                       
       0C:  0A01  C$usb.c$88$2$2                   
       0C:  0A03  A$usb$1007                       
       0C:  0A03  C$usb.c$89$2$2                   
       0C:  0A04  A$usb$1011                       
       0C:  0A04  C$usb.c$92$1$1                   
       0C:  0A07  A$usb$1012                       
       0C:  0A08  A$usb$1013                       
       0C:  0A09  A$usb$1014                       
       0C:  0A0B  A$usb$1017                       
       0C:  0A0B  C$usb.c$94$2$3                   
       0C:  0A0E  A$usb$1020                       
       0C:  0A0E  C$usb.c$95$2$3                   
ASxxxx Linker V02.00 + NoICE + sdld,  page 103.
Hexadecimal

Area                               Addr   Size   Decimal Bytes (Attributes)
--------------------------------   ----   ----   ------- ----- ------------
CSEG                               04FD   1484 =   5252. bytes (REL,CON,CODE)

      Value  Global                              Global Defined In Module
      -----  ---------------------------------   ------------------------
       0C:  0A11  A$usb$1023                       
       0C:  0A11  C$usb.c$96$2$3                   
       0C:  0A12  A$usb$1026                       
       0C:  0A12  C$usb.c$97$2$3                   
       0C:  0A13  A$usb$1029                       
       0C:  0A13  C$usb.c$98$2$3                   
       0C:  0A14  A$usb$1032                       
       0C:  0A14  C$usb.c$99$2$3                   
       0C:  0A15  A$usb$1035                       
       0C:  0A15  C$usb.c$100$2$3                  
       0C:  0A18  A$usb$1036                       
       0C:  0A1A  A$usb$1037                       
       0C:  0A1B  A$usb$1040                       
       0C:  0A1B  C$usb.c$102$2$3                  
       0C:  0A1E  A$usb$1044                       
       0C:  0A1E  C$usb.c$105$1$1                  
       0C:  0A21  A$usb$1045                       
       0C:  0A22  A$usb$1046                       
       0C:  0A23  A$usb$1049                       
       0C:  0A23  C$usb.c$106$1$1                  
       0C:  0A26  A$usb$1050                       
       0C:  0A27  A$usb$1051                       
       0C:  0A28  A$usb$1054                       
       0C:  0A28  C$usb.c$108$1$1                  
       0C:  0A29  A$usb$1055                       
       0C:  0A2C  A$usb$1058                       
       0C:  0A2C  C$usb.c$113$2$4                  
       0C:  0A2E  A$usb$1062                       
       0C:  0A2E  C$usb.c$116$1$1                  
       0C:  0A2F  A$usb$1063                       
       0C:  0A32  A$usb$1066                       
       0C:  0A32  C$usb.c$119$2$5                  
       0C:  0A35  A$usb$1067                       
       0C:  0A37  A$usb$1068                       
       0C:  0A38  A$usb$1071                       
       0C:  0A38  C$usb.c$120$2$5                  
       0C:  0A3B  A$usb$1072                       
       0C:  0A3C  A$usb$1073                       
       0C:  0A3D  A$usb$1076                       
       0C:  0A3D  C$usb.c$122$2$5                  
       0C:  0A3F  A$usb$1077                       
       0C:  0A41  A$usb$1078                       
       0C:  0A44  A$usb$1079                       
       0C:  0A46  A$usb$1080                       
       0C:  0A48  A$usb$1084                       
       0C:  0A48  C$usb.c$125$1$1                  
       0C:  0A49  A$usb$1085                       
       0C:  0A4C  A$usb$1088                       
       0C:  0A4C  C$usb.c$127$2$6                  
       0C:  0A4E  A$usb$1092                       
       0C:  0A4E  C$usb.c$130$1$1                  
ASxxxx Linker V02.00 + NoICE + sdld,  page 104.
Hexadecimal

Area                               Addr   Size   Decimal Bytes (Attributes)
--------------------------------   ----   ----   ------- ----- ------------
CSEG                               04FD   1484 =   5252. bytes (REL,CON,CODE)

      Value  Global                              Global Defined In Module
      -----  ---------------------------------   ------------------------
       0C:  0A4F  A$usb$1093                       
       0C:  0A52  A$usb$1094                       
       0C:  0A53  A$usb$1098                       
       0C:  0A53  C$usb.c$134$2$7                  
       0C:  0A56  A$usb$1099                       
       0C:  0A57  A$usb$1100                       
       0C:  0A58  A$usb$1103                       
       0C:  0A58  C$usb.c$135$2$7                  
       0C:  0A5B  A$usb$1104                       
       0C:  0A5C  A$usb$1105                       
       0C:  0A5D  A$usb$1108                       
       0C:  0A5D  C$usb.c$137$2$7                  
       0C:  0A5F  A$usb$1111                       
       0C:  0A5F  C$usb.c$139$2$7                  
       0C:  0A60  A$usb$1112                       
       0C:  0A63  A$usb$1115                       
       0C:  0A63  C$usb.c$142$3$8                  
       0C:  0A66  A$usb$1116                       
       0C:  0A68  A$usb$1117                       
       0C:  0A69  A$usb$1120                       
       0C:  0A69  C$usb.c$143$3$8                  
       0C:  0A6C  A$usb$1121                       
       0C:  0A6D  A$usb$1122                       
       0C:  0A6E  A$usb$1126                       
       0C:  0A6E  C$usb.c$146$2$7                  
       0C:  0A6F  A$usb$1127                       
       0C:  0A72  A$usb$1130                       
       0C:  0A72  C$usb.c$149$3$9                  
       0C:  0A75  A$usb$1133                       
       0C:  0A75  C$usb.c$150$3$9                  
       0C:  0A76  A$usb$1134                       
       0C:  0A77  A$usb$1135                       
       0C:  0A7A  A$usb$1136                       
       0C:  0A7B  A$usb$1140                       
       0C:  0A7B  C$usb.c$153$2$7                  
       0C:  0A7C  A$usb$1141                       
       0C:  0A7F  A$usb$1142                       
       0C:  0A82  A$usb$1146                       
       0C:  0A82  C$usb.c$158$3$10                 
       0C:  0A85  A$usb$1147                       
       0C:  0A86  A$usb$1148                       
       0C:  0A87  A$usb$1149                       
       0C:  0A8A  A$usb$1150                       
       0C:  0A8C  A$usb$1152                       
       0C:  0A8F  A$usb$1156                       
       0C:  0A8F  C$usb.c$161$4$10                 
       0C:  0A92  A$usb$1157                       
       0C:  0A93  A$usb$1158                       
       0C:  0A94  A$usb$1161                       
       0C:  0A94  C$usb.c$162$4$11                 
       0C:  0A97  A$usb$1162                       
ASxxxx Linker V02.00 + NoICE + sdld,  page 105.
Hexadecimal

Area                               Addr   Size   Decimal Bytes (Attributes)
--------------------------------   ----   ----   ------- ----- ------------
CSEG                               04FD   1484 =   5252. bytes (REL,CON,CODE)

      Value  Global                              Global Defined In Module
      -----  ---------------------------------   ------------------------
       0C:  0A98  A$usb$1163                       
       0C:  0A99  A$usb$1164                       
       0C:  0A9A  A$usb$1165                       
       0C:  0A9B  A$usb$1166                       
       0C:  0A9C  A$usb$1167                       
       0C:  0A9E  A$usb$1168                       
       0C:  0AA0  A$usb$1169                       
       0C:  0AA1  A$usb$1170                       
       0C:  0AA2  A$usb$1171                       
       0C:  0AA3  A$usb$1172                       
       0C:  0AA4  A$usb$1173                       
       0C:  0AA5  A$usb$1174                       
       0C:  0AA7  A$usb$1177                       
       0C:  0AA7  C$usb.c$164$5$12                 
       0C:  0AA9  A$usb$1181                       
       0C:  0AA9  C$usb.c$166$4$11                 
       0C:  0AAB  A$usb$1182                       
       0C:  0AAC  A$usb$1183                       
       0C:  0AAD  A$usb$1184                       
       0C:  0AAF  A$usb$1185                       
       0C:  0AB1  A$usb$1186                       
       0C:  0AB2  A$usb$1187                       
       0C:  0AB3  A$usb$1188                       
       0C:  0AB4  A$usb$1189                       
       0C:  0AB5  A$usb$1190                       
       0C:  0AB6  A$usb$1191                       
       0C:  0AB7  A$usb$1192                       
       0C:  0ABA  A$usb$1193                       
       0C:  0ABC  A$usb$1194                       
       0C:  0ABE  A$usb$1195                       
       0C:  0AC1  A$usb$1196                       
       0C:  0AC3  A$usb$1197                       
       0C:  0AC5  A$usb$1200                       
       0C:  0AC5  C$usb.c$167$4$11                 
       0C:  0AC7  A$usb$1201                       
       0C:  0AC8  A$usb$1202                       
       0C:  0AC9  A$usb$1203                       
       0C:  0ACA  A$usb$1204                       
       0C:  0ACB  A$usb$1205                       
       0C:  0ACC  A$usb$1206                       
       0C:  0ACE  A$usb$1207                       
       0C:  0ACF  A$usb$1210                       
       0C:  0ACF  C$usb.c$168$4$11                 
       0C:  0AD1  A$usb$1211                       
       0C:  0AD4  A$usb$1212                       
       0C:  0AD5  A$usb$1213                       
       0C:  0AD6  A$usb$1214                       
       0C:  0AD7  A$usb$1215                       
       0C:  0AD8  A$usb$1216                       
       0C:  0AD9  A$usb$1217                       
       0C:  0ADC  A$usb$1218                       
ASxxxx Linker V02.00 + NoICE + sdld,  page 106.
Hexadecimal

Area                               Addr   Size   Decimal Bytes (Attributes)
--------------------------------   ----   ----   ------- ----- ------------
CSEG                               04FD   1484 =   5252. bytes (REL,CON,CODE)

      Value  Global                              Global Defined In Module
      -----  ---------------------------------   ------------------------
       0C:  0ADD  A$usb$1219                       
       0C:  0ADE  A$usb$1220                       
       0C:  0ADF  A$usb$1221                       
       0C:  0AE0  A$usb$1222                       
       0C:  0AE1  A$usb$1223                       
       0C:  0AE2  A$usb$1224                       
       0C:  0AE3  A$usb$1225                       
       0C:  0AE4  A$usb$1228                       
       0C:  0AE4  C$usb.c$170$4$11                 
       0C:  0AE7  A$usb$1229                       
       0C:  0AE8  A$usb$1230                       
       0C:  0AE9  A$usb$1231                       
       0C:  0AEA  A$usb$1232                       
       0C:  0AEB  A$usb$1233                       
       0C:  0AEC  A$usb$1234                       
       0C:  0AED  A$usb$1235                       
       0C:  0AEF  A$usb$1238                       
       0C:  0AEF  C$usb.c$173$5$13                 
       0C:  0AF2  A$usb$1239                       
       0C:  0AF4  A$usb$1240                       
       0C:  0AF5  A$usb$1241                       
       0C:  0AF8  A$usb$1245                       
       0C:  0AF8  C$usb.c$179$5$14                 
       0C:  0AFB  A$usb$1246                       
       0C:  0AFC  A$usb$1247                       
       0C:  0AFE  A$usb$1248                       
       0C:  0B00  A$usb$1251                       
       0C:  0B00  C$usb.c$181$6$15                 
       0C:  0B02  A$usb$1252                       
       0C:  0B05  A$usb$1253                       
       0C:  0B07  A$usb$1257                       
       0C:  0B07  C$usb.c$184$5$14                 
       0C:  0B0A  A$usb$1258                       
       0C:  0B0B  A$usb$1259                       
       0C:  0B0C  A$usb$1262                       
       0C:  0B0C  C$usb.c$186$5$14                 
       0C:  0B0F  A$usb$1263                       
       0C:  0B10  A$usb$1264                       
       0C:  0B11  A$usb$1265                       
       0C:  0B13  A$usb$1268                       
       0C:  0B13  C$usb.c$189$6$16                 
       0C:  0B16  A$usb$1269                       
       0C:  0B18  A$usb$1270                       
       0C:  0B19  A$usb$1271                       
       0C:  0B1C  A$usb$1275                       
       0C:  0B1C  C$usb.c$194$6$17                 
       0C:  0B1F  A$usb$1276                       
       0C:  0B21  A$usb$1277                       
       0C:  0B22  A$usb$1280                       
       0C:  0B22  C$usb.c$195$6$17                 
       0C:  0B25  A$usb$1281                       
ASxxxx Linker V02.00 + NoICE + sdld,  page 107.
Hexadecimal

Area                               Addr   Size   Decimal Bytes (Attributes)
--------------------------------   ----   ----   ------- ----- ------------
CSEG                               04FD   1484 =   5252. bytes (REL,CON,CODE)

      Value  Global                              Global Defined In Module
      -----  ---------------------------------   ------------------------
       0C:  0B26  A$usb$1282                       
       0C:  0B27  A$usb$1283                       
       0C:  0B2A  A$usb$1287                       
       0C:  0B2A  C$usb.c$199$3$10                 
       0C:  0B2D  A$usb$1288                       
       0C:  0B2E  A$usb$1289                       
       0C:  0B2F  A$usb$1290                       
       0C:  0B32  A$usb$1293                       
       0C:  0B32  C$usb.c$204$4$18                 
       0C:  0B34  A$usb$1294                       
       0C:  0B36  A$usb$1295                       
       0C:  0B37  A$usb$1296                       
       0C:  0B39  A$usb$1297                       
       0C:  0B3B  A$usb$1298                       
       0C:  0B3C  A$usb$1299                       
       0C:  0B3D  A$usb$1300                       
       0C:  0B3F  A$usb$1301                       
       0C:  0B40  A$usb$1302                       
       0C:  0B43  A$usb$1303                       
       0C:  0B45  A$usb$1304                       
       0C:  0B48  A$usb$1305                       
       0C:  0B4A  A$usb$1308                       
       0C:  0B4A  C$usb.c$207$4$18                 
       0C:  0B4D  A$usb$1309                       
       0C:  0B4E  A$usb$1310                       
       0C:  0B4F  A$usb$1313                       
       0C:  0B4F  C$usb.c$209$4$18                 
       0C:  0B52  A$usb$1314                       
       0C:  0B53  A$usb$1315                       
       0C:  0B55  A$usb$1316                       
       0C:  0B57  A$usb$1319                       
       0C:  0B57  C$usb.c$214$5$19                 
       0C:  0B59  A$usb$1320                       
       0C:  0B5C  A$usb$1321                       
       0C:  0B5E  A$usb$1322                       
       0C:  0B60  A$usb$1326                       
       0C:  0B60  C$usb.c$221$5$20                 
       0C:  0B62  A$usb$1327                       
       0C:  0B65  A$usb$1328                       
       0C:  0B67  A$usb$1332                       
       0C:  0B67  C$usb.c$224$4$18                 
       0C:  0B6A  A$usb$1333                       
       0C:  0B6B  A$usb$1334                       
       0C:  0B6C  A$usb$1337                       
       0C:  0B6C  C$usb.c$227$4$18                 
       0C:  0B6F  A$usb$1338                       
       0C:  0B70  A$usb$1339                       
       0C:  0B71  A$usb$1340                       
       0C:  0B73  A$usb$1343                       
       0C:  0B73  C$usb.c$230$5$21                 
       0C:  0B76  A$usb$1344                       
ASxxxx Linker V02.00 + NoICE + sdld,  page 108.
Hexadecimal

Area                               Addr   Size   Decimal Bytes (Attributes)
--------------------------------   ----   ----   ------- ----- ------------
CSEG                               04FD   1484 =   5252. bytes (REL,CON,CODE)

      Value  Global                              Global Defined In Module
      -----  ---------------------------------   ------------------------
       0C:  0B78  A$usb$1345                       
       0C:  0B79  A$usb$1346                       
       0C:  0B7B  A$usb$1350                       
       0C:  0B7B  C$usb.c$232$4$18                 
       0C:  0B7E  A$usb$1353                       
       0C:  0B7E  C$usb.c$234$5$22                 
       0C:  0B81  A$usb$1354                       
       0C:  0B82  A$usb$1355                       
       0C:  0B83  A$usb$1356                       
       0C:  0B84  A$usb$1357                       
       0C:  0B85  A$usb$1358                       
       0C:  0B86  A$usb$1359                       
       0C:  0B87  A$usb$1360                       
       0C:  0B89  A$usb$1363                       
       0C:  0B89  C$usb.c$237$6$23                 
       0C:  0B8C  A$usb$1364                       
       0C:  0B8E  A$usb$1365                       
       0C:  0B8F  A$usb$1366                       
       0C:  0B91  A$usb$1370                       
       0C:  0B91  C$usb.c$242$6$24                 
       0C:  0B94  A$usb$1371                       
       0C:  0B96  A$usb$1372                       
       0C:  0B97  A$usb$1375                       
       0C:  0B97  C$usb.c$243$6$24                 
       0C:  0B9A  A$usb$1376                       
       0C:  0B9B  A$usb$1377                       
       0C:  0B9C  A$usb$1378                       
       0C:  0B9E  A$usb$1382                       
       0C:  0B9E  C$usb.c$252$4$25                 
       0C:  0BA1  A$usb$1383                       
       0C:  0BA3  A$usb$1384                       
       0C:  0BA4  A$usb$1388                       
       0C:  0BA4  C$usb.c$256$2$7                  
       0C:  0BA5  A$usb$1389                       
       0C:  0BA8  A$usb$1390                       
       0C:  0BAB  A$usb$1391                       
       0C:  0BAC  A$usb$1392                       
       0C:  0BAD  A$usb$1393                       
       0C:  0BB0  A$usb$1396                       
       0C:  0BB0  C$usb.c$261$3$26                 
       0C:  0BB3  A$usb$1397                       
       0C:  0BB4  A$usb$1398                       
       0C:  0BB5  A$usb$1399                       
       0C:  0BB6  A$usb$1400                       
       0C:  0BB7  A$usb$1401                       
       0C:  0BB8  A$usb$1402                       
       0C:  0BB9  A$usb$1403                       
       0C:  0BBA  A$usb$1404                       
       0C:  0BBC  A$usb$1405                       
       0C:  0BBD  A$usb$1406                       
       0C:  0BBF  A$usb$1407                       
ASxxxx Linker V02.00 + NoICE + sdld,  page 109.
Hexadecimal

Area                               Addr   Size   Decimal Bytes (Attributes)
--------------------------------   ----   ----   ------- ----- ------------
CSEG                               04FD   1484 =   5252. bytes (REL,CON,CODE)

      Value  Global                              Global Defined In Module
      -----  ---------------------------------   ------------------------
       0C:  0BC1  A$usb$1410                       
       0C:  0BC1  C$usb.c$264$4$27                 
       0C:  0BC3  A$usb$1415                       
       0C:  0BC3  C$usb.c$265$4$27                 
       0C:  0BC3  C$usb.c$266$4$27                 
       0C:  0BC6  A$usb$1416                       
       0C:  0BC7  A$usb$1417                       
       0C:  0BC8  A$usb$1418                       
       0C:  0BCA  A$usb$1422                       
       0C:  0BCA  C$usb.c$271$4$28                 
       0C:  0BCC  A$usb$1425                       
       0C:  0BCC  C$usb.c$272$4$28                 
       0C:  0BCE  A$usb$1429                       
       0C:  0BCE  C$usb.c$276$3$26                 
       0C:  0BD0  A$usb$1430                       
       0C:  0BD1  A$usb$1431                       
       0C:  0BD2  A$usb$1432                       
       0C:  0BD4  A$usb$1433                       
       0C:  0BD6  A$usb$1434                       
       0C:  0BD7  A$usb$1435                       
       0C:  0BD8  A$usb$1436                       
       0C:  0BD9  A$usb$1437                       
       0C:  0BDA  A$usb$1438                       
       0C:  0BDB  A$usb$1439                       
       0C:  0BDC  A$usb$1440                       
       0C:  0BDF  A$usb$1441                       
       0C:  0BE1  A$usb$1442                       
       0C:  0BE3  A$usb$1443                       
       0C:  0BE6  A$usb$1444                       
       0C:  0BE8  A$usb$1445                       
       0C:  0BEA  A$usb$1448                       
       0C:  0BEA  C$usb.c$277$3$26                 
       0C:  0BED  A$usb$1449                       
       0C:  0BEE  A$usb$1450                       
       0C:  0BEF  A$usb$1453                       
       0C:  0BEF  C$usb.c$280$3$26                 
       0C:  0BF1  A$usb$1454                       
       0C:  0BF2  A$usb$1455                       
       0C:  0BF3  A$usb$1456                       
       0C:  0BF4  A$usb$1457                       
       0C:  0BF5  A$usb$1458                       
       0C:  0BF6  A$usb$1459                       
       0C:  0BF8  A$usb$1460                       
       0C:  0BF9  A$usb$1463                       
       0C:  0BF9  C$usb.c$281$3$26                 
       0C:  0BFB  A$usb$1464                       
       0C:  0BFE  A$usb$1465                       
       0C:  0BFF  A$usb$1466                       
       0C:  0C00  A$usb$1467                       
       0C:  0C01  A$usb$1468                       
       0C:  0C02  A$usb$1469                       
ASxxxx Linker V02.00 + NoICE + sdld,  page 110.
Hexadecimal

Area                               Addr   Size   Decimal Bytes (Attributes)
--------------------------------   ----   ----   ------- ----- ------------
CSEG                               04FD   1484 =   5252. bytes (REL,CON,CODE)

      Value  Global                              Global Defined In Module
      -----  ---------------------------------   ------------------------
       0C:  0C03  A$usb$1470                       
       0C:  0C06  A$usb$1471                       
       0C:  0C07  A$usb$1472                       
       0C:  0C08  A$usb$1473                       
       0C:  0C09  A$usb$1474                       
       0C:  0C0A  A$usb$1475                       
       0C:  0C0B  A$usb$1476                       
       0C:  0C0C  A$usb$1477                       
       0C:  0C0D  A$usb$1478                       
       0C:  0C0E  A$usb$1482                       
       0C:  0C0E  C$usb.c$284$1$1                  
       0C:  0C0E  XG$usbPoll$0$0                   
       0C:  0C0F  A$usb$1497                       
       0C:  0C0F  C$usb.c$291$1$1                  
       0C:  0C0F  C$usb.c$295$1$1                  
       0C:  0C0F  Fusb$usbStandardDeviceRequestHand
       0C:  0C0F  _usbStandardDeviceRequestHandler 
       0C:  0C12  A$usb$1500                       
       0C:  0C12  C$usb.c$296$1$1                  
       0C:  0C13  A$usb$1501                       
       0C:  0C14  A$usb$1502                       
       0C:  0C17  A$usb$1503                       
       0C:  0C18  A$usb$1506                       
       0C:  0C18  C$usb.c$309$1$1                  
       0C:  0C1B  A$usb$1507                       
       0C:  0C1C  A$usb$1508                       
       0C:  0C1D  A$usb$1509                       
       0C:  0C1F  A$usb$1510                       
       0C:  0C22  A$usb$1512                       
       0C:  0C24  A$usb$1513                       
       0C:  0C25  A$usb$1515                       
       0C:  0C26  A$usb$1516                       
       0C:  0C27  A$usb$1517                       
       0C:  0C28  A$usb$1518                       
       0C:  0C2B  A$usb$1519                       
       0C:  0C2C  A$usb$1521                       
       0C:  0C2F  A$usb$1522                       
       0C:  0C32  A$usb$1523                       
       0C:  0C35  A$usb$1524                       
       0C:  0C38  A$usb$1525                       
       0C:  0C3B  A$usb$1526                       
       0C:  0C3E  A$usb$1527                       
       0C:  0C41  A$usb$1528                       
       0C:  0C44  A$usb$1529                       
       0C:  0C47  A$usb$1530                       
       0C:  0C4A  A$usb$1531                       
       0C:  0C4D  A$usb$1532                       
       0C:  0C50  A$usb$1533                       
       0C:  0C53  A$usb$1539                       
       0C:  0C53  C$usb.c$311$2$2                  
       0C:  0C53  C$usb.c$313$3$3                  
ASxxxx Linker V02.00 + NoICE + sdld,  page 111.
Hexadecimal

Area                               Addr   Size   Decimal Bytes (Attributes)
--------------------------------   ----   ----   ------- ----- ------------
CSEG                               04FD   1484 =   5252. bytes (REL,CON,CODE)

      Value  Global                              Global Defined In Module
      -----  ---------------------------------   ------------------------
       0C:  0C56  A$usb$1540                       
       0C:  0C57  A$usb$1541                       
       0C:  0C58  A$usb$1542                       
       0C:  0C59  A$usb$1543                       
       0C:  0C5A  A$usb$1544                       
       0C:  0C5B  A$usb$1545                       
       0C:  0C5C  A$usb$1546                       
       0C:  0C5E  A$usb$1547                       
       0C:  0C61  A$usb$1548                       
       0C:  0C64  A$usb$1549                       
       0C:  0C66  A$usb$1551                       
       0C:  0C69  A$usb$1552                       
       0C:  0C6C  A$usb$1553                       
       0C:  0C6E  A$usb$1555                       
       0C:  0C71  A$usb$1556                       
       0C:  0C74  A$usb$1557                       
       0C:  0C76  A$usb$1559                       
       0C:  0C79  A$usb$1565                       
       0C:  0C79  C$usb.c$315$4$4                  
       0C:  0C79  C$usb.c$317$5$5                  
       0C:  0C7B  A$usb$1566                       
       0C:  0C7D  A$usb$1567                       
       0C:  0C7E  A$usb$1568                       
       0C:  0C7F  A$usb$1569                       
       0C:  0C81  A$usb$1570                       
       0C:  0C82  A$usb$1573                       
       0C:  0C82  C$usb.c$318$5$5                  
       0C:  0C85  A$usb$1574                       
       0C:  0C87  A$usb$1575                       
       0C:  0C88  A$usb$1576                       
       0C:  0C89  A$usb$1577                       
       0C:  0C8A  A$usb$1578                       
       0C:  0C8B  A$usb$1581                       
       0C:  0C8B  C$usb.c$319$5$5                  
       0C:  0C8E  A$usb$1587                       
       0C:  0C8E  C$usb.c$321$4$4                  
       0C:  0C8E  C$usb.c$323$5$6                  
       0C:  0C8F  A$usb$1588                       
       0C:  0C91  A$usb$1591                       
       0C:  0C91  C$usb.c$326$6$7                  
       0C:  0C92  A$usb$1595                       
       0C:  0C92  C$usb.c$331$5$6                  
       0C:  0C94  A$usb$1596                       
       0C:  0C96  A$usb$1597                       
       0C:  0C97  A$usb$1598                       
       0C:  0C98  A$usb$1599                       
       0C:  0C9A  A$usb$1600                       
       0C:  0C9B  A$usb$1603                       
       0C:  0C9B  C$usb.c$332$5$6                  
       0C:  0C9E  A$usb$1604                       
       0C:  0C9F  A$usb$1605                       
ASxxxx Linker V02.00 + NoICE + sdld,  page 112.
Hexadecimal

Area                               Addr   Size   Decimal Bytes (Attributes)
--------------------------------   ----   ----   ------- ----- ------------
CSEG                               04FD   1484 =   5252. bytes (REL,CON,CODE)

      Value  Global                              Global Defined In Module
      -----  ---------------------------------   ------------------------
       0C:  0CA0  A$usb$1606                       
       0C:  0CA1  A$usb$1607                       
       0C:  0CA2  A$usb$1608                       
       0C:  0CA3  A$usb$1609                       
       0C:  0CA4  A$usb$1610                       
       0C:  0CA5  A$usb$1611                       
       0C:  0CA8  A$usb$1612                       
       0C:  0CA9  A$usb$1613                       
       0C:  0CAA  A$usb$1614                       
       0C:  0CAB  A$usb$1615                       
       0C:  0CAC  A$usb$1616                       
       0C:  0CAD  A$usb$1621                       
       0C:  0CAD  C$usb.c$333$5$6                  
       0C:  0CAD  C$usb.c$335$4$4                  
       0C:  0CAF  A$usb$1625                       
       0C:  0CAF  C$usb.c$337$5$8                  
       0C:  0CB1  A$usb$1626                       
       0C:  0CB3  A$usb$1627                       
       0C:  0CB6  A$usb$1628                       
       0C:  0CB7  A$usb$1629                       
       0C:  0CB8  A$usb$1630                       
       0C:  0CB9  A$usb$1631                       
       0C:  0CBB  A$usb$1632                       
       0C:  0CBC  A$usb$1633                       
       0C:  0CBD  A$usb$1634                       
       0C:  0CBE  A$usb$1635                       
       0C:  0CBF  A$usb$1636                       
       0C:  0CC0  A$usb$1637                       
       0C:  0CC2  A$usb$1640                       
       0C:  0CC2  C$usb.c$340$6$9                  
       0C:  0CC3  A$usb$1644                       
       0C:  0CC3  C$usb.c$343$5$8                  
       0C:  0CC4  A$usb$1645                       
       0C:  0CC5  A$usb$1646                       
       0C:  0CC7  A$usb$1647                       
       0C:  0CC8  A$usb$1648                       
       0C:  0CC9  A$usb$1649                       
       0C:  0CCA  A$usb$1650                       
       0C:  0CCB  A$usb$1651                       
       0C:  0CCD  A$usb$1652                       
       0C:  0CCF  A$usb$1653                       
       0C:  0CD0  A$usb$1654                       
       0C:  0CD2  A$usb$1655                       
       0C:  0CD4  A$usb$1656                       
       0C:  0CD5  A$usb$1657                       
       0C:  0CD6  A$usb$1658                       
       0C:  0CD7  A$usb$1659                       
       0C:  0CD8  A$usb$1660                       
       0C:  0CD9  A$usb$1661                       
       0C:  0CDA  A$usb$1662                       
       0C:  0CDB  A$usb$1663                       
ASxxxx Linker V02.00 + NoICE + sdld,  page 113.
Hexadecimal

Area                               Addr   Size   Decimal Bytes (Attributes)
--------------------------------   ----   ----   ------- ----- ------------
CSEG                               04FD   1484 =   5252. bytes (REL,CON,CODE)

      Value  Global                              Global Defined In Module
      -----  ---------------------------------   ------------------------
       0C:  0CDD  A$usb$1664                       
       0C:  0CDE  A$usb$1665                       
       0C:  0CDF  A$usb$1666                       
       0C:  0CE0  A$usb$1667                       
       0C:  0CE1  A$usb$1668                       
       0C:  0CE2  A$usb$1671                       
       0C:  0CE2  C$usb.c$344$5$8                  
       0C:  0CE4  A$usb$1672                       
       0C:  0CE6  A$usb$1673                       
       0C:  0CE7  A$usb$1674                       
       0C:  0CE8  A$usb$1675                       
       0C:  0CEB  A$usb$1676                       
       0C:  0CEC  A$usb$1677                       
       0C:  0CED  A$usb$1678                       
       0C:  0CEE  A$usb$1679                       
       0C:  0CEF  A$usb$1684                       
       0C:  0CEF  C$usb.c$345$5$8                  
       0C:  0CEF  C$usb.c$347$4$4                  
       0C:  0CF1  A$usb$1688                       
       0C:  0CF1  C$usb.c$350$5$10                 
       0C:  0CF4  A$usb$1691                       
       0C:  0CF4  C$usb.c$352$5$10                 
       0C:  0CF7  A$usb$1692                       
       0C:  0CF8  A$usb$1693                       
       0C:  0CF9  A$usb$1694                       
       0C:  0CFB  A$usb$1697                       
       0C:  0CFB  C$usb.c$355$6$11                 
       0C:  0CFC  A$usb$1703                       
       0C:  0CFC  C$usb.c$359$3$3                  
       0C:  0CFC  C$usb.c$364$3$3                  
       0C:  0CFF  A$usb$1704                       
       0C:  0D00  A$usb$1705                       
       0C:  0D01  A$usb$1706                       
       0C:  0D02  A$usb$1707                       
       0C:  0D03  A$usb$1708                       
       0C:  0D04  A$usb$1709                       
       0C:  0D07  A$usb$1710                       
       0C:  0D08  A$usb$1711                       
       0C:  0D09  A$usb$1712                       
       0C:  0D0A  A$usb$1713                       
       0C:  0D0B  A$usb$1714                       
       0C:  0D0C  A$usb$1715                       
       0C:  0D0D  A$usb$1716                       
       0C:  0D0E  A$usb$1717                       
       0C:  0D0F  A$usb$1718                       
       0C:  0D10  A$usb$1719                       
       0C:  0D11  A$usb$1720                       
       0C:  0D13  A$usb$1723                       
       0C:  0D13  C$usb.c$366$4$12                 
       0C:  0D16  A$usb$1724                       
       0C:  0D17  A$usb$1725                       
ASxxxx Linker V02.00 + NoICE + sdld,  page 114.
Hexadecimal

Area                               Addr   Size   Decimal Bytes (Attributes)
--------------------------------   ----   ----   ------- ----- ------------
CSEG                               04FD   1484 =   5252. bytes (REL,CON,CODE)

      Value  Global                              Global Defined In Module
      -----  ---------------------------------   ------------------------
       0C:  0D18  A$usb$1726                       
       0C:  0D19  A$usb$1727                       
       0C:  0D1A  A$usb$1728                       
       0C:  0D1B  A$usb$1732                       
       0C:  0D1B  C$usb.c$369$3$3                  
       0C:  0D1E  A$usb$1733                       
       0C:  0D20  A$usb$1734                       
       0C:  0D21  A$usb$1737                       
       0C:  0D21  C$usb.c$370$3$3                  
       0C:  0D22  A$usb$1743                       
       0C:  0D22  C$usb.c$372$2$2                  
       0C:  0D22  C$usb.c$379$3$13                 
       0C:  0D25  A$usb$1744                       
       0C:  0D26  A$usb$1745                       
       0C:  0D27  A$usb$1746                       
       0C:  0D28  A$usb$1747                       
       0C:  0D29  A$usb$1748                       
       0C:  0D2A  A$usb$1749                       
       0C:  0D2D  A$usb$1750                       
       0C:  0D2E  A$usb$1751                       
       0C:  0D2F  A$usb$1754                       
       0C:  0D2F  C$usb.c$380$3$13                 
       0C:  0D30  A$usb$1755                       
       0C:  0D32  A$usb$1756                       
       0C:  0D34  A$usb$1757                       
       0C:  0D36  A$usb$1759                       
       0C:  0D38  A$usb$1761                       
       0C:  0D3B  A$usb$1762                       
       0C:  0D3C  A$usb$1763                       
       0C:  0D3D  A$usb$1768                       
       0C:  0D3D  C$usb.c$383$3$13                 
       0C:  0D3D  C$usb.c$384$3$13                 
       0C:  0D40  A$usb$1774                       
       0C:  0D40  C$usb.c$386$2$2                  
       0C:  0D40  C$usb.c$389$3$14                 
       0C:  0D43  A$usb$1775                       
       0C:  0D44  A$usb$1776                       
       0C:  0D45  A$usb$1777                       
       0C:  0D46  A$usb$1778                       
       0C:  0D47  A$usb$1779                       
       0C:  0D48  A$usb$1780                       
       0C:  0D4B  A$usb$1781                       
       0C:  0D4E  A$usb$1782                       
       0C:  0D50  A$usb$1786                       
       0C:  0D50  C$usb.c$391$4$15                 
       0C:  0D53  A$usb$1787                       
       0C:  0D56  A$usb$1788                       
       0C:  0D58  A$usb$1792                       
       0C:  0D58  C$usb.c$397$5$16                 
       0C:  0D5B  A$usb$1793                       
       0C:  0D5C  A$usb$1794                       
ASxxxx Linker V02.00 + NoICE + sdld,  page 115.
Hexadecimal

Area                               Addr   Size   Decimal Bytes (Attributes)
--------------------------------   ----   ----   ------- ----- ------------
CSEG                               04FD   1484 =   5252. bytes (REL,CON,CODE)

      Value  Global                              Global Defined In Module
      -----  ---------------------------------   ------------------------
       0C:  0D5D  A$usb$1795                       
       0C:  0D5F  A$usb$1796                       
       0C:  0D62  A$usb$1798                       
       0C:  0D64  A$usb$1801                       
       0C:  0D64  C$usb.c$399$6$17                 
       0C:  0D67  A$usb$1802                       
       0C:  0D69  A$usb$1803                       
       0C:  0D6A  A$usb$1808                       
       0C:  0D6A  C$usb.c$401$5$16                 
       0C:  0D6A  C$usb.c$403$4$15                 
       0C:  0D6C  A$usb$1812                       
       0C:  0D6C  C$usb.c$408$5$18                 
       0C:  0D6F  A$usb$1813                       
       0C:  0D71  A$usb$1814                       
       0C:  0D72  A$usb$1817                       
       0C:  0D72  C$usb.c$409$5$18                 
       0C:  0D75  A$usb$1822                       
       0C:  0D75  C$usb.c$410$5$18                 
       0C:  0D75  C$usb.c$412$4$15                 
       0C:  0D77  A$usb$1826                       
       0C:  0D77  C$usb.c$415$5$19                 
       0C:  0D78  A$usb$1834                       
       0C:  0D78  C$usb.c$417$3$14                 
       0C:  0D78  C$usb.c$420$3$14                 
       0C:  0D78  C$usb.c$421$3$14                 
       0C:  0D7B  A$usb$1840                       
       0C:  0D7B  C$usb.c$423$2$2                  
       0C:  0D7B  C$usb.c$426$3$20                 
       0C:  0D7E  A$usb$1841                       
       0C:  0D7F  A$usb$1842                       
       0C:  0D80  A$usb$1843                       
       0C:  0D83  A$usb$1844                       
       0C:  0D85  A$usb$1845                       
       0C:  0D87  A$usb$1847                       
       0C:  0D89  A$usb$1849                       
       0C:  0D8C  A$usb$1850                       
       0C:  0D8D  A$usb$1851                       
       0C:  0D8E  A$usb$1854                       
       0C:  0D8E  C$usb.c$427$3$20                 
       0C:  0D90  A$usb$1855                       
       0C:  0D92  A$usb$1856                       
       0C:  0D93  A$usb$1857                       
       0C:  0D94  A$usb$1858                       
       0C:  0D96  A$usb$1859                       
       0C:  0D97  A$usb$1860                       
       0C:  0D9A  A$usb$1863                       
       0C:  0D9A  C$usb.c$428$3$20                 
       0C:  0D9D  A$usb$1869                       
       0C:  0D9D  C$usb.c$430$2$2                  
       0C:  0D9D  C$usb.c$437$3$21                 
       0C:  0DA0  A$usb$1870                       
ASxxxx Linker V02.00 + NoICE + sdld,  page 116.
Hexadecimal

Area                               Addr   Size   Decimal Bytes (Attributes)
--------------------------------   ----   ----   ------- ----- ------------
CSEG                               04FD   1484 =   5252. bytes (REL,CON,CODE)

      Value  Global                              Global Defined In Module
      -----  ---------------------------------   ------------------------
       0C:  0DA1  A$usb$1871                       
       0C:  0DA2  A$usb$1872                       
       0C:  0DA5  A$usb$1874                       
       0C:  0DA7  A$usb$1877                       
       0C:  0DA7  C$usb.c$440$4$22                 
       0C:  0DA8  A$usb$1881                       
       0C:  0DA8  C$usb.c$443$3$21                 
       0C:  0DAB  A$usb$1882                       
       0C:  0DAC  A$usb$1883                       
       0C:  0DAD  A$usb$1884                       
       0C:  0DAE  A$usb$1885                       
       0C:  0DAF  A$usb$1886                       
       0C:  0DB0  A$usb$1887                       
       0C:  0DB2  A$usb$1888                       
       0C:  0DB4  A$usb$1889                       
       0C:  0DB6  A$usb$1890                       
       0C:  0DB8  A$usb$1891                       
       0C:  0DB9  A$usb$1892                       
       0C:  0DBA  A$usb$1893                       
       0C:  0DBB  A$usb$1894                       
       0C:  0DBC  A$usb$1895                       
       0C:  0DBD  A$usb$1896                       
       0C:  0DBE  A$usb$1897                       
       0C:  0DBF  A$usb$1898                       
       0C:  0DC1  A$usb$1899                       
       0C:  0DC2  A$usb$1900                       
       0C:  0DC3  A$usb$1901                       
       0C:  0DC4  A$usb$1902                       
       0C:  0DC5  A$usb$1903                       
       0C:  0DC6  A$usb$1904                       
       0C:  0DC8  A$usb$1907                       
       0C:  0DC8  C$usb.c$446$4$23                 
       0C:  0DC9  A$usb$1911                       
       0C:  0DC9  C$usb.c$451$3$21                 
       0C:  0DCB  A$usb$1912                       
       0C:  0DCD  A$usb$1913                       
       0C:  0DCE  A$usb$1914                       
       0C:  0DCF  A$usb$1915                       
       0C:  0DD1  A$usb$1916                       
       0C:  0DD2  A$usb$1917                       
       0C:  0DD5  A$usb$1920                       
       0C:  0DD5  C$usb.c$452$3$21                 
       0C:  0DD8  A$usb$1926                       
       0C:  0DD8  C$usb.c$454$2$2                  
       0C:  0DD8  C$usb.c$456$3$24                 
       0C:  0DDB  A$usb$1927                       
       0C:  0DDC  A$usb$1928                       
       0C:  0DDE  A$usb$1929                       
       0C:  0DDF  A$usb$1930                       
       0C:  0DE1  A$usb$1931                       
       0C:  0DE4  A$usb$1932                       
ASxxxx Linker V02.00 + NoICE + sdld,  page 117.
Hexadecimal

Area                               Addr   Size   Decimal Bytes (Attributes)
--------------------------------   ----   ----   ------- ----- ------------
CSEG                               04FD   1484 =   5252. bytes (REL,CON,CODE)

      Value  Global                              Global Defined In Module
      -----  ---------------------------------   ------------------------
       0C:  0DE7  A$usb$1933                       
       0C:  0DE9  A$usb$1935                       
       0C:  0DEC  A$usb$1936                       
       0C:  0DEF  A$usb$1937                       
       0C:  0DF1  A$usb$1939                       
       0C:  0DF4  A$usb$1940                       
       0C:  0DF7  A$usb$1941                       
       0C:  0DFA  A$usb$1943                       
       0C:  0DFD  A$usb$1949                       
       0C:  0DFD  C$usb.c$458$4$25                 
       0C:  0DFD  C$usb.c$461$5$26                 
       0C:  0E00  A$usb$1950                       
       0C:  0E02  A$usb$1951                       
       0C:  0E04  A$usb$1952                       
       0C:  0E06  A$usb$1954                       
       0C:  0E08  A$usb$1956                       
       0C:  0E0B  A$usb$1957                       
       0C:  0E0C  A$usb$1958                       
       0C:  0E0D  A$usb$1961                       
       0C:  0E0D  C$usb.c$463$5$26                 
       0C:  0E0F  A$usb$1962                       
       0C:  0E11  A$usb$1963                       
       0C:  0E12  A$usb$1964                       
       0C:  0E13  A$usb$1965                       
       0C:  0E15  A$usb$1966                       
       0C:  0E16  A$usb$1967                       
       0C:  0E19  A$usb$1970                       
       0C:  0E19  C$usb.c$464$5$26                 
       0C:  0E1C  A$usb$1976                       
       0C:  0E1C  C$usb.c$466$4$25                 
       0C:  0E1C  C$usb.c$468$5$27                 
       0C:  0E1F  A$usb$1977                       
       0C:  0E20  A$usb$1978                       
       0C:  0E21  A$usb$1979                       
       0C:  0E24  A$usb$1981                       
       0C:  0E26  A$usb$1982                       
       0C:  0E29  A$usb$1983                       
       0C:  0E2A  A$usb$1984                       
       0C:  0E2B  A$usb$1985                       
       0C:  0E2C  A$usb$1986                       
       0C:  0E2D  A$usb$1987                       
       0C:  0E2E  A$usb$1988                       
       0C:  0E2F  A$usb$1989                       
       0C:  0E31  A$usb$1992                       
       0C:  0E31  C$usb.c$472$6$28                 
       0C:  0E32  A$usb$1996                       
       0C:  0E32  C$usb.c$475$5$27                 
       0C:  0E35  A$usb$1997                       
       0C:  0E36  A$usb$1998                       
       0C:  0E37  A$usb$1999                       
       0C:  0E38  A$usb$2000                       
ASxxxx Linker V02.00 + NoICE + sdld,  page 118.
Hexadecimal

Area                               Addr   Size   Decimal Bytes (Attributes)
--------------------------------   ----   ----   ------- ----- ------------
CSEG                               04FD   1484 =   5252. bytes (REL,CON,CODE)

      Value  Global                              Global Defined In Module
      -----  ---------------------------------   ------------------------
       0C:  0E39  A$usb$2001                       
       0C:  0E3A  A$usb$2002                       
       0C:  0E3C  A$usb$2003                       
       0C:  0E3E  A$usb$2004                       
       0C:  0E40  A$usb$2005                       
       0C:  0E42  A$usb$2006                       
       0C:  0E43  A$usb$2007                       
       0C:  0E44  A$usb$2008                       
       0C:  0E45  A$usb$2009                       
       0C:  0E46  A$usb$2010                       
       0C:  0E47  A$usb$2011                       
       0C:  0E48  A$usb$2012                       
       0C:  0E49  A$usb$2013                       
       0C:  0E4B  A$usb$2014                       
       0C:  0E4C  A$usb$2015                       
       0C:  0E4D  A$usb$2016                       
       0C:  0E4E  A$usb$2017                       
       0C:  0E4F  A$usb$2018                       
       0C:  0E50  A$usb$2019                       
       0C:  0E52  A$usb$2022                       
       0C:  0E52  C$usb.c$478$6$29                 
       0C:  0E53  A$usb$2026                       
       0C:  0E53  C$usb.c$483$5$27                 
       0C:  0E55  A$usb$2027                       
       0C:  0E57  A$usb$2028                       
       0C:  0E58  A$usb$2029                       
       0C:  0E59  A$usb$2030                       
       0C:  0E5B  A$usb$2031                       
       0C:  0E5C  A$usb$2032                       
       0C:  0E5F  A$usb$2037                       
       0C:  0E5F  C$usb.c$484$5$27                 
       0C:  0E5F  C$usb.c$486$4$25                 
       0C:  0E62  A$usb$2041                       
       0C:  0E62  C$usb.c$488$5$30                 
       0C:  0E65  A$usb$2042                       
       0C:  0E66  A$usb$2043                       
       0C:  0E67  A$usb$2044                       
       0C:  0E68  A$usb$2045                       
       0C:  0E69  A$usb$2046                       
       0C:  0E6A  A$usb$2047                       
       0C:  0E6B  A$usb$2048                       
       0C:  0E6D  A$usb$2049                       
       0C:  0E6F  A$usb$2050                       
       0C:  0E71  A$usb$2054                       
       0C:  0E71  C$usb.c$492$6$31                 
       0C:  0E72  A$usb$2058                       
       0C:  0E72  C$usb.c$495$5$30                 
       0C:  0E75  A$usb$2059                       
       0C:  0E76  A$usb$2060                       
       0C:  0E77  A$usb$2061                       
       0C:  0E7A  A$usb$2063                       
ASxxxx Linker V02.00 + NoICE + sdld,  page 119.
Hexadecimal

Area                               Addr   Size   Decimal Bytes (Attributes)
--------------------------------   ----   ----   ------- ----- ------------
CSEG                               04FD   1484 =   5252. bytes (REL,CON,CODE)

      Value  Global                              Global Defined In Module
      -----  ---------------------------------   ------------------------
       0C:  0E7C  A$usb$2066                       
       0C:  0E7C  C$usb.c$499$6$32                 
       0C:  0E7D  A$usb$2070                       
       0C:  0E7D  C$usb.c$507$5$30                 
       0C:  0E7F  A$usb$2071                       
       0C:  0E81  A$usb$2072                       
       0C:  0E82  A$usb$2073                       
       0C:  0E83  A$usb$2074                       
       0C:  0E85  A$usb$2075                       
       0C:  0E86  A$usb$2076                       
       0C:  0E89  A$usb$2081                       
       0C:  0E89  C$usb.c$508$5$30                 
       0C:  0E89  C$usb.c$510$3$24                 
       0C:  0E8C  A$usb$2087                       
       0C:  0E8C  C$usb.c$511$3$24                 
       0C:  0E8C  C$usb.c$519$2$2                  
       0C:  0E8D  A$usb$2098                       
       0C:  0E8D  C$usb.c$520$2$2                  
       0C:  0E8D  C$usb.c$523$3$33                 
       0C:  0E8D  C$usb.c$524$3$33                 
       0C:  0E8D  C$usb.c$526$2$2                  
       0C:  0E90  A$usb$2102                       
       0C:  0E90  C$usb.c$529$3$34                 
       0C:  0E92  A$usb$2103                       
       0C:  0E94  A$usb$2104                       
       0C:  0E95  A$usb$2105                       
       0C:  0E96  A$usb$2106                       
       0C:  0E98  A$usb$2107                       
       0C:  0E99  A$usb$2108                       
       0C:  0E9C  A$usb$2109                       
       0C:  0E9F  A$usb$2117                       
       0C:  0E9F  C$usb.c$530$3$34                 
       0C:  0E9F  C$usb.c$532$1$1                  
       0C:  0E9F  C$usb.c$533$1$1                  
       0C:  0E9F  XFusb$usbStandardDeviceRequestHan
       0C:  0EA0  A$usb$2131                       
       0C:  0EA0  C$usb.c$535$1$1                  
       0C:  0EA0  C$usb.c$537$1$1                  
       0C:  0EA0  G$usbSuspended$0$0               
       0C:  0EA0  _usbSuspended                    
       0C:  0EA2  A$usb$2134                       
       0C:  0EA2  C$usb.c$538$1$1                  
       0C:  0EA2  XG$usbSuspended$0$0              
       0C:  0EA3  A$usb$2148                       
       0C:  0EA3  C$usb.c$554$1$1                  
       0C:  0EA3  C$usb.c$556$1$1                  
       0C:  0EA3  G$usbSleep$0$0                   
       0C:  0EA3  _usbSleep                        
       0C:  0EA5  A$usb$2151                       
       0C:  0EA5  C$usb.c$557$1$1                  
       0C:  0EA7  A$usb$2152                       
ASxxxx Linker V02.00 + NoICE + sdld,  page 120.
Hexadecimal

Area                               Addr   Size   Decimal Bytes (Attributes)
--------------------------------   ----   ----   ------- ----- ------------
CSEG                               04FD   1484 =   5252. bytes (REL,CON,CODE)

      Value  Global                              Global Defined In Module
      -----  ---------------------------------   ------------------------
       0C:  0EA9  A$usb$2155                       
       0C:  0EA9  C$usb.c$561$1$1                  
       0C:  0EAB  A$usb$2158                       
       0C:  0EAB  C$usb.c$562$1$1                  
       0C:  0EAE  A$usb$2161                       
       0C:  0EAE  C$usb.c$563$1$1                  
       0C:  0EB1  A$usb$2167                       
       0C:  0EB1  C$usb.c$565$1$1                  
       0C:  0EB1  C$usb.c$568$2$2                  
       0C:  0EB4  A$usb$2170                       
       0C:  0EB4  C$usb.c$569$2$2                  
       0C:  0EB6  A$usb$2173                       
       0C:  0EB6  C$usb.c$571$2$2                  
       0C:  0EB8  A$usb$2176                       
       0C:  0EB8  C$usb.c$574$2$2                  
       0C:  0EBA  A$usb$2177                       
       0C:  0EBC  A$usb$2178                       
       0C:  0EBD  A$usb$2179                       
       0C:  0EBF  A$usb$2180                       
       0C:  0EC1  A$usb$2183                       
       0C:  0EC1  C$usb.c$575$2$2                  
       0C:  0EC2  A$usb$2184                       
       0C:  0EC3  A$usb$2185                       
       0C:  0EC4  A$usb$2188                       
       0C:  0EC4  C$usb.c$576$2$2                  
       0C:  0EC6  A$usb$2189                       
       0C:  0EC8  A$usb$2190                       
       0C:  0ECA  A$usb$2193                       
       0C:  0ECA  C$usb.c$578$3$3                  
       0C:  0ECC  A$usb$2196                       
       0C:  0ECC  C$usb.c$579$3$3                  
       0C:  0ECF  A$usb$2199                       
       0C:  0ECF  C$usb.c$580$3$3                  
       0C:  0ED1  A$usb$2203                       
       0C:  0ED1  C$usb.c$586$2$2                  
       0C:  0ED3  A$usb$2206                       
       0C:  0ED3  C$usb.c$592$2$2                  
       0C:  0ED5  A$usb$2207                       
       0C:  0ED8  A$usb$2210                       
       0C:  0ED8  C$usb.c$594$3$4                  
       0C:  0EDA  A$usb$2214                       
       0C:  0EDA  C$usb.c$597$1$1                  
       0C:  0EDD  A$usb$2215                       
       0C:  0EDF  A$usb$2216                       
       0C:  0EE2  A$usb$2217                       
       0C:  0EE4  A$usb$2218                       
       0C:  0EE6  A$usb$2222                       
       0C:  0EE6  C$usb.c$601$1$1                  
       0C:  0EE8  A$usb$2223                       
       0C:  0EEB  A$usb$2226                       
       0C:  0EEB  C$usb.c$604$1$1                  
ASxxxx Linker V02.00 + NoICE + sdld,  page 121.
Hexadecimal

Area                               Addr   Size   Decimal Bytes (Attributes)
--------------------------------   ----   ----   ------- ----- ------------
CSEG                               04FD   1484 =   5252. bytes (REL,CON,CODE)

      Value  Global                              Global Defined In Module
      -----  ---------------------------------   ------------------------
       0C:  0EED  A$usb$2229                       
       0C:  0EED  C$usb.c$605$1$1                  
       0C:  0EEF  A$usb$2230                       
       0C:  0EF1  A$usb$2233                       
       0C:  0EF1  C$usb.c$606$1$1                  
       0C:  0EF1  XG$usbSleep$0$0                  
       0C:  0EF2  A$usb$2245                       
       0C:  0EF2  C$usb.c$608$1$1                  
       0C:  0EF2  G$usbControlRead$0$0             
       0C:  0EF2  _usbControlRead                  
       0C:  0EF4  A$usb$2246                       
       0C:  0EF6  A$usb$2249                       
       0C:  0EF6  C$usb.c$610$1$1                  
       0C:  0EF9  A$usb$2250                       
       0C:  0EFB  A$usb$2251                       
       0C:  0EFC  A$usb$2254                       
       0C:  0EFC  C$usb.c$611$1$1                  
       0C:  0EFF  A$usb$2255                       
       0C:  0F00  A$usb$2256                       
       0C:  0F01  A$usb$2257                       
       0C:  0F02  A$usb$2258                       
       0C:  0F03  A$usb$2259                       
       0C:  0F04  A$usb$2262                       
       0C:  0F04  C$usb.c$612$1$1                  
       0C:  0F06  A$usb$2263                       
       0C:  0F07  A$usb$2264                       
       0C:  0F08  A$usb$2265                       
       0C:  0F09  A$usb$2266                       
       0C:  0F0A  A$usb$2267                       
       0C:  0F0B  A$usb$2268                       
       0C:  0F0D  A$usb$2269                       
       0C:  0F0E  A$usb$2270                       
       0C:  0F0F  A$usb$2271                       
       0C:  0F10  A$usb$2272                       
       0C:  0F11  A$usb$2273                       
       0C:  0F12  A$usb$2276                       
       0C:  0F12  C$usb.c$613$1$1                  
       0C:  0F12  XG$usbControlRead$0$0            
       0C:  0F13  A$usb$2288                       
       0C:  0F13  C$usb.c$615$1$1                  
       0C:  0F13  G$usbControlWrite$0$0            
       0C:  0F13  _usbControlWrite                 
       0C:  0F15  A$usb$2289                       
       0C:  0F17  A$usb$2292                       
       0C:  0F17  C$usb.c$617$1$1                  
       0C:  0F1A  A$usb$2293                       
       0C:  0F1C  A$usb$2294                       
       0C:  0F1D  A$usb$2297                       
       0C:  0F1D  C$usb.c$618$1$1                  
       0C:  0F20  A$usb$2298                       
       0C:  0F21  A$usb$2299                       
ASxxxx Linker V02.00 + NoICE + sdld,  page 122.
Hexadecimal

Area                               Addr   Size   Decimal Bytes (Attributes)
--------------------------------   ----   ----   ------- ----- ------------
CSEG                               04FD   1484 =   5252. bytes (REL,CON,CODE)

      Value  Global                              Global Defined In Module
      -----  ---------------------------------   ------------------------
       0C:  0F22  A$usb$2300                       
       0C:  0F23  A$usb$2301                       
       0C:  0F24  A$usb$2302                       
       0C:  0F25  A$usb$2305                       
       0C:  0F25  C$usb.c$619$1$1                  
       0C:  0F27  A$usb$2306                       
       0C:  0F28  A$usb$2307                       
       0C:  0F29  A$usb$2308                       
       0C:  0F2A  A$usb$2309                       
       0C:  0F2B  A$usb$2310                       
       0C:  0F2C  A$usb$2311                       
       0C:  0F2E  A$usb$2312                       
       0C:  0F2F  A$usb$2313                       
       0C:  0F30  A$usb$2314                       
       0C:  0F31  A$usb$2315                       
       0C:  0F32  A$usb$2316                       
       0C:  0F33  A$usb$2319                       
       0C:  0F33  C$usb.c$620$1$1                  
       0C:  0F33  XG$usbControlWrite$0$0           
       0C:  0F34  A$usb$2333                       
       0C:  0F34  C$usb.c$622$1$1                  
       0C:  0F34  C$usb.c$624$1$1                  
       0C:  0F34  G$usbControlAcknowledge$0$0      
       0C:  0F34  _usbControlAcknowledge           
       0C:  0F37  A$usb$2334                       
       0C:  0F39  A$usb$2335                       
       0C:  0F3A  A$usb$2338                       
       0C:  0F3A  C$usb.c$625$1$1                  
       0C:  0F3D  A$usb$2339                       
       0C:  0F3E  A$usb$2340                       
       0C:  0F3F  A$usb$2341                       
       0C:  0F40  A$usb$2342                       
       0C:  0F41  A$usb$2345                       
       0C:  0F41  C$usb.c$626$1$1                  
       0C:  0F41  XG$usbControlAcknowledge$0$0     
       0C:  0F42  A$usb$2359                       
       0C:  0F42  C$usb.c$628$1$1                  
       0C:  0F42  C$usb.c$630$1$1                  
       0C:  0F42  G$usbControlStall$0$0            
       0C:  0F42  _usbControlStall                 
       0C:  0F45  A$usb$2360                       
       0C:  0F46  A$usb$2361                       
       0C:  0F47  A$usb$2364                       
       0C:  0F47  C$usb.c$631$1$1                  
       0C:  0F47  XG$usbControlStall$0$0           
       0C:  0F48  A$usb$2376                       
       0C:  0F48  C$usb.c$633$1$1                  
       0C:  0F48  G$usbInitEndpointIn$0$0          
       0C:  0F48  _usbInitEndpointIn               
       0C:  0F4A  A$usb$2377                       
       0C:  0F4D  A$usb$2378                       
ASxxxx Linker V02.00 + NoICE + sdld,  page 123.
Hexadecimal

Area                               Addr   Size   Decimal Bytes (Attributes)
--------------------------------   ----   ----   ------- ----- ------------
CSEG                               04FD   1484 =   5252. bytes (REL,CON,CODE)

      Value  Global                              Global Defined In Module
      -----  ---------------------------------   ------------------------
       0C:  0F4E  A$usb$2381                       
       0C:  0F4E  C$usb.c$636$1$1                  
       0C:  0F50  A$usb$2382                       
       0C:  0F51  A$usb$2383                       
       0C:  0F52  A$usb$2384                       
       0C:  0F54  A$usb$2385                       
       0C:  0F56  A$usb$2386                       
       0C:  0F57  A$usb$2387                       
       0C:  0F58  A$usb$2388                       
       0C:  0F59  A$usb$2389                       
       0C:  0F5A  A$usb$2390                       
       0C:  0F5B  A$usb$2391                       
       0C:  0F5C  A$usb$2392                       
       0C:  0F5D  A$usb$2393                       
       0C:  0F5E  A$usb$2394                       
       0C:  0F5F  A$usb$2395                       
       0C:  0F60  A$usb$2396                       
       0C:  0F62  A$usb$2397                       
       0C:  0F63  A$usb$2398                       
       0C:  0F64  A$usb$2399                       
       0C:  0F66  A$usb$2400                       
       0C:  0F67  A$usb$2401                       
       0C:  0F68  A$usb$2402                       
       0C:  0F69  A$usb$2403                       
       0C:  0F6C  A$usb$2404                       
       0C:  0F6E  A$usb$2406                       
       0C:  0F71  A$usb$2407                       
       0C:  0F72  A$usb$2408                       
       0C:  0F73  A$usb$2411                       
       0C:  0F73  C$usb.c$637$1$1                  
       0C:  0F76  A$usb$2412                       
       0C:  0F78  A$usb$2413                       
       0C:  0F79  A$usb$2416                       
       0C:  0F79  C$usb.c$638$1$1                  
       0C:  0F79  XG$usbInitEndpointIn$0$0         
       0C:  0F7A  A$usb$2428                       
       0C:  0F7A  C$usb.c$640$1$1                  
       0C:  0F7A  G$usbInitEndpointOut$0$0         
       0C:  0F7A  _usbInitEndpointOut              
       0C:  0F7C  A$usb$2429                       
       0C:  0F7F  A$usb$2430                       
       0C:  0F80  A$usb$2433                       
       0C:  0F80  C$usb.c$643$1$1                  
       0C:  0F82  A$usb$2434                       
       0C:  0F83  A$usb$2435                       
       0C:  0F84  A$usb$2436                       
       0C:  0F86  A$usb$2437                       
       0C:  0F88  A$usb$2438                       
       0C:  0F89  A$usb$2439                       
       0C:  0F8A  A$usb$2440                       
       0C:  0F8B  A$usb$2441                       
ASxxxx Linker V02.00 + NoICE + sdld,  page 124.
Hexadecimal

Area                               Addr   Size   Decimal Bytes (Attributes)
--------------------------------   ----   ----   ------- ----- ------------
CSEG                               04FD   1484 =   5252. bytes (REL,CON,CODE)

      Value  Global                              Global Defined In Module
      -----  ---------------------------------   ------------------------
       0C:  0F8C  A$usb$2442                       
       0C:  0F8D  A$usb$2443                       
       0C:  0F8E  A$usb$2444                       
       0C:  0F8F  A$usb$2445                       
       0C:  0F90  A$usb$2446                       
       0C:  0F91  A$usb$2447                       
       0C:  0F92  A$usb$2448                       
       0C:  0F94  A$usb$2449                       
       0C:  0F95  A$usb$2450                       
       0C:  0F96  A$usb$2451                       
       0C:  0F98  A$usb$2452                       
       0C:  0F99  A$usb$2453                       
       0C:  0F9A  A$usb$2454                       
       0C:  0F9B  A$usb$2455                       
       0C:  0F9E  A$usb$2456                       
       0C:  0FA0  A$usb$2458                       
       0C:  0FA3  A$usb$2459                       
       0C:  0FA4  A$usb$2460                       
       0C:  0FA5  A$usb$2463                       
       0C:  0FA5  C$usb.c$644$1$1                  
       0C:  0FA8  A$usb$2464                       
       0C:  0FAA  A$usb$2465                       
       0C:  0FAB  A$usb$2468                       
       0C:  0FAB  C$usb.c$645$1$1                  
       0C:  0FAB  XG$usbInitEndpointOut$0$0        
       0C:  0FAC  A$board$764                      
       0C:  0FAC  C$board.c$29$0$0                 
       0C:  0FAC  C$board.c$31$1$1                 
       0C:  0FAC  G$systemInit$0$0                 
       0C:  0FAC  _systemInit                      
       0C:  0FAF  A$board$767                      
       0C:  0FAF  C$board.c$32$1$1                 
       0C:  0FB2  A$board$770                      
       0C:  0FB2  C$board.c$33$1$1                 
       0C:  0FB5  A$board$775                      
       0C:  0FB5  C$board.c$34$1$1                 
       0C:  0FB5  C$board.c$35$1$1                 
       0C:  0FB5  XG$systemInit$0$0                
       0C:  0FB8  A$board$791                      
       0C:  0FB8  C$board.c$37$1$1                 
       0C:  0FB8  C$board.c$39$1$1                 
       0C:  0FB8  C$board.c$40$1$1                 
       0C:  0FB8  G$boardService$0$0               
       0C:  0FB8  XG$boardService$0$0              
       0C:  0FB8  _boardService                    
       0C:  0FBB  A$board$805                      
       0C:  0FBB  C$board.c$45$1$1                 
       0C:  0FBB  C$board.c$48$1$1                 
       0C:  0FBB  G$boardClockInit$0$0             
       0C:  0FBB  _boardClockInit                  
       0C:  0FBE  A$board$809                      
ASxxxx Linker V02.00 + NoICE + sdld,  page 125.
Hexadecimal

Area                               Addr   Size   Decimal Bytes (Attributes)
--------------------------------   ----   ----   ------- ----- ------------
CSEG                               04FD   1484 =   5252. bytes (REL,CON,CODE)

      Value  Global                              Global Defined In Module
      -----  ---------------------------------   ------------------------
       0C:  0FBE  C$board.c$53$1$1                 
       0C:  0FC0  A$board$810                      
       0C:  0FC3  A$board$813                      
       0C:  0FC3  C$board.c$60$1$1                 
       0C:  0FC6  A$board$816                      
       0C:  0FC6  C$board.c$64$1$1                 
       0C:  0FC9  A$board$819                      
       0C:  0FC9  C$board.c$68$1$1                 
       0C:  0FCC  A$board$822                      
       0C:  0FCC  C$board.c$69$1$1                 
       0C:  0FCC  XG$boardClockInit$0$0            
       0C:  0FCD  A$board$836                      
       0C:  0FCD  C$board.c$71$1$1                 
       0C:  0FCD  C$board.c$73$1$1                 
       0C:  0FCD  G$boardIoInit$0$0                
       0C:  0FCD  _boardIoInit                     
       0C:  0FD0  A$board$839                      
       0C:  0FD0  C$board.c$74$1$1                 
       0C:  0FD3  A$board$842                      
       0C:  0FD3  C$board.c$77$1$1                 
       0C:  0FD6  A$board$845                      
       0C:  0FD6  C$board.c$78$1$1                 
       0C:  0FD6  XG$boardIoInit$0$0               
       0C:  0FD7  A$board$859                      
       0C:  0FD7  C$board.c$84$1$1                 
       0C:  0FD7  C$board.c$87$1$1                 
       0C:  0FD7  Fboard$boardDetectVbus$0$0       
       0C:  0FDA  A$board$860                      
       0C:  0FDC  A$board$861                      
       0C:  0FDE  A$board$862                      
       0C:  0FE0  A$board$863                      
       0C:  0FE1  A$board$864                      
       0C:  0FE3  A$board$865                      
       0C:  0FE4  A$board$866                      
       0C:  0FE5  A$board$867                      
       0C:  0FE6  A$board$868                      
       0C:  0FE7  A$board$869                      
       0C:  0FE8  A$board$870                      
       0C:  0FEA  A$board$871                      
       0C:  0FED  A$board$873                      
       0C:  0FEF  A$board$876                      
       0C:  0FEF  C$board.c$89$2$1                 
       0C:  0FF1  A$board$877                      
       0C:  0FF3  A$board$880                      
       0C:  0FF3  C$board.c$90$2$2                 
       0C:  0FF5  A$board$881                      
       0C:  0FF7  A$board$884                      
       0C:  0FF7  C$board.c$92$3$3                 
       0C:  0FFA  A$board$887                      
       0C:  0FFA  C$board.c$93$3$3                 
       0C:  0FFD  A$board$888                      
ASxxxx Linker V02.00 + NoICE + sdld,  page 126.
Hexadecimal

Area                               Addr   Size   Decimal Bytes (Attributes)
--------------------------------   ----   ----   ------- ----- ------------
CSEG                               04FD   1484 =   5252. bytes (REL,CON,CODE)

      Value  Global                              Global Defined In Module
      -----  ---------------------------------   ------------------------
       0C:  1000  A$board$892                      
       0C:  1000  C$board.c$95$2$2                 
       0C:  1003  A$board$895                      
       0C:  1003  C$board.c$96$2$2                 
       0C:  1006  A$board$898                      
       0C:  1006  C$board.c$97$2$2                 
       0C:  1009  A$board$899                      
       0C:  100C  A$board$902                      
       0C:  100C  C$board.c$99$2$2                 
       0C:  100E  A$board$903                      
       0C:  1010  A$board$906                      
       0C:  1010  C$board.c$101$2$2                
       0C:  1013  A$board$909                      
       0C:  1013  C$board.c$102$2$2                
       0C:  1016  A$board$912                      
       0C:  1016  C$board.c$104$3$4                
       0C:  1019  A$board$916                      
       0C:  1019  C$board.c$107$2$2                
       0C:  101C  A$board$917                      
       0C:  101E  A$board$918                      
       0C:  1020  A$board$919                      
       0C:  1022  A$board$920                      
       0C:  1023  A$board$921                      
       0C:  1025  A$board$922                      
       0C:  1026  A$board$923                      
       0C:  1027  A$board$927                      
       0C:  1027  C$board.c$109$2$1                
       0C:  1027  XFboard$boardDetectVbus$0$0      
       0C:  1028  A$board$941                      
       0C:  1028  C$board.c$111$2$1                
       0C:  1028  C$board.c$113$1$1                
       0C:  1028  G$boardStartBootloader$0$0       
       0C:  1028  _boardStartBootloader            
       0C:  102A  A$board$944                      
       0C:  102A  C$board.c$115$1$1                
       0C:  102D  A$board$947                      
       0C:  102D  C$board.c$117$1$1                
       0C:  1030  A$board$948                      
       0C:  1033  A$board$951                      
       0C:  1033  C$board.c$119$1$1                
       0C:  1036  A$board$954                      
       0C:  1036  C$board.c$120$1$1                
       0C:  1039  A$board$957                      
       0C:  1039  C$board.c$121$1$1                
       0C:  103C  A$board$960                      
       0C:  103C  C$board.c$124$1$1                
       0C:  103F  A$board$961                      
       0C:  1042  A$board$964                      
       0C:  1042  C$board.c$125$1$1                
       0C:  1045  A$board$967                      
       0C:  1045  C$board.c$126$1$1                
ASxxxx Linker V02.00 + NoICE + sdld,  page 127.
Hexadecimal

Area                               Addr   Size   Decimal Bytes (Attributes)
--------------------------------   ----   ----   ------- ----- ------------
CSEG                               04FD   1484 =   5252. bytes (REL,CON,CODE)

      Value  Global                              Global Defined In Module
      -----  ---------------------------------   ------------------------
       0C:  1045  XG$boardStartBootloader$0$0      
       0C:  1046  A$board$981                      
       0C:  1046  C$board.c$128$1$1                
       0C:  1046  C$board.c$130$1$1                
       0C:  1046  G$boardStartBootloaderIfNeeded$0$
       0C:  1046  _boardStartBootloaderIfNeeded    
       0C:  1048  A$board$982                      
       0C:  104B  A$board$985                      
       0C:  104B  C$board.c$132$2$2                
       0C:  104E  A$board$986                      
       0C:  1051  A$board$989                      
       0C:  1051  C$board.c$133$2$2                
       0C:  1054  A$board$994                      
       0C:  1054  C$board.c$135$3$3                
       0C:  1054  C$board.c$138$1$1                
       0C:  1054  XG$boardStartBootloaderIfNeeded$0
       0C:  1057  A$board$996                      
       0C:  1058  A$board$1010                     
       0C:  1058  C$board.c$140$1$1                
       0C:  1058  C$board.c$142$1$1                
       0C:  1058  G$usbPowerPresent$0$0            
       0C:  1058  _usbPowerPresent                 
       0C:  105B  A$board$1013                     
       0C:  105B  C$board.c$143$1$1                
       0C:  105D  A$board$1016                     
       0C:  105D  C$board.c$144$1$1                
       0C:  105D  XG$usbPowerPresent$0$0           
       0C:  105E  A$board$1030                     
       0C:  105E  C$board.c$146$1$1                
       0C:  105E  C$board.c$148$1$1                
       0C:  105E  G$vinPowerPresent$0$0            
       0C:  105E  _vinPowerPresent                 
       0C:  1060  A$board$1033                     
       0C:  1060  C$board.c$149$1$1                
       0C:  1060  XG$vinPowerPresent$0$0           
       0C:  1061  A$board$1047                     
       0C:  1061  C$board.c$151$1$1                
       0C:  1061  C$board.c$153$1$1                
       0C:  1061  G$disableUsbPullup$0$0           
       0C:  1061  _disableUsbPullup                
       0C:  1064  A$board$1050                     
       0C:  1064  C$board.c$154$1$1                
       0C:  1064  XG$disableUsbPullup$0$0          
       0C:  1065  A$board$1064                     
       0C:  1065  C$board.c$156$1$1                
       0C:  1065  C$board.c$158$1$1                
       0C:  1065  G$enableUsbPullup$0$0            
       0C:  1065  _enableUsbPullup                 
       0C:  1067  A$board$1067                     
       0C:  1067  C$board.c$159$1$1                
       0C:  106A  A$board$1070                     
ASxxxx Linker V02.00 + NoICE + sdld,  page 128.
Hexadecimal

Area                               Addr   Size   Decimal Bytes (Attributes)
--------------------------------   ----   ----   ------- ----- ------------
CSEG                               04FD   1484 =   5252. bytes (REL,CON,CODE)

      Value  Global                              Global Defined In Module
      -----  ---------------------------------   ------------------------
       0C:  106A  C$board.c$160$1$1                
       0C:  106A  XG$enableUsbPullup$0$0           
       0C:  107A  _delayMicroseconds               
       0C:  1082  A$adc$737                        
       0C:  1082  C$adc.c$5$0$0                    
       0C:  1082  C$adc.c$8$1$1                    
       0C:  1082  G$adcInit$0$0                    
       0C:  1082  _adcInit                         
       0C:  1084  A$adc$740                        
       0C:  1084  C$adc.c$9$1$1                    
       0C:  1086  A$adc$743                        
       0C:  1086  C$adc.c$12$1$1                   
       0C:  1089  A$adc$746                        
       0C:  1089  C$adc.c$15$1$1                   
       0C:  108B  A$adc$749                        
       0C:  108B  C$adc.c$16$1$1                   
       0C:  108B  XG$adcInit$0$0                   
       0C:  108C  A$adc$762                        
       0C:  108C  C$adc.c$18$1$1                   
       0C:  108C  G$adcRead$0$0                    
       0C:  108C  _adcRead                         
       0C:  108E  A$adc$765                        
       0C:  108E  C$adc.c$28$1$1                   
       0C:  1090  A$adc$768                        
       0C:  1090  C$adc.c$29$1$1                   
       0C:  1092  A$adc$769                        
       0C:  1093  A$adc$770                        
       0C:  1095  A$adc$774                        
       0C:  1095  C$adc.c$30$1$1                   
       0C:  1098  A$adc$777                        
       0C:  1098  C$adc.c$32$1$1                   
       0C:  109A  A$adc$778                        
       0C:  109D  A$adc$781                        
       0C:  109D  C$adc.c$35$2$3                   
       0C:  10A0  A$adc$782                        
       0C:  10A1  A$adc$786                        
       0C:  10A1  C$adc.c$42$2$4                   
       0C:  10A4  A$adc$787                        
       0C:  10A6  A$adc$788                        
       0C:  10A7  A$adc$789                        
       0C:  10A9  A$adc$790                        
       0C:  10AA  A$adc$791                        
       0C:  10AC  A$adc$792                        
       0C:  10AE  A$adc$793                        
       0C:  10B0  A$adc$794                        
       0C:  10B2  A$adc$795                        
       0C:  10B4  A$adc$796                        
       0C:  10B6  A$adc$797                        
       0C:  10B8  A$adc$798                        
       0C:  10BA  A$adc$801                        
       0C:  10BA  C$adc.c$44$1$1                   
ASxxxx Linker V02.00 + NoICE + sdld,  page 129.
Hexadecimal

Area                               Addr   Size   Decimal Bytes (Attributes)
--------------------------------   ----   ----   ------- ----- ------------
CSEG                               04FD   1484 =   5252. bytes (REL,CON,CODE)

      Value  Global                              Global Defined In Module
      -----  ---------------------------------   ------------------------
       0C:  10BA  XG$adcRead$0$0                   
       0C:  10BB  A$dma$740                        
       0C:  10BB  C$dma.c$7$0$0                    
       0C:  10BB  C$dma.c$9$1$1                    
       0C:  10BB  G$dmaInit$0$0                    
       0C:  10BB  _dmaInit                         
       0C:  10BE  A$dma$741                        
       0C:  10C1  A$dma$744                        
       0C:  10C1  C$dma.c$10$1$1                   
       0C:  10C1  XG$dmaInit$0$0                   
       0C:  111B  _vsprintf                        
       0C:  116D  _sprintf                         
       0C:  11C2  A$green_led$754                  
       0C:  11C2  C$green_led.c$13$0$0             
       0C:  11C2  C$green_led.c$15$1$1             
       0C:  11C2  C$green_led.c$18$2$2             
       0C:  11C2  G$usbShowStatusWithGreenLed$0$0  
       0C:  11C2  _usbShowStatusWithGreenLed       
       0C:  11C5  A$green_led$755                  
       0C:  11C7  A$green_led$759                  
       0C:  11C7  C$green_led.c$21$2$2             
       0C:  11CA  A$green_led$760                  
       0C:  11CB  A$green_led$761                  
       0C:  11CC  A$green_led$762                  
       0C:  11CE  A$green_led$763                  
       0C:  11CF  A$green_led$766                  
       0C:  11CF  C$green_led.c$25$2$2             
       0C:  11D2  A$green_led$769                  
       0C:  11D2  C$green_led.c$27$3$3             
       0C:  11D4  A$green_led$772                  
       0C:  11D4  C$green_led.c$28$3$3             
       0C:  11D7  A$green_led$773                  
       0C:  11D8  A$green_led$774                  
       0C:  11D9  A$green_led$775                  
       0C:  11DB  A$green_led$776                  
       0C:  11DC  A$green_led$780                  
       0C:  11DC  C$green_led.c$32$1$1             
       0C:  11DF  A$green_led$781                  
       0C:  11E1  A$green_led$782                  
       0C:  11E4  A$green_led$783                  
       0C:  11E5  A$green_led$784                  
       0C:  11E6  A$green_led$785                  
       0C:  11E8  A$green_led$789                  
       0C:  11E8  C$green_led.c$34$3$5             
       0C:  11EB  A$green_led$790                  
       0C:  11EC  A$green_led$794                  
       0C:  11EC  C$green_led.c$37$1$1             
       0C:  11EF  A$green_led$797                  
       0C:  11EF  C$green_led.c$39$2$6             
       0C:  11F2  A$green_led$800                  
       0C:  11F2  C$green_led.c$41$4$8             
ASxxxx Linker V02.00 + NoICE + sdld,  page 130.
Hexadecimal

Area                               Addr   Size   Decimal Bytes (Attributes)
--------------------------------   ----   ----   ------- ----- ------------
CSEG                               04FD   1484 =   5252. bytes (REL,CON,CODE)

      Value  Global                              Global Defined In Module
      -----  ---------------------------------   ------------------------
       0C:  11F5  A$green_led$801                  
       0C:  11F6  A$green_led$802                  
       0C:  11F7  A$green_led$803                  
       0C:  11F9  A$green_led$804                  
       0C:  11FB  A$green_led$805                  
       0C:  11FC  A$green_led$806                  
       0C:  11FD  A$green_led$807                  
       0C:  11FF  A$green_led$808                  
       0C:  1200  A$green_led$809                  
       0C:  1201  A$green_led$810                  
       0C:  1202  A$green_led$811                  
       0C:  1203  A$green_led$812                  
       0C:  1204  A$green_led$813                  
       0C:  1205  A$green_led$814                  
       0C:  1206  A$green_led$815                  
       0C:  1207  A$green_led$816                  
       0C:  120A  A$green_led$817                  
       0C:  120D  A$green_led$818                  
       0C:  120F  A$green_led$820                  
       0C:  1212  A$green_led$824                  
       0C:  1212  C$green_led.c$43$3$7             
       0C:  1215  A$green_led$825                  
       0C:  1216  A$green_led$826                  
       0C:  1217  A$green_led$827                  
       0C:  1219  A$green_led$828                  
       0C:  121A  A$green_led$829                  
       0C:  121B  A$green_led$830                  
       0C:  121C  A$green_led$831                  
       0C:  121D  A$green_led$832                  
       0C:  121E  A$green_led$833                  
       0C:  1220  A$green_led$834                  
       0C:  1223  A$green_led$836                  
       0C:  1225  A$green_led$839                  
       0C:  1225  C$green_led.c$45$4$9             
       0C:  1227  A$green_led$840                  
       0C:  1228  A$green_led$844                  
       0C:  1228  C$green_led.c$50$4$11            
       0C:  122B  A$green_led$845                  
       0C:  122C  A$green_led$849                  
       0C:  122C  C$green_led.c$57$3$13            
       0C:  122F  A$green_led$850                  
       0C:  1231  A$green_led$851                  
       0C:  1233  A$green_led$852                  
       0C:  1234  A$green_led$853                  
       0C:  1235  A$green_led$854                  
       0C:  1236  A$green_led$855                  
       0C:  1238  A$green_led$856                  
       0C:  1239  A$green_led$857                  
       0C:  123B  A$green_led$858                  
       0C:  123E  A$green_led$859                  
       0C:  123F  A$green_led$861                  
ASxxxx Linker V02.00 + NoICE + sdld,  page 131.
Hexadecimal

Area                               Addr   Size   Decimal Bytes (Attributes)
--------------------------------   ----   ----   ------- ----- ------------
CSEG                               04FD   1484 =   5252. bytes (REL,CON,CODE)

      Value  Global                              Global Defined In Module
      -----  ---------------------------------   ------------------------
       0C:  1242  A$green_led$865                  
       0C:  1242  C$green_led.c$59$1$1             
       0C:  1242  XG$usbShowStatusWithGreenLed$0$0 
       0C:  1309  __print_format                   
       0C:  1930  _strlen                          
       0C:  1948  __gptrget                        
       0C:  1964  __sdcc_external_startup          
       0C:  1968  __gptrput                        

ASxxxx Linker V02.00 + NoICE + sdld,  page 132.
Hexadecimal

Area                               Addr   Size   Decimal Bytes (Attributes)
--------------------------------   ----   ----   ------- ----- ------------
CONST                              1981   00A5 =    165. bytes (REL,CON,CODE)

      Value  Global                              Global Defined In Module
      -----  ---------------------------------   ------------------------
       0C:  1981  Ftest_acc$_str_0$0$0             
       0C:  1987  G$usbDeviceDescriptor$0$0        
       0C:  1987  _usbDeviceDescriptor             
       0C:  1999  G$usbConfigurationDescriptor$0$0 
       0C:  1999  _usbConfigurationDescriptor      
       0C:  19DC  G$usbStringDescriptorCount$0$0   
       0C:  19DC  _usbStringDescriptorCount        
       0C:  19DD  Fusb_cdc_acm$languages$0$0       
       0C:  19E1  Fusb_cdc_acm$manufacturer$0$0    
       0C:  1A07  Fusb_cdc_acm$product$0$0         
       0C:  1A13  G$usbStringDescriptors$0$0       
       0C:  1A13  _usbStringDescriptors            
ASxxxx Linker V02.00 + NoICE + sdld,  page 133.
Hexadecimal

Area                               Addr   Size   Decimal Bytes (Attributes)
--------------------------------   ----   ----   ------- ----- ------------
XINIT                              1A26   0009 =      9. bytes (REL,CON,CODE)

      Value  Global                              Global Defined In Module
      -----  ---------------------------------   ------------------------
       0C:  1A26  Fusb_cdc_acm$__xinit_usbComLineCo
       0C:  1A2D  Fusb$__xinit_usbDeviceState$0$0  
       0C:  1A2E  Fusb$__xinit_controlTransferState

ASxxxx Linker V02.00 + NoICE + sdld,  page 134.

Files Linked                              [ module(s) ]

libraries/xpage/xpage.rel                 [ 
src/test_acc/test_acc.rel                 [ 


Libraries Linked                          [ object file ]

libraries/lib/wixel.lib                   [ time ]
C:\Program Files (x86)\SDCC\bin\..\lib\m  [ crtclear.rel ]
C:\Program Files (x86)\SDCC\bin\..\lib\m  [ crtxinit.rel ]
libraries/lib/usb_cdc_acm.lib             [ usb_cdc_acm ]
libraries/lib/usb.lib                     [ usb ]
libraries/lib/wixel.lib                   [ board ]
libraries/lib/wixel.lib                   [ delay ]
libraries/lib/adc.lib                     [ adc ]
libraries/lib/wixel.lib                   [ fixed ]
C:\Program Files (x86)\SDCC\bin\..\lib\m  [ crtxclear.rel ]
libraries/lib/dma.lib                     [ dma ]
C:\Program Files (x86)\SDCC\bin\..\lib\m  [ sprintf.rel ]
C:\Program Files (x86)\SDCC\bin\..\lib\m  [ crtcall.rel ]
libraries/lib/usb.lib                     [ green_led ]
C:\Program Files (x86)\SDCC\bin\..\lib\m  [ _bp.rel ]
C:\Program Files (x86)\SDCC\bin\..\lib\m  [ /0               ]
C:\Program Files (x86)\SDCC\bin\..\lib\m  [ _strlen.rel ]
C:\Program Files (x86)\SDCC\bin\..\lib\m  [ crtstart.rel ]
C:\Program Files (x86)\SDCC\bin\..\lib\m  [ _gptrget.rel ]
C:\Program Files (x86)\SDCC\bin\..\lib\m  [ _startup.rel ]
C:\Program Files (x86)\SDCC\bin\..\lib\m  [ _gptrput.rel ]

ASxxxx Linker V02.00 + NoICE + sdld,  page 135.

User Base Address Definitions

HOME = 0x0400
XSEG = 0xf000
PSEG = 0xf000
ISEG = 0x0000
BSEG = 0x0000

