ASxxxx Linker V02.00 + NoICE + sdld,  page 1.
Hexadecimal

Area                               Addr   Size   Decimal Bytes (Attributes)
--------------------------------   ----   ----   ------- ----- ------------
CABS                               0000   0000 =      0. bytes (ABS,CON,CODE)

      Value  Global                              Global Defined In Module
      -----  ---------------------------------   ------------------------
       0C:  0000  l_CABS                           
       0C:  0000  l_GSINIT1                        
       0C:  0000  l_GSINIT5                        
       0C:  0000  l_IABS                           
       0C:  0000  l_ISEG                           
       0C:  0000  l_OSEG                           
       0C:  0000  l_RSEG                           
       0C:  0000  l_RSEG0                          
       0C:  0000  l_RSEG1                          
       0C:  0000  l_XABS                           
       0C:  0000  l__CODE                          
       0C:  0000  s_BSEG                           
       0C:  0000  s_CABS                           
       0C:  0000  s_DSEG                           
       0C:  0000  s_IABS                           
       0C:  0000  s_ISEG                           
       0C:  0000  s_REG_BANK_0                     
       0C:  0000  s_RSEG                           
       0C:  0000  s_RSEG0                          
       0C:  0000  s_RSEG1                          
       0C:  0000  s_XABS                           
       0C:  0001  l_BIT_BANK                       
       0C:  0003  l_BSEG_BYTES                     
       0C:  0003  l_GSFINAL                        
       0C:  0003  l_GSINIT0                        
       0C:  0008  l_REG_BANK_0                     
       0C:  0008  l_REG_BANK_1                     
       0C:  0008  l_REG_BANK_2                     
       0C:  0008  l_REG_BANK_3                     
       0C:  0008  s_REG_BANK_1                     
       0C:  0009  l_XINIT                          
       0C:  0009  l_XISEG                          
       0C:  000A  l_GSINIT2                        
       0C:  0010  s_REG_BANK_2                     
       0C:  0014  l_BSEG                           
       0C:  0018  s_REG_BANK_3                     
       0C:  001F  l_PSEG                           
       0C:  0020  s_BSEG_BYTES                     
       0C:  0020  s__CODE                          
       0C:  0022  l_GSINIT3                        
       0C:  0023  s_BIT_BANK                       
       0C:  0023  s_OSEG                           
       0C:  002A  l_GSINIT4                        
       0C:  0030  s_SSEG                           
       0C:  0034  l_GSINIT                         
       0C:  0080  l_DSEG                           
       0C:  008D  l_HOME                           
       0C:  009B  l_CONST                          
       0C:  00D0  l_SSEG                           
       0C:  0100  l_IRAM                           
ASxxxx Linker V02.00 + NoICE + sdld,  page 2.
Hexadecimal

Area                               Addr   Size   Decimal Bytes (Attributes)
--------------------------------   ----   ----   ------- ----- ------------
CABS                               0000   0000 =      0. bytes (ABS,CON,CODE)

      Value  Global                              Global Defined In Module
      -----  ---------------------------------   ------------------------
       0C:  0400  s_HOME                           
       0C:  048D  s_GSINIT0                        
       0C:  0490  s_GSINIT1                        
       0C:  0490  s_GSINIT2                        
       0C:  049A  s_GSINIT3                        
       0C:  04BC  s_GSINIT4                        
       0C:  04E6  s_GSINIT                         
       0C:  04E6  s_GSINIT5                        
       0C:  051A  s_GSFINAL                        
       0C:  051D  s_CSEG                           
       0C:  0C37  l_XSEG                           
       0C:  157D  l_CSEG                           
       0C:  1A9A  s_CONST                          
       0C:  1B35  s_XINIT                          
       0C:  F000  s_PSEG                           
       0C:  F000  s_XSEG                           
       0C:  FC56  s_XISEG                          

ASxxxx Linker V02.00 + NoICE + sdld,  page 3.
Hexadecimal

Area                               Addr   Size   Decimal Bytes (Attributes)
--------------------------------   ----   ----   ------- ----- ------------
XABS                               0000   0000 =      0. bytes (ABS,CON,XDATA)

      Value  Global                              Global Defined In Module
      -----  ---------------------------------   ------------------------
ASxxxx Linker V02.00 + NoICE + sdld,  page 4.
Hexadecimal

Area                               Addr   Size   Decimal Bytes (Attributes)
--------------------------------   ----   ----   ------- ----- ------------
IABS                               0000   0000 =      0. bytes (ABS,CON)

      Value  Global                              Global Defined In Module
      -----  ---------------------------------   ------------------------
ASxxxx Linker V02.00 + NoICE + sdld,  page 5.
Hexadecimal

Area                               Addr   Size   Decimal Bytes (Attributes)
--------------------------------   ----   ----   ------- ----- ------------
RSEG1                              0000   0000 =      0. bytes (ABS,CON)

      Value  Global                              Global Defined In Module
      -----  ---------------------------------   ------------------------
ASxxxx Linker V02.00 + NoICE + sdld,  page 6.
Hexadecimal

Area                               Addr   Size   Decimal Bytes (Attributes)
--------------------------------   ----   ----   ------- ----- ------------
RSEG0                              0000   0000 =      0. bytes (ABS,CON)

      Value  Global                              Global Defined In Module
      -----  ---------------------------------   ------------------------
ASxxxx Linker V02.00 + NoICE + sdld,  page 7.
Hexadecimal

Area                               Addr   Size   Decimal Bytes (Attributes)
--------------------------------   ----   ----   ------- ----- ------------
RSEG                               0000   0000 =      0. bytes (ABS,CON)

      Value  Global                              Global Defined In Module
      -----  ---------------------------------   ------------------------
ASxxxx Linker V02.00 + NoICE + sdld,  page 8.
Hexadecimal

Area                               Addr   Size   Decimal Bytes (Attributes)
--------------------------------   ----   ----   ------- ----- ------------
.	.ABS.                            0000   0000 =      0. bytes (ABS,CON)

      Value  Global                              Global Defined In Module
      -----  ---------------------------------   ------------------------
            FFFFADAC  Fadc$FADDR$0$0                   
            FFFFADAC  Fboard$FADDR$0$0                 
            FFFFADAC  Fdma$FADDR$0$0                   
            FFFFADAC  Fgpio$FADDR$0$0                  
            FFFFADAC  Fgreen_led$FADDR$0$0             
            FFFFADAC  Ftime$FADDR$0$0                  
            FFFFADAC  Fusb$FADDR$0$0                   
            FFFFADAC  Fusb_cdc_acm$FADDR$0$0           
            FFFFADAC  Fvibes_lab_radio_protocol$FADDR$0
            FFFFADAC  Fvibes_lab_tx_5_0$FADDR$0$0      
            FFFFBBBA  Fadc$ADC$0$0                     
            FFFFBBBA  Fboard$ADC$0$0                   
            FFFFBBBA  Fdma$ADC$0$0                     
            FFFFBBBA  Fgpio$ADC$0$0                    
            FFFFBBBA  Fgreen_led$ADC$0$0               
            FFFFBBBA  Ftime$ADC$0$0                    
            FFFFBBBA  Fusb$ADC$0$0                     
            FFFFBBBA  Fusb_cdc_acm$ADC$0$0             
            FFFFBBBA  Fvibes_lab_radio_protocol$ADC$0$0
            FFFFBBBA  Fvibes_lab_tx_5_0$ADC$0$0        
            FFFFD3D2  Fadc$DMA1CFG$0$0                 
            FFFFD3D2  Fboard$DMA1CFG$0$0               
            FFFFD3D2  Fdma$DMA1CFG$0$0                 
            FFFFD3D2  Fgpio$DMA1CFG$0$0                
            FFFFD3D2  Fgreen_led$DMA1CFG$0$0           
            FFFFD3D2  Ftime$DMA1CFG$0$0                
            FFFFD3D2  Fusb$DMA1CFG$0$0                 
            FFFFD3D2  Fusb_cdc_acm$DMA1CFG$0$0         
            FFFFD3D2  Fvibes_lab_radio_protocol$DMA1CFG
            FFFFD3D2  Fvibes_lab_tx_5_0$DMA1CFG$0$0    
            FFFFD5D4  Fadc$DMA0CFG$0$0                 
            FFFFD5D4  Fboard$DMA0CFG$0$0               
            FFFFD5D4  Fdma$DMA0CFG$0$0                 
            FFFFD5D4  Fgpio$DMA0CFG$0$0                
            FFFFD5D4  Fgreen_led$DMA0CFG$0$0           
            FFFFD5D4  Ftime$DMA0CFG$0$0                
            FFFFD5D4  Fusb$DMA0CFG$0$0                 
            FFFFD5D4  Fusb_cdc_acm$DMA0CFG$0$0         
            FFFFD5D4  Fvibes_lab_radio_protocol$DMA0CFG
            FFFFD5D4  Fvibes_lab_tx_5_0$DMA0CFG$0$0    
            0000  .__.ABS.                         
            0080  Fadc$P0$0$0                      
            0080  Fadc$P0_0$0$0                    
            0080  Fboard$P0$0$0                    
            0080  Fboard$P0_0$0$0                  
            0080  Fdma$P0$0$0                      
            0080  Fdma$P0_0$0$0                    
            0080  Fgpio$P0$0$0                     
            0080  Fgpio$P0_0$0$0                   
            0080  Fgreen_led$P0$0$0                
ASxxxx Linker V02.00 + NoICE + sdld,  page 9.
Hexadecimal

Area                               Addr   Size   Decimal Bytes (Attributes)
--------------------------------   ----   ----   ------- ----- ------------
.	.ABS.                            0000   0000 =      0. bytes (ABS,CON)

      Value  Global                              Global Defined In Module
      -----  ---------------------------------   ------------------------
            0080  Fgreen_led$P0_0$0$0              
            0080  Ftime$P0$0$0                     
            0080  Ftime$P0_0$0$0                   
            0080  Fusb$P0$0$0                      
            0080  Fusb$P0_0$0$0                    
            0080  Fusb_cdc_acm$P0$0$0              
            0080  Fusb_cdc_acm$P0_0$0$0            
            0080  Fvibes_lab_radio_protocol$P0$0$0 
            0080  Fvibes_lab_radio_protocol$P0_0$0$
            0080  Fvibes_lab_tx_5_0$P0$0$0         
            0080  Fvibes_lab_tx_5_0$P0_0$0$0       
            0081  Fadc$P0_1$0$0                    
            0081  Fadc$SP$0$0                      
            0081  Fboard$P0_1$0$0                  
            0081  Fboard$SP$0$0                    
            0081  Fdma$P0_1$0$0                    
            0081  Fdma$SP$0$0                      
            0081  Fgpio$P0_1$0$0                   
            0081  Fgpio$SP$0$0                     
            0081  Fgreen_led$P0_1$0$0              
            0081  Fgreen_led$SP$0$0                
            0081  Ftime$P0_1$0$0                   
            0081  Ftime$SP$0$0                     
            0081  Fusb$P0_1$0$0                    
            0081  Fusb$SP$0$0                      
            0081  Fusb_cdc_acm$P0_1$0$0            
            0081  Fusb_cdc_acm$SP$0$0              
            0081  Fvibes_lab_radio_protocol$P0_1$0$
            0081  Fvibes_lab_radio_protocol$SP$0$0 
            0081  Fvibes_lab_tx_5_0$P0_1$0$0       
            0081  Fvibes_lab_tx_5_0$SP$0$0         
            0082  Fadc$DPL0$0$0                    
            0082  Fadc$P0_2$0$0                    
            0082  Fboard$DPL0$0$0                  
            0082  Fboard$P0_2$0$0                  
            0082  Fdma$DPL0$0$0                    
            0082  Fdma$P0_2$0$0                    
            0082  Fgpio$DPL0$0$0                   
            0082  Fgpio$P0_2$0$0                   
            0082  Fgreen_led$DPL0$0$0              
            0082  Fgreen_led$P0_2$0$0              
            0082  Ftime$DPL0$0$0                   
            0082  Ftime$P0_2$0$0                   
            0082  Fusb$DPL0$0$0                    
            0082  Fusb$P0_2$0$0                    
            0082  Fusb_cdc_acm$DPL0$0$0            
            0082  Fusb_cdc_acm$P0_2$0$0            
            0082  Fvibes_lab_radio_protocol$DPL0$0$
            0082  Fvibes_lab_radio_protocol$P0_2$0$
            0082  Fvibes_lab_tx_5_0$DPL0$0$0       
            0082  Fvibes_lab_tx_5_0$P0_2$0$0       
ASxxxx Linker V02.00 + NoICE + sdld,  page 10.
Hexadecimal

Area                               Addr   Size   Decimal Bytes (Attributes)
--------------------------------   ----   ----   ------- ----- ------------
.	.ABS.                            0000   0000 =      0. bytes (ABS,CON)

      Value  Global                              Global Defined In Module
      -----  ---------------------------------   ------------------------
            0083  Fadc$DPH0$0$0                    
            0083  Fadc$P0_3$0$0                    
            0083  Fboard$DPH0$0$0                  
            0083  Fboard$P0_3$0$0                  
            0083  Fdma$DPH0$0$0                    
            0083  Fdma$P0_3$0$0                    
            0083  Fgpio$DPH0$0$0                   
            0083  Fgpio$P0_3$0$0                   
            0083  Fgreen_led$DPH0$0$0              
            0083  Fgreen_led$P0_3$0$0              
            0083  Ftime$DPH0$0$0                   
            0083  Ftime$P0_3$0$0                   
            0083  Fusb$DPH0$0$0                    
            0083  Fusb$P0_3$0$0                    
            0083  Fusb_cdc_acm$DPH0$0$0            
            0083  Fusb_cdc_acm$P0_3$0$0            
            0083  Fvibes_lab_radio_protocol$DPH0$0$
            0083  Fvibes_lab_radio_protocol$P0_3$0$
            0083  Fvibes_lab_tx_5_0$DPH0$0$0       
            0083  Fvibes_lab_tx_5_0$P0_3$0$0       
            0084  Fadc$DPL1$0$0                    
            0084  Fadc$P0_4$0$0                    
            0084  Fboard$DPL1$0$0                  
            0084  Fboard$P0_4$0$0                  
            0084  Fdma$DPL1$0$0                    
            0084  Fdma$P0_4$0$0                    
            0084  Fgpio$DPL1$0$0                   
            0084  Fgpio$P0_4$0$0                   
            0084  Fgreen_led$DPL1$0$0              
            0084  Fgreen_led$P0_4$0$0              
            0084  Ftime$DPL1$0$0                   
            0084  Ftime$P0_4$0$0                   
            0084  Fusb$DPL1$0$0                    
            0084  Fusb$P0_4$0$0                    
            0084  Fusb_cdc_acm$DPL1$0$0            
            0084  Fusb_cdc_acm$P0_4$0$0            
            0084  Fvibes_lab_radio_protocol$DPL1$0$
            0084  Fvibes_lab_radio_protocol$P0_4$0$
            0084  Fvibes_lab_tx_5_0$DPL1$0$0       
            0084  Fvibes_lab_tx_5_0$P0_4$0$0       
            0085  Fadc$DPH1$0$0                    
            0085  Fadc$P0_5$0$0                    
            0085  Fboard$DPH1$0$0                  
            0085  Fboard$P0_5$0$0                  
            0085  Fdma$DPH1$0$0                    
            0085  Fdma$P0_5$0$0                    
            0085  Fgpio$DPH1$0$0                   
            0085  Fgpio$P0_5$0$0                   
            0085  Fgreen_led$DPH1$0$0              
            0085  Fgreen_led$P0_5$0$0              
            0085  Ftime$DPH1$0$0                   
ASxxxx Linker V02.00 + NoICE + sdld,  page 11.
Hexadecimal

Area                               Addr   Size   Decimal Bytes (Attributes)
--------------------------------   ----   ----   ------- ----- ------------
.	.ABS.                            0000   0000 =      0. bytes (ABS,CON)

      Value  Global                              Global Defined In Module
      -----  ---------------------------------   ------------------------
            0085  Ftime$P0_5$0$0                   
            0085  Fusb$DPH1$0$0                    
            0085  Fusb$P0_5$0$0                    
            0085  Fusb_cdc_acm$DPH1$0$0            
            0085  Fusb_cdc_acm$P0_5$0$0            
            0085  Fvibes_lab_radio_protocol$DPH1$0$
            0085  Fvibes_lab_radio_protocol$P0_5$0$
            0085  Fvibes_lab_tx_5_0$DPH1$0$0       
            0085  Fvibes_lab_tx_5_0$P0_5$0$0       
            0086  Fadc$P0_6$0$0                    
            0086  Fadc$U0CSR$0$0                   
            0086  Fboard$P0_6$0$0                  
            0086  Fboard$U0CSR$0$0                 
            0086  Fdma$P0_6$0$0                    
            0086  Fdma$U0CSR$0$0                   
            0086  Fgpio$P0_6$0$0                   
            0086  Fgpio$U0CSR$0$0                  
            0086  Fgreen_led$P0_6$0$0              
            0086  Fgreen_led$U0CSR$0$0             
            0086  Ftime$P0_6$0$0                   
            0086  Ftime$U0CSR$0$0                  
            0086  Fusb$P0_6$0$0                    
            0086  Fusb$U0CSR$0$0                   
            0086  Fusb_cdc_acm$P0_6$0$0            
            0086  Fusb_cdc_acm$U0CSR$0$0           
            0086  Fvibes_lab_radio_protocol$P0_6$0$
            0086  Fvibes_lab_radio_protocol$U0CSR$0
            0086  Fvibes_lab_tx_5_0$P0_6$0$0       
            0086  Fvibes_lab_tx_5_0$U0CSR$0$0      
            0087  Fadc$P0_7$0$0                    
            0087  Fadc$PCON$0$0                    
            0087  Fboard$P0_7$0$0                  
            0087  Fboard$PCON$0$0                  
            0087  Fdma$P0_7$0$0                    
            0087  Fdma$PCON$0$0                    
            0087  Fgpio$P0_7$0$0                   
            0087  Fgpio$PCON$0$0                   
            0087  Fgreen_led$P0_7$0$0              
            0087  Fgreen_led$PCON$0$0              
            0087  Ftime$P0_7$0$0                   
            0087  Ftime$PCON$0$0                   
            0087  Fusb$P0_7$0$0                    
            0087  Fusb$PCON$0$0                    
            0087  Fusb_cdc_acm$P0_7$0$0            
            0087  Fusb_cdc_acm$PCON$0$0            
            0087  Fvibes_lab_radio_protocol$P0_7$0$
            0087  Fvibes_lab_radio_protocol$PCON$0$
            0087  Fvibes_lab_tx_5_0$P0_7$0$0       
            0087  Fvibes_lab_tx_5_0$PCON$0$0       
            0088  Fadc$TCON$0$0                    
            0088  Fadc$_TCON_0$0$0                 
ASxxxx Linker V02.00 + NoICE + sdld,  page 12.
Hexadecimal

Area                               Addr   Size   Decimal Bytes (Attributes)
--------------------------------   ----   ----   ------- ----- ------------
.	.ABS.                            0000   0000 =      0. bytes (ABS,CON)

      Value  Global                              Global Defined In Module
      -----  ---------------------------------   ------------------------
            0088  Fboard$TCON$0$0                  
            0088  Fboard$_TCON_0$0$0               
            0088  Fdma$TCON$0$0                    
            0088  Fdma$_TCON_0$0$0                 
            0088  Fgpio$TCON$0$0                   
            0088  Fgpio$_TCON_0$0$0                
            0088  Fgreen_led$TCON$0$0              
            0088  Fgreen_led$_TCON_0$0$0           
            0088  Ftime$TCON$0$0                   
            0088  Ftime$_TCON_0$0$0                
            0088  Fusb$TCON$0$0                    
            0088  Fusb$_TCON_0$0$0                 
            0088  Fusb_cdc_acm$TCON$0$0            
            0088  Fusb_cdc_acm$_TCON_0$0$0         
            0088  Fvibes_lab_radio_protocol$TCON$0$
            0088  Fvibes_lab_radio_protocol$_TCON_0
            0088  Fvibes_lab_tx_5_0$TCON$0$0       
            0088  Fvibes_lab_tx_5_0$_TCON_0$0$0    
            0089  Fadc$P0IFG$0$0                   
            0089  Fadc$RFTXRXIF$0$0                
            0089  Fboard$P0IFG$0$0                 
            0089  Fboard$RFTXRXIF$0$0              
            0089  Fdma$P0IFG$0$0                   
            0089  Fdma$RFTXRXIF$0$0                
            0089  Fgpio$P0IFG$0$0                  
            0089  Fgpio$RFTXRXIF$0$0               
            0089  Fgreen_led$P0IFG$0$0             
            0089  Fgreen_led$RFTXRXIF$0$0          
            0089  Ftime$P0IFG$0$0                  
            0089  Ftime$RFTXRXIF$0$0               
            0089  Fusb$P0IFG$0$0                   
            0089  Fusb$RFTXRXIF$0$0                
            0089  Fusb_cdc_acm$P0IFG$0$0           
            0089  Fusb_cdc_acm$RFTXRXIF$0$0        
            0089  Fvibes_lab_radio_protocol$P0IFG$0
            0089  Fvibes_lab_radio_protocol$RFTXRXI
            0089  Fvibes_lab_tx_5_0$P0IFG$0$0      
            0089  Fvibes_lab_tx_5_0$RFTXRXIF$0$0   
            008A  Fadc$P1IFG$0$0                   
            008A  Fadc$_TCON_2$0$0                 
            008A  Fboard$P1IFG$0$0                 
            008A  Fboard$_TCON_2$0$0               
            008A  Fdma$P1IFG$0$0                   
            008A  Fdma$_TCON_2$0$0                 
            008A  Fgpio$P1IFG$0$0                  
            008A  Fgpio$_TCON_2$0$0                
            008A  Fgreen_led$P1IFG$0$0             
            008A  Fgreen_led$_TCON_2$0$0           
            008A  Ftime$P1IFG$0$0                  
            008A  Ftime$_TCON_2$0$0                
            008A  Fusb$P1IFG$0$0                   
ASxxxx Linker V02.00 + NoICE + sdld,  page 13.
Hexadecimal

Area                               Addr   Size   Decimal Bytes (Attributes)
--------------------------------   ----   ----   ------- ----- ------------
.	.ABS.                            0000   0000 =      0. bytes (ABS,CON)

      Value  Global                              Global Defined In Module
      -----  ---------------------------------   ------------------------
            008A  Fusb$_TCON_2$0$0                 
            008A  Fusb_cdc_acm$P1IFG$0$0           
            008A  Fusb_cdc_acm$_TCON_2$0$0         
            008A  Fvibes_lab_radio_protocol$P1IFG$0
            008A  Fvibes_lab_radio_protocol$_TCON_2
            008A  Fvibes_lab_tx_5_0$P1IFG$0$0      
            008A  Fvibes_lab_tx_5_0$_TCON_2$0$0    
            008B  Fadc$P2IFG$0$0                   
            008B  Fadc$URX0IF$0$0                  
            008B  Fboard$P2IFG$0$0                 
            008B  Fboard$URX0IF$0$0                
            008B  Fdma$P2IFG$0$0                   
            008B  Fdma$URX0IF$0$0                  
            008B  Fgpio$P2IFG$0$0                  
            008B  Fgpio$URX0IF$0$0                 
            008B  Fgreen_led$P2IFG$0$0             
            008B  Fgreen_led$URX0IF$0$0            
            008B  Ftime$P2IFG$0$0                  
            008B  Ftime$URX0IF$0$0                 
            008B  Fusb$P2IFG$0$0                   
            008B  Fusb$URX0IF$0$0                  
            008B  Fusb_cdc_acm$P2IFG$0$0           
            008B  Fusb_cdc_acm$URX0IF$0$0          
            008B  Fvibes_lab_radio_protocol$P2IFG$0
            008B  Fvibes_lab_radio_protocol$URX0IF$
            008B  Fvibes_lab_tx_5_0$P2IFG$0$0      
            008B  Fvibes_lab_tx_5_0$URX0IF$0$0     
            008C  Fadc$PICTL$0$0                   
            008C  Fadc$_TCON_4$0$0                 
            008C  Fboard$PICTL$0$0                 
            008C  Fboard$_TCON_4$0$0               
            008C  Fdma$PICTL$0$0                   
            008C  Fdma$_TCON_4$0$0                 
            008C  Fgpio$PICTL$0$0                  
            008C  Fgpio$_TCON_4$0$0                
            008C  Fgreen_led$PICTL$0$0             
            008C  Fgreen_led$_TCON_4$0$0           
            008C  Ftime$PICTL$0$0                  
            008C  Ftime$_TCON_4$0$0                
            008C  Fusb$PICTL$0$0                   
            008C  Fusb$_TCON_4$0$0                 
            008C  Fusb_cdc_acm$PICTL$0$0           
            008C  Fusb_cdc_acm$_TCON_4$0$0         
            008C  Fvibes_lab_radio_protocol$PICTL$0
            008C  Fvibes_lab_radio_protocol$_TCON_4
            008C  Fvibes_lab_tx_5_0$PICTL$0$0      
            008C  Fvibes_lab_tx_5_0$_TCON_4$0$0    
            008D  Fadc$ADCIF$0$0                   
            008D  Fadc$P1IEN$0$0                   
            008D  Fboard$ADCIF$0$0                 
            008D  Fboard$P1IEN$0$0                 
ASxxxx Linker V02.00 + NoICE + sdld,  page 14.
Hexadecimal

Area                               Addr   Size   Decimal Bytes (Attributes)
--------------------------------   ----   ----   ------- ----- ------------
.	.ABS.                            0000   0000 =      0. bytes (ABS,CON)

      Value  Global                              Global Defined In Module
      -----  ---------------------------------   ------------------------
            008D  Fdma$ADCIF$0$0                   
            008D  Fdma$P1IEN$0$0                   
            008D  Fgpio$ADCIF$0$0                  
            008D  Fgpio$P1IEN$0$0                  
            008D  Fgreen_led$ADCIF$0$0             
            008D  Fgreen_led$P1IEN$0$0             
            008D  Ftime$ADCIF$0$0                  
            008D  Ftime$P1IEN$0$0                  
            008D  Fusb$ADCIF$0$0                   
            008D  Fusb$P1IEN$0$0                   
            008D  Fusb_cdc_acm$ADCIF$0$0           
            008D  Fusb_cdc_acm$P1IEN$0$0           
            008D  Fvibes_lab_radio_protocol$ADCIF$0
            008D  Fvibes_lab_radio_protocol$P1IEN$0
            008D  Fvibes_lab_tx_5_0$ADCIF$0$0      
            008D  Fvibes_lab_tx_5_0$P1IEN$0$0      
            008E  Fadc$_TCON_6$0$0                 
            008E  Fboard$_TCON_6$0$0               
            008E  Fdma$_TCON_6$0$0                 
            008E  Fgpio$_TCON_6$0$0                
            008E  Fgreen_led$_TCON_6$0$0           
            008E  Ftime$_TCON_6$0$0                
            008E  Fusb$_TCON_6$0$0                 
            008E  Fusb_cdc_acm$_TCON_6$0$0         
            008E  Fvibes_lab_radio_protocol$_TCON_6
            008E  Fvibes_lab_tx_5_0$_TCON_6$0$0    
            008F  Fadc$P0INP$0$0                   
            008F  Fadc$URX1IF$0$0                  
            008F  Fboard$P0INP$0$0                 
            008F  Fboard$URX1IF$0$0                
            008F  Fdma$P0INP$0$0                   
            008F  Fdma$URX1IF$0$0                  
            008F  Fgpio$P0INP$0$0                  
            008F  Fgpio$URX1IF$0$0                 
            008F  Fgreen_led$P0INP$0$0             
            008F  Fgreen_led$URX1IF$0$0            
            008F  Ftime$P0INP$0$0                  
            008F  Ftime$URX1IF$0$0                 
            008F  Fusb$P0INP$0$0                   
            008F  Fusb$URX1IF$0$0                  
            008F  Fusb_cdc_acm$P0INP$0$0           
            008F  Fusb_cdc_acm$URX1IF$0$0          
            008F  Fvibes_lab_radio_protocol$P0INP$0
            008F  Fvibes_lab_radio_protocol$URX1IF$
            008F  Fvibes_lab_tx_5_0$P0INP$0$0      
            008F  Fvibes_lab_tx_5_0$URX1IF$0$0     
            0090  Fadc$P1$0$0                      
            0090  Fadc$P1_0$0$0                    
            0090  Fboard$P1$0$0                    
            0090  Fboard$P1_0$0$0                  
            0090  Fdma$P1$0$0                      
ASxxxx Linker V02.00 + NoICE + sdld,  page 15.
Hexadecimal

Area                               Addr   Size   Decimal Bytes (Attributes)
--------------------------------   ----   ----   ------- ----- ------------
.	.ABS.                            0000   0000 =      0. bytes (ABS,CON)

      Value  Global                              Global Defined In Module
      -----  ---------------------------------   ------------------------
            0090  Fdma$P1_0$0$0                    
            0090  Fgpio$P1$0$0                     
            0090  Fgpio$P1_0$0$0                   
            0090  Fgreen_led$P1$0$0                
            0090  Fgreen_led$P1_0$0$0              
            0090  Ftime$P1$0$0                     
            0090  Ftime$P1_0$0$0                   
            0090  Fusb$P1$0$0                      
            0090  Fusb$P1_0$0$0                    
            0090  Fusb_cdc_acm$P1$0$0              
            0090  Fusb_cdc_acm$P1_0$0$0            
            0090  Fvibes_lab_radio_protocol$P1$0$0 
            0090  Fvibes_lab_radio_protocol$P1_0$0$
            0090  Fvibes_lab_tx_5_0$P1$0$0         
            0090  Fvibes_lab_tx_5_0$P1_0$0$0       
            0091  Fadc$P1_1$0$0                    
            0091  Fadc$RFIM$0$0                    
            0091  Fboard$P1_1$0$0                  
            0091  Fboard$RFIM$0$0                  
            0091  Fdma$P1_1$0$0                    
            0091  Fdma$RFIM$0$0                    
            0091  Fgpio$P1_1$0$0                   
            0091  Fgpio$RFIM$0$0                   
            0091  Fgreen_led$P1_1$0$0              
            0091  Fgreen_led$RFIM$0$0              
            0091  Ftime$P1_1$0$0                   
            0091  Ftime$RFIM$0$0                   
            0091  Fusb$P1_1$0$0                    
            0091  Fusb$RFIM$0$0                    
            0091  Fusb_cdc_acm$P1_1$0$0            
            0091  Fusb_cdc_acm$RFIM$0$0            
            0091  Fvibes_lab_radio_protocol$P1_1$0$
            0091  Fvibes_lab_radio_protocol$RFIM$0$
            0091  Fvibes_lab_tx_5_0$P1_1$0$0       
            0091  Fvibes_lab_tx_5_0$RFIM$0$0       
            0092  Fadc$DPS$0$0                     
            0092  Fadc$P1_2$0$0                    
            0092  Fboard$DPS$0$0                   
            0092  Fboard$P1_2$0$0                  
            0092  Fdma$DPS$0$0                     
            0092  Fdma$P1_2$0$0                    
            0092  Fgpio$DPS$0$0                    
            0092  Fgpio$P1_2$0$0                   
            0092  Fgreen_led$DPS$0$0               
            0092  Fgreen_led$P1_2$0$0              
            0092  Ftime$DPS$0$0                    
            0092  Ftime$P1_2$0$0                   
            0092  Fusb$DPS$0$0                     
            0092  Fusb$P1_2$0$0                    
            0092  Fusb_cdc_acm$DPS$0$0             
            0092  Fusb_cdc_acm$P1_2$0$0            
ASxxxx Linker V02.00 + NoICE + sdld,  page 16.
Hexadecimal

Area                               Addr   Size   Decimal Bytes (Attributes)
--------------------------------   ----   ----   ------- ----- ------------
.	.ABS.                            0000   0000 =      0. bytes (ABS,CON)

      Value  Global                              Global Defined In Module
      -----  ---------------------------------   ------------------------
            0092  Fvibes_lab_radio_protocol$DPS$0$0
            0092  Fvibes_lab_radio_protocol$P1_2$0$
            0092  Fvibes_lab_tx_5_0$DPS$0$0        
            0092  Fvibes_lab_tx_5_0$P1_2$0$0       
            0093  Fadc$MPAGE$0$0                   
            0093  Fadc$P1_3$0$0                    
            0093  Fboard$MPAGE$0$0                 
            0093  Fboard$P1_3$0$0                  
            0093  Fdma$MPAGE$0$0                   
            0093  Fdma$P1_3$0$0                    
            0093  Fgpio$MPAGE$0$0                  
            0093  Fgpio$P1_3$0$0                   
            0093  Fgreen_led$MPAGE$0$0             
            0093  Fgreen_led$P1_3$0$0              
            0093  Ftime$MPAGE$0$0                  
            0093  Ftime$P1_3$0$0                   
            0093  Fusb$MPAGE$0$0                   
            0093  Fusb$P1_3$0$0                    
            0093  Fusb_cdc_acm$MPAGE$0$0           
            0093  Fusb_cdc_acm$P1_3$0$0            
            0093  Fvibes_lab_radio_protocol$MPAGE$0
            0093  Fvibes_lab_radio_protocol$P1_3$0$
            0093  Fvibes_lab_tx_5_0$MPAGE$0$0      
            0093  Fvibes_lab_tx_5_0$P1_3$0$0       
            0093  __XPAGE                          
            0094  Fadc$P1_4$0$0                    
            0094  Fboard$P1_4$0$0                  
            0094  Fdma$P1_4$0$0                    
            0094  Fgpio$P1_4$0$0                   
            0094  Fgreen_led$P1_4$0$0              
            0094  Ftime$P1_4$0$0                   
            0094  Fusb$P1_4$0$0                    
            0094  Fusb_cdc_acm$P1_4$0$0            
            0094  Fvibes_lab_radio_protocol$P1_4$0$
            0094  Fvibes_lab_tx_5_0$P1_4$0$0       
            0095  Fadc$ENDIAN$0$0                  
            0095  Fadc$P1_5$0$0                    
            0095  Fboard$ENDIAN$0$0                
            0095  Fboard$P1_5$0$0                  
            0095  Fdma$ENDIAN$0$0                  
            0095  Fdma$P1_5$0$0                    
            0095  Fgpio$ENDIAN$0$0                 
            0095  Fgpio$P1_5$0$0                   
            0095  Fgreen_led$ENDIAN$0$0            
            0095  Fgreen_led$P1_5$0$0              
            0095  Ftime$ENDIAN$0$0                 
            0095  Ftime$P1_5$0$0                   
            0095  Fusb$ENDIAN$0$0                  
            0095  Fusb$P1_5$0$0                    
            0095  Fusb_cdc_acm$ENDIAN$0$0          
            0095  Fusb_cdc_acm$P1_5$0$0            
ASxxxx Linker V02.00 + NoICE + sdld,  page 17.
Hexadecimal

Area                               Addr   Size   Decimal Bytes (Attributes)
--------------------------------   ----   ----   ------- ----- ------------
.	.ABS.                            0000   0000 =      0. bytes (ABS,CON)

      Value  Global                              Global Defined In Module
      -----  ---------------------------------   ------------------------
            0095  Fvibes_lab_radio_protocol$ENDIAN$
            0095  Fvibes_lab_radio_protocol$P1_5$0$
            0095  Fvibes_lab_tx_5_0$ENDIAN$0$0     
            0095  Fvibes_lab_tx_5_0$P1_5$0$0       
            0096  Fadc$P1_6$0$0                    
            0096  Fboard$P1_6$0$0                  
            0096  Fdma$P1_6$0$0                    
            0096  Fgpio$P1_6$0$0                   
            0096  Fgreen_led$P1_6$0$0              
            0096  Ftime$P1_6$0$0                   
            0096  Fusb$P1_6$0$0                    
            0096  Fusb_cdc_acm$P1_6$0$0            
            0096  Fvibes_lab_radio_protocol$P1_6$0$
            0096  Fvibes_lab_tx_5_0$P1_6$0$0       
            0097  Fadc$P1_7$0$0                    
            0097  Fboard$P1_7$0$0                  
            0097  Fdma$P1_7$0$0                    
            0097  Fgpio$P1_7$0$0                   
            0097  Fgreen_led$P1_7$0$0              
            0097  Ftime$P1_7$0$0                   
            0097  Fusb$P1_7$0$0                    
            0097  Fusb_cdc_acm$P1_7$0$0            
            0097  Fvibes_lab_radio_protocol$P1_7$0$
            0097  Fvibes_lab_tx_5_0$P1_7$0$0       
            0098  Fadc$ENCIF_0$0$0                 
            0098  Fadc$S0CON$0$0                   
            0098  Fboard$ENCIF_0$0$0               
            0098  Fboard$S0CON$0$0                 
            0098  Fdma$ENCIF_0$0$0                 
            0098  Fdma$S0CON$0$0                   
            0098  Fgpio$ENCIF_0$0$0                
            0098  Fgpio$S0CON$0$0                  
            0098  Fgreen_led$ENCIF_0$0$0           
            0098  Fgreen_led$S0CON$0$0             
            0098  Ftime$ENCIF_0$0$0                
            0098  Ftime$S0CON$0$0                  
            0098  Fusb$ENCIF_0$0$0                 
            0098  Fusb$S0CON$0$0                   
            0098  Fusb_cdc_acm$ENCIF_0$0$0         
            0098  Fusb_cdc_acm$S0CON$0$0           
            0098  Fvibes_lab_radio_protocol$ENCIF_0
            0098  Fvibes_lab_radio_protocol$S0CON$0
            0098  Fvibes_lab_tx_5_0$ENCIF_0$0$0    
            0098  Fvibes_lab_tx_5_0$S0CON$0$0      
            0099  Fadc$ENCIF_1$0$0                 
            0099  Fboard$ENCIF_1$0$0               
            0099  Fdma$ENCIF_1$0$0                 
            0099  Fgpio$ENCIF_1$0$0                
            0099  Fgreen_led$ENCIF_1$0$0           
            0099  Ftime$ENCIF_1$0$0                
            0099  Fusb$ENCIF_1$0$0                 
ASxxxx Linker V02.00 + NoICE + sdld,  page 18.
Hexadecimal

Area                               Addr   Size   Decimal Bytes (Attributes)
--------------------------------   ----   ----   ------- ----- ------------
.	.ABS.                            0000   0000 =      0. bytes (ABS,CON)

      Value  Global                              Global Defined In Module
      -----  ---------------------------------   ------------------------
            0099  Fusb_cdc_acm$ENCIF_1$0$0         
            0099  Fvibes_lab_radio_protocol$ENCIF_1
            0099  Fvibes_lab_tx_5_0$ENCIF_1$0$0    
            009A  Fadc$IEN2$0$0                    
            009A  Fadc$_SOCON2$0$0                 
            009A  Fboard$IEN2$0$0                  
            009A  Fboard$_SOCON2$0$0               
            009A  Fdma$IEN2$0$0                    
            009A  Fdma$_SOCON2$0$0                 
            009A  Fgpio$IEN2$0$0                   
            009A  Fgpio$_SOCON2$0$0                
            009A  Fgreen_led$IEN2$0$0              
            009A  Fgreen_led$_SOCON2$0$0           
            009A  Ftime$IEN2$0$0                   
            009A  Ftime$_SOCON2$0$0                
            009A  Fusb$IEN2$0$0                    
            009A  Fusb$_SOCON2$0$0                 
            009A  Fusb_cdc_acm$IEN2$0$0            
            009A  Fusb_cdc_acm$_SOCON2$0$0         
            009A  Fvibes_lab_radio_protocol$IEN2$0$
            009A  Fvibes_lab_radio_protocol$_SOCON2
            009A  Fvibes_lab_tx_5_0$IEN2$0$0       
            009A  Fvibes_lab_tx_5_0$_SOCON2$0$0    
            009B  Fadc$S1CON$0$0                   
            009B  Fadc$_SOCON3$0$0                 
            009B  Fboard$S1CON$0$0                 
            009B  Fboard$_SOCON3$0$0               
            009B  Fdma$S1CON$0$0                   
            009B  Fdma$_SOCON3$0$0                 
            009B  Fgpio$S1CON$0$0                  
            009B  Fgpio$_SOCON3$0$0                
            009B  Fgreen_led$S1CON$0$0             
            009B  Fgreen_led$_SOCON3$0$0           
            009B  Ftime$S1CON$0$0                  
            009B  Ftime$_SOCON3$0$0                
            009B  Fusb$S1CON$0$0                   
            009B  Fusb$_SOCON3$0$0                 
            009B  Fusb_cdc_acm$S1CON$0$0           
            009B  Fusb_cdc_acm$_SOCON3$0$0         
            009B  Fvibes_lab_radio_protocol$S1CON$0
            009B  Fvibes_lab_radio_protocol$_SOCON3
            009B  Fvibes_lab_tx_5_0$S1CON$0$0      
            009B  Fvibes_lab_tx_5_0$_SOCON3$0$0    
            009C  Fadc$T2CT$0$0                    
            009C  Fadc$_SOCON4$0$0                 
            009C  Fboard$T2CT$0$0                  
            009C  Fboard$_SOCON4$0$0               
            009C  Fdma$T2CT$0$0                    
            009C  Fdma$_SOCON4$0$0                 
            009C  Fgpio$T2CT$0$0                   
            009C  Fgpio$_SOCON4$0$0                
ASxxxx Linker V02.00 + NoICE + sdld,  page 19.
Hexadecimal

Area                               Addr   Size   Decimal Bytes (Attributes)
--------------------------------   ----   ----   ------- ----- ------------
.	.ABS.                            0000   0000 =      0. bytes (ABS,CON)

      Value  Global                              Global Defined In Module
      -----  ---------------------------------   ------------------------
            009C  Fgreen_led$T2CT$0$0              
            009C  Fgreen_led$_SOCON4$0$0           
            009C  Ftime$T2CT$0$0                   
            009C  Ftime$_SOCON4$0$0                
            009C  Fusb$T2CT$0$0                    
            009C  Fusb$_SOCON4$0$0                 
            009C  Fusb_cdc_acm$T2CT$0$0            
            009C  Fusb_cdc_acm$_SOCON4$0$0         
            009C  Fvibes_lab_radio_protocol$T2CT$0$
            009C  Fvibes_lab_radio_protocol$_SOCON4
            009C  Fvibes_lab_tx_5_0$T2CT$0$0       
            009C  Fvibes_lab_tx_5_0$_SOCON4$0$0    
            009D  Fadc$T2PR$0$0                    
            009D  Fadc$_SOCON5$0$0                 
            009D  Fboard$T2PR$0$0                  
            009D  Fboard$_SOCON5$0$0               
            009D  Fdma$T2PR$0$0                    
            009D  Fdma$_SOCON5$0$0                 
            009D  Fgpio$T2PR$0$0                   
            009D  Fgpio$_SOCON5$0$0                
            009D  Fgreen_led$T2PR$0$0              
            009D  Fgreen_led$_SOCON5$0$0           
            009D  Ftime$T2PR$0$0                   
            009D  Ftime$_SOCON5$0$0                
            009D  Fusb$T2PR$0$0                    
            009D  Fusb$_SOCON5$0$0                 
            009D  Fusb_cdc_acm$T2PR$0$0            
            009D  Fusb_cdc_acm$_SOCON5$0$0         
            009D  Fvibes_lab_radio_protocol$T2PR$0$
            009D  Fvibes_lab_radio_protocol$_SOCON5
            009D  Fvibes_lab_tx_5_0$T2PR$0$0       
            009D  Fvibes_lab_tx_5_0$_SOCON5$0$0    
            009E  Fadc$T2CTL$0$0                   
            009E  Fadc$_SOCON6$0$0                 
            009E  Fboard$T2CTL$0$0                 
            009E  Fboard$_SOCON6$0$0               
            009E  Fdma$T2CTL$0$0                   
            009E  Fdma$_SOCON6$0$0                 
            009E  Fgpio$T2CTL$0$0                  
            009E  Fgpio$_SOCON6$0$0                
            009E  Fgreen_led$T2CTL$0$0             
            009E  Fgreen_led$_SOCON6$0$0           
            009E  Ftime$T2CTL$0$0                  
            009E  Ftime$_SOCON6$0$0                
            009E  Fusb$T2CTL$0$0                   
            009E  Fusb$_SOCON6$0$0                 
            009E  Fusb_cdc_acm$T2CTL$0$0           
            009E  Fusb_cdc_acm$_SOCON6$0$0         
            009E  Fvibes_lab_radio_protocol$T2CTL$0
            009E  Fvibes_lab_radio_protocol$_SOCON6
            009E  Fvibes_lab_tx_5_0$T2CTL$0$0      
ASxxxx Linker V02.00 + NoICE + sdld,  page 20.
Hexadecimal

Area                               Addr   Size   Decimal Bytes (Attributes)
--------------------------------   ----   ----   ------- ----- ------------
.	.ABS.                            0000   0000 =      0. bytes (ABS,CON)

      Value  Global                              Global Defined In Module
      -----  ---------------------------------   ------------------------
            009E  Fvibes_lab_tx_5_0$_SOCON6$0$0    
            009F  Fadc$_SOCON7$0$0                 
            009F  Fboard$_SOCON7$0$0               
            009F  Fdma$_SOCON7$0$0                 
            009F  Fgpio$_SOCON7$0$0                
            009F  Fgreen_led$_SOCON7$0$0           
            009F  Ftime$_SOCON7$0$0                
            009F  Fusb$_SOCON7$0$0                 
            009F  Fusb_cdc_acm$_SOCON7$0$0         
            009F  Fvibes_lab_radio_protocol$_SOCON7
            009F  Fvibes_lab_tx_5_0$_SOCON7$0$0    
            00A0  Fadc$P2$0$0                      
            00A0  Fadc$P2_0$0$0                    
            00A0  Fboard$P2$0$0                    
            00A0  Fboard$P2_0$0$0                  
            00A0  Fdma$P2$0$0                      
            00A0  Fdma$P2_0$0$0                    
            00A0  Fgpio$P2$0$0                     
            00A0  Fgpio$P2_0$0$0                   
            00A0  Fgreen_led$P2$0$0                
            00A0  Fgreen_led$P2_0$0$0              
            00A0  Ftime$P2$0$0                     
            00A0  Ftime$P2_0$0$0                   
            00A0  Fusb$P2$0$0                      
            00A0  Fusb$P2_0$0$0                    
            00A0  Fusb_cdc_acm$P2$0$0              
            00A0  Fusb_cdc_acm$P2_0$0$0            
            00A0  Fvibes_lab_radio_protocol$P2$0$0 
            00A0  Fvibes_lab_radio_protocol$P2_0$0$
            00A0  Fvibes_lab_tx_5_0$P2$0$0         
            00A0  Fvibes_lab_tx_5_0$P2_0$0$0       
            00A1  Fadc$P2_1$0$0                    
            00A1  Fadc$WORIRQ$0$0                  
            00A1  Fboard$P2_1$0$0                  
            00A1  Fboard$WORIRQ$0$0                
            00A1  Fdma$P2_1$0$0                    
            00A1  Fdma$WORIRQ$0$0                  
            00A1  Fgpio$P2_1$0$0                   
            00A1  Fgpio$WORIRQ$0$0                 
            00A1  Fgreen_led$P2_1$0$0              
            00A1  Fgreen_led$WORIRQ$0$0            
            00A1  Ftime$P2_1$0$0                   
            00A1  Ftime$WORIRQ$0$0                 
            00A1  Fusb$P2_1$0$0                    
            00A1  Fusb$WORIRQ$0$0                  
            00A1  Fusb_cdc_acm$P2_1$0$0            
            00A1  Fusb_cdc_acm$WORIRQ$0$0          
            00A1  Fvibes_lab_radio_protocol$P2_1$0$
            00A1  Fvibes_lab_radio_protocol$WORIRQ$
            00A1  Fvibes_lab_tx_5_0$P2_1$0$0       
            00A1  Fvibes_lab_tx_5_0$WORIRQ$0$0     
ASxxxx Linker V02.00 + NoICE + sdld,  page 21.
Hexadecimal

Area                               Addr   Size   Decimal Bytes (Attributes)
--------------------------------   ----   ----   ------- ----- ------------
.	.ABS.                            0000   0000 =      0. bytes (ABS,CON)

      Value  Global                              Global Defined In Module
      -----  ---------------------------------   ------------------------
            00A2  Fadc$P2_2$0$0                    
            00A2  Fadc$WORCTRL$0$0                 
            00A2  Fboard$P2_2$0$0                  
            00A2  Fboard$WORCTRL$0$0               
            00A2  Fdma$P2_2$0$0                    
            00A2  Fdma$WORCTRL$0$0                 
            00A2  Fgpio$P2_2$0$0                   
            00A2  Fgpio$WORCTRL$0$0                
            00A2  Fgreen_led$P2_2$0$0              
            00A2  Fgreen_led$WORCTRL$0$0           
            00A2  Ftime$P2_2$0$0                   
            00A2  Ftime$WORCTRL$0$0                
            00A2  Fusb$P2_2$0$0                    
            00A2  Fusb$WORCTRL$0$0                 
            00A2  Fusb_cdc_acm$P2_2$0$0            
            00A2  Fusb_cdc_acm$WORCTRL$0$0         
            00A2  Fvibes_lab_radio_protocol$P2_2$0$
            00A2  Fvibes_lab_radio_protocol$WORCTRL
            00A2  Fvibes_lab_tx_5_0$P2_2$0$0       
            00A2  Fvibes_lab_tx_5_0$WORCTRL$0$0    
            00A3  Fadc$P2_3$0$0                    
            00A3  Fadc$WOREVT0$0$0                 
            00A3  Fboard$P2_3$0$0                  
            00A3  Fboard$WOREVT0$0$0               
            00A3  Fdma$P2_3$0$0                    
            00A3  Fdma$WOREVT0$0$0                 
            00A3  Fgpio$P2_3$0$0                   
            00A3  Fgpio$WOREVT0$0$0                
            00A3  Fgreen_led$P2_3$0$0              
            00A3  Fgreen_led$WOREVT0$0$0           
            00A3  Ftime$P2_3$0$0                   
            00A3  Ftime$WOREVT0$0$0                
            00A3  Fusb$P2_3$0$0                    
            00A3  Fusb$WOREVT0$0$0                 
            00A3  Fusb_cdc_acm$P2_3$0$0            
            00A3  Fusb_cdc_acm$WOREVT0$0$0         
            00A3  Fvibes_lab_radio_protocol$P2_3$0$
            00A3  Fvibes_lab_radio_protocol$WOREVT0
            00A3  Fvibes_lab_tx_5_0$P2_3$0$0       
            00A3  Fvibes_lab_tx_5_0$WOREVT0$0$0    
            00A4  Fadc$P2_4$0$0                    
            00A4  Fadc$WOREVT1$0$0                 
            00A4  Fboard$P2_4$0$0                  
            00A4  Fboard$WOREVT1$0$0               
            00A4  Fdma$P2_4$0$0                    
            00A4  Fdma$WOREVT1$0$0                 
            00A4  Fgpio$P2_4$0$0                   
            00A4  Fgpio$WOREVT1$0$0                
            00A4  Fgreen_led$P2_4$0$0              
            00A4  Fgreen_led$WOREVT1$0$0           
            00A4  Ftime$P2_4$0$0                   
ASxxxx Linker V02.00 + NoICE + sdld,  page 22.
Hexadecimal

Area                               Addr   Size   Decimal Bytes (Attributes)
--------------------------------   ----   ----   ------- ----- ------------
.	.ABS.                            0000   0000 =      0. bytes (ABS,CON)

      Value  Global                              Global Defined In Module
      -----  ---------------------------------   ------------------------
            00A4  Ftime$WOREVT1$0$0                
            00A4  Fusb$P2_4$0$0                    
            00A4  Fusb$WOREVT1$0$0                 
            00A4  Fusb_cdc_acm$P2_4$0$0            
            00A4  Fusb_cdc_acm$WOREVT1$0$0         
            00A4  Fvibes_lab_radio_protocol$P2_4$0$
            00A4  Fvibes_lab_radio_protocol$WOREVT1
            00A4  Fvibes_lab_tx_5_0$P2_4$0$0       
            00A4  Fvibes_lab_tx_5_0$WOREVT1$0$0    
            00A5  Fadc$P2_5$0$0                    
            00A5  Fadc$WORTIME0$0$0                
            00A5  Fboard$P2_5$0$0                  
            00A5  Fboard$WORTIME0$0$0              
            00A5  Fdma$P2_5$0$0                    
            00A5  Fdma$WORTIME0$0$0                
            00A5  Fgpio$P2_5$0$0                   
            00A5  Fgpio$WORTIME0$0$0               
            00A5  Fgreen_led$P2_5$0$0              
            00A5  Fgreen_led$WORTIME0$0$0          
            00A5  Ftime$P2_5$0$0                   
            00A5  Ftime$WORTIME0$0$0               
            00A5  Fusb$P2_5$0$0                    
            00A5  Fusb$WORTIME0$0$0                
            00A5  Fusb_cdc_acm$P2_5$0$0            
            00A5  Fusb_cdc_acm$WORTIME0$0$0        
            00A5  Fvibes_lab_radio_protocol$P2_5$0$
            00A5  Fvibes_lab_radio_protocol$WORTIME
            00A5  Fvibes_lab_tx_5_0$P2_5$0$0       
            00A5  Fvibes_lab_tx_5_0$WORTIME0$0$0   
            00A6  Fadc$P2_6$0$0                    
            00A6  Fadc$WORTIME1$0$0                
            00A6  Fboard$P2_6$0$0                  
            00A6  Fboard$WORTIME1$0$0              
            00A6  Fdma$P2_6$0$0                    
            00A6  Fdma$WORTIME1$0$0                
            00A6  Fgpio$P2_6$0$0                   
            00A6  Fgpio$WORTIME1$0$0               
            00A6  Fgreen_led$P2_6$0$0              
            00A6  Fgreen_led$WORTIME1$0$0          
            00A6  Ftime$P2_6$0$0                   
            00A6  Ftime$WORTIME1$0$0               
            00A6  Fusb$P2_6$0$0                    
            00A6  Fusb$WORTIME1$0$0                
            00A6  Fusb_cdc_acm$P2_6$0$0            
            00A6  Fusb_cdc_acm$WORTIME1$0$0        
            00A6  Fvibes_lab_radio_protocol$P2_6$0$
            00A6  Fvibes_lab_radio_protocol$WORTIME
            00A6  Fvibes_lab_tx_5_0$P2_6$0$0       
            00A6  Fvibes_lab_tx_5_0$WORTIME1$0$0   
            00A7  Fadc$P2_7$0$0                    
            00A7  Fboard$P2_7$0$0                  
ASxxxx Linker V02.00 + NoICE + sdld,  page 23.
Hexadecimal

Area                               Addr   Size   Decimal Bytes (Attributes)
--------------------------------   ----   ----   ------- ----- ------------
.	.ABS.                            0000   0000 =      0. bytes (ABS,CON)

      Value  Global                              Global Defined In Module
      -----  ---------------------------------   ------------------------
            00A7  Fdma$P2_7$0$0                    
            00A7  Fgpio$P2_7$0$0                   
            00A7  Fgreen_led$P2_7$0$0              
            00A7  Ftime$P2_7$0$0                   
            00A7  Fusb$P2_7$0$0                    
            00A7  Fusb_cdc_acm$P2_7$0$0            
            00A7  Fvibes_lab_radio_protocol$P2_7$0$
            00A7  Fvibes_lab_tx_5_0$P2_7$0$0       
            00A8  Fadc$IEN0$0$0                    
            00A8  Fadc$RFTXRXIE$0$0                
            00A8  Fboard$IEN0$0$0                  
            00A8  Fboard$RFTXRXIE$0$0              
            00A8  Fdma$IEN0$0$0                    
            00A8  Fdma$RFTXRXIE$0$0                
            00A8  Fgpio$IEN0$0$0                   
            00A8  Fgpio$RFTXRXIE$0$0               
            00A8  Fgreen_led$IEN0$0$0              
            00A8  Fgreen_led$RFTXRXIE$0$0          
            00A8  Ftime$IEN0$0$0                   
            00A8  Ftime$RFTXRXIE$0$0               
            00A8  Fusb$IEN0$0$0                    
            00A8  Fusb$RFTXRXIE$0$0                
            00A8  Fusb_cdc_acm$IEN0$0$0            
            00A8  Fusb_cdc_acm$RFTXRXIE$0$0        
            00A8  Fvibes_lab_radio_protocol$IEN0$0$
            00A8  Fvibes_lab_radio_protocol$RFTXRXI
            00A8  Fvibes_lab_tx_5_0$IEN0$0$0       
            00A8  Fvibes_lab_tx_5_0$RFTXRXIE$0$0   
            00A9  Fadc$ADCIE$0$0                   
            00A9  Fadc$IP0$0$0                     
            00A9  Fboard$ADCIE$0$0                 
            00A9  Fboard$IP0$0$0                   
            00A9  Fdma$ADCIE$0$0                   
            00A9  Fdma$IP0$0$0                     
            00A9  Fgpio$ADCIE$0$0                  
            00A9  Fgpio$IP0$0$0                    
            00A9  Fgreen_led$ADCIE$0$0             
            00A9  Fgreen_led$IP0$0$0               
            00A9  Ftime$ADCIE$0$0                  
            00A9  Ftime$IP0$0$0                    
            00A9  Fusb$ADCIE$0$0                   
            00A9  Fusb$IP0$0$0                     
            00A9  Fusb_cdc_acm$ADCIE$0$0           
            00A9  Fusb_cdc_acm$IP0$0$0             
            00A9  Fvibes_lab_radio_protocol$ADCIE$0
            00A9  Fvibes_lab_radio_protocol$IP0$0$0
            00A9  Fvibes_lab_tx_5_0$ADCIE$0$0      
            00A9  Fvibes_lab_tx_5_0$IP0$0$0        
            00AA  Fadc$URX0IE$0$0                  
            00AA  Fboard$URX0IE$0$0                
            00AA  Fdma$URX0IE$0$0                  
ASxxxx Linker V02.00 + NoICE + sdld,  page 24.
Hexadecimal

Area                               Addr   Size   Decimal Bytes (Attributes)
--------------------------------   ----   ----   ------- ----- ------------
.	.ABS.                            0000   0000 =      0. bytes (ABS,CON)

      Value  Global                              Global Defined In Module
      -----  ---------------------------------   ------------------------
            00AA  Fgpio$URX0IE$0$0                 
            00AA  Fgreen_led$URX0IE$0$0            
            00AA  Ftime$URX0IE$0$0                 
            00AA  Fusb$URX0IE$0$0                  
            00AA  Fusb_cdc_acm$URX0IE$0$0          
            00AA  Fvibes_lab_radio_protocol$URX0IE$
            00AA  Fvibes_lab_tx_5_0$URX0IE$0$0     
            00AB  Fadc$FWT$0$0                     
            00AB  Fadc$URX1IE$0$0                  
            00AB  Fboard$FWT$0$0                   
            00AB  Fboard$URX1IE$0$0                
            00AB  Fdma$FWT$0$0                     
            00AB  Fdma$URX1IE$0$0                  
            00AB  Fgpio$FWT$0$0                    
            00AB  Fgpio$URX1IE$0$0                 
            00AB  Fgreen_led$FWT$0$0               
            00AB  Fgreen_led$URX1IE$0$0            
            00AB  Ftime$FWT$0$0                    
            00AB  Ftime$URX1IE$0$0                 
            00AB  Fusb$FWT$0$0                     
            00AB  Fusb$URX1IE$0$0                  
            00AB  Fusb_cdc_acm$FWT$0$0             
            00AB  Fusb_cdc_acm$URX1IE$0$0          
            00AB  Fvibes_lab_radio_protocol$FWT$0$0
            00AB  Fvibes_lab_radio_protocol$URX1IE$
            00AB  Fvibes_lab_tx_5_0$FWT$0$0        
            00AB  Fvibes_lab_tx_5_0$URX1IE$0$0     
            00AC  Fadc$ENCIE$0$0                   
            00AC  Fadc$FADDRL$0$0                  
            00AC  Fboard$ENCIE$0$0                 
            00AC  Fboard$FADDRL$0$0                
            00AC  Fdma$ENCIE$0$0                   
            00AC  Fdma$FADDRL$0$0                  
            00AC  Fgpio$ENCIE$0$0                  
            00AC  Fgpio$FADDRL$0$0                 
            00AC  Fgreen_led$ENCIE$0$0             
            00AC  Fgreen_led$FADDRL$0$0            
            00AC  Ftime$ENCIE$0$0                  
            00AC  Ftime$FADDRL$0$0                 
            00AC  Fusb$ENCIE$0$0                   
            00AC  Fusb$FADDRL$0$0                  
            00AC  Fusb_cdc_acm$ENCIE$0$0           
            00AC  Fusb_cdc_acm$FADDRL$0$0          
            00AC  Fvibes_lab_radio_protocol$ENCIE$0
            00AC  Fvibes_lab_radio_protocol$FADDRL$
            00AC  Fvibes_lab_tx_5_0$ENCIE$0$0      
            00AC  Fvibes_lab_tx_5_0$FADDRL$0$0     
            00AD  Fadc$FADDRH$0$0                  
            00AD  Fadc$STIE$0$0                    
            00AD  Fboard$FADDRH$0$0                
            00AD  Fboard$STIE$0$0                  
ASxxxx Linker V02.00 + NoICE + sdld,  page 25.
Hexadecimal

Area                               Addr   Size   Decimal Bytes (Attributes)
--------------------------------   ----   ----   ------- ----- ------------
.	.ABS.                            0000   0000 =      0. bytes (ABS,CON)

      Value  Global                              Global Defined In Module
      -----  ---------------------------------   ------------------------
            00AD  Fdma$FADDRH$0$0                  
            00AD  Fdma$STIE$0$0                    
            00AD  Fgpio$FADDRH$0$0                 
            00AD  Fgpio$STIE$0$0                   
            00AD  Fgreen_led$FADDRH$0$0            
            00AD  Fgreen_led$STIE$0$0              
            00AD  Ftime$FADDRH$0$0                 
            00AD  Ftime$STIE$0$0                   
            00AD  Fusb$FADDRH$0$0                  
            00AD  Fusb$STIE$0$0                    
            00AD  Fusb_cdc_acm$FADDRH$0$0          
            00AD  Fusb_cdc_acm$STIE$0$0            
            00AD  Fvibes_lab_radio_protocol$FADDRH$
            00AD  Fvibes_lab_radio_protocol$STIE$0$
            00AD  Fvibes_lab_tx_5_0$FADDRH$0$0     
            00AD  Fvibes_lab_tx_5_0$STIE$0$0       
            00AE  Fadc$FCTL$0$0                    
            00AE  Fadc$_IEN06$0$0                  
            00AE  Fboard$FCTL$0$0                  
            00AE  Fboard$_IEN06$0$0                
            00AE  Fdma$FCTL$0$0                    
            00AE  Fdma$_IEN06$0$0                  
            00AE  Fgpio$FCTL$0$0                   
            00AE  Fgpio$_IEN06$0$0                 
            00AE  Fgreen_led$FCTL$0$0              
            00AE  Fgreen_led$_IEN06$0$0            
            00AE  Ftime$FCTL$0$0                   
            00AE  Ftime$_IEN06$0$0                 
            00AE  Fusb$FCTL$0$0                    
            00AE  Fusb$_IEN06$0$0                  
            00AE  Fusb_cdc_acm$FCTL$0$0            
            00AE  Fusb_cdc_acm$_IEN06$0$0          
            00AE  Fvibes_lab_radio_protocol$FCTL$0$
            00AE  Fvibes_lab_radio_protocol$_IEN06$
            00AE  Fvibes_lab_tx_5_0$FCTL$0$0       
            00AE  Fvibes_lab_tx_5_0$_IEN06$0$0     
            00AF  Fadc$EA$0$0                      
            00AF  Fadc$FWDATA$0$0                  
            00AF  Fboard$EA$0$0                    
            00AF  Fboard$FWDATA$0$0                
            00AF  Fdma$EA$0$0                      
            00AF  Fdma$FWDATA$0$0                  
            00AF  Fgpio$EA$0$0                     
            00AF  Fgpio$FWDATA$0$0                 
            00AF  Fgreen_led$EA$0$0                
            00AF  Fgreen_led$FWDATA$0$0            
            00AF  Ftime$EA$0$0                     
            00AF  Ftime$FWDATA$0$0                 
            00AF  Fusb$EA$0$0                      
            00AF  Fusb$FWDATA$0$0                  
            00AF  Fusb_cdc_acm$EA$0$0              
ASxxxx Linker V02.00 + NoICE + sdld,  page 26.
Hexadecimal

Area                               Addr   Size   Decimal Bytes (Attributes)
--------------------------------   ----   ----   ------- ----- ------------
.	.ABS.                            0000   0000 =      0. bytes (ABS,CON)

      Value  Global                              Global Defined In Module
      -----  ---------------------------------   ------------------------
            00AF  Fusb_cdc_acm$FWDATA$0$0          
            00AF  Fvibes_lab_radio_protocol$EA$0$0 
            00AF  Fvibes_lab_radio_protocol$FWDATA$
            00AF  Fvibes_lab_tx_5_0$EA$0$0         
            00AF  Fvibes_lab_tx_5_0$FWDATA$0$0     
            00B1  Fadc$ENCDI$0$0                   
            00B1  Fboard$ENCDI$0$0                 
            00B1  Fdma$ENCDI$0$0                   
            00B1  Fgpio$ENCDI$0$0                  
            00B1  Fgreen_led$ENCDI$0$0             
            00B1  Ftime$ENCDI$0$0                  
            00B1  Fusb$ENCDI$0$0                   
            00B1  Fusb_cdc_acm$ENCDI$0$0           
            00B1  Fvibes_lab_radio_protocol$ENCDI$0
            00B1  Fvibes_lab_tx_5_0$ENCDI$0$0      
            00B2  Fadc$ENCDO$0$0                   
            00B2  Fboard$ENCDO$0$0                 
            00B2  Fdma$ENCDO$0$0                   
            00B2  Fgpio$ENCDO$0$0                  
            00B2  Fgreen_led$ENCDO$0$0             
            00B2  Ftime$ENCDO$0$0                  
            00B2  Fusb$ENCDO$0$0                   
            00B2  Fusb_cdc_acm$ENCDO$0$0           
            00B2  Fvibes_lab_radio_protocol$ENCDO$0
            00B2  Fvibes_lab_tx_5_0$ENCDO$0$0      
            00B3  Fadc$ENCCS$0$0                   
            00B3  Fboard$ENCCS$0$0                 
            00B3  Fdma$ENCCS$0$0                   
            00B3  Fgpio$ENCCS$0$0                  
            00B3  Fgreen_led$ENCCS$0$0             
            00B3  Ftime$ENCCS$0$0                  
            00B3  Fusb$ENCCS$0$0                   
            00B3  Fusb_cdc_acm$ENCCS$0$0           
            00B3  Fvibes_lab_radio_protocol$ENCCS$0
            00B3  Fvibes_lab_tx_5_0$ENCCS$0$0      
            00B4  Fadc$ADCCON1$0$0                 
            00B4  Fboard$ADCCON1$0$0               
            00B4  Fdma$ADCCON1$0$0                 
            00B4  Fgpio$ADCCON1$0$0                
            00B4  Fgreen_led$ADCCON1$0$0           
            00B4  Ftime$ADCCON1$0$0                
            00B4  Fusb$ADCCON1$0$0                 
            00B4  Fusb_cdc_acm$ADCCON1$0$0         
            00B4  Fvibes_lab_radio_protocol$ADCCON1
            00B4  Fvibes_lab_tx_5_0$ADCCON1$0$0    
            00B5  Fadc$ADCCON2$0$0                 
            00B5  Fboard$ADCCON2$0$0               
            00B5  Fdma$ADCCON2$0$0                 
            00B5  Fgpio$ADCCON2$0$0                
            00B5  Fgreen_led$ADCCON2$0$0           
            00B5  Ftime$ADCCON2$0$0                
ASxxxx Linker V02.00 + NoICE + sdld,  page 27.
Hexadecimal

Area                               Addr   Size   Decimal Bytes (Attributes)
--------------------------------   ----   ----   ------- ----- ------------
.	.ABS.                            0000   0000 =      0. bytes (ABS,CON)

      Value  Global                              Global Defined In Module
      -----  ---------------------------------   ------------------------
            00B5  Fusb$ADCCON2$0$0                 
            00B5  Fusb_cdc_acm$ADCCON2$0$0         
            00B5  Fvibes_lab_radio_protocol$ADCCON2
            00B5  Fvibes_lab_tx_5_0$ADCCON2$0$0    
            00B6  Fadc$ADCCON3$0$0                 
            00B6  Fboard$ADCCON3$0$0               
            00B6  Fdma$ADCCON3$0$0                 
            00B6  Fgpio$ADCCON3$0$0                
            00B6  Fgreen_led$ADCCON3$0$0           
            00B6  Ftime$ADCCON3$0$0                
            00B6  Fusb$ADCCON3$0$0                 
            00B6  Fusb_cdc_acm$ADCCON3$0$0         
            00B6  Fvibes_lab_radio_protocol$ADCCON3
            00B6  Fvibes_lab_tx_5_0$ADCCON3$0$0    
            00B8  Fadc$DMAIE$0$0                   
            00B8  Fadc$IEN1$0$0                    
            00B8  Fboard$DMAIE$0$0                 
            00B8  Fboard$IEN1$0$0                  
            00B8  Fdma$DMAIE$0$0                   
            00B8  Fdma$IEN1$0$0                    
            00B8  Fgpio$DMAIE$0$0                  
            00B8  Fgpio$IEN1$0$0                   
            00B8  Fgreen_led$DMAIE$0$0             
            00B8  Fgreen_led$IEN1$0$0              
            00B8  Ftime$DMAIE$0$0                  
            00B8  Ftime$IEN1$0$0                   
            00B8  Fusb$DMAIE$0$0                   
            00B8  Fusb$IEN1$0$0                    
            00B8  Fusb_cdc_acm$DMAIE$0$0           
            00B8  Fusb_cdc_acm$IEN1$0$0            
            00B8  Fvibes_lab_radio_protocol$DMAIE$0
            00B8  Fvibes_lab_radio_protocol$IEN1$0$
            00B8  Fvibes_lab_tx_5_0$DMAIE$0$0      
            00B8  Fvibes_lab_tx_5_0$IEN1$0$0       
            00B9  Fadc$IP1$0$0                     
            00B9  Fadc$T1IE$0$0                    
            00B9  Fboard$IP1$0$0                   
            00B9  Fboard$T1IE$0$0                  
            00B9  Fdma$IP1$0$0                     
            00B9  Fdma$T1IE$0$0                    
            00B9  Fgpio$IP1$0$0                    
            00B9  Fgpio$T1IE$0$0                   
            00B9  Fgreen_led$IP1$0$0               
            00B9  Fgreen_led$T1IE$0$0              
            00B9  Ftime$IP1$0$0                    
            00B9  Ftime$T1IE$0$0                   
            00B9  Fusb$IP1$0$0                     
            00B9  Fusb$T1IE$0$0                    
            00B9  Fusb_cdc_acm$IP1$0$0             
            00B9  Fusb_cdc_acm$T1IE$0$0            
            00B9  Fvibes_lab_radio_protocol$IP1$0$0
ASxxxx Linker V02.00 + NoICE + sdld,  page 28.
Hexadecimal

Area                               Addr   Size   Decimal Bytes (Attributes)
--------------------------------   ----   ----   ------- ----- ------------
.	.ABS.                            0000   0000 =      0. bytes (ABS,CON)

      Value  Global                              Global Defined In Module
      -----  ---------------------------------   ------------------------
            00B9  Fvibes_lab_radio_protocol$T1IE$0$
            00B9  Fvibes_lab_tx_5_0$IP1$0$0        
            00B9  Fvibes_lab_tx_5_0$T1IE$0$0       
            00BA  Fadc$ADCL$0$0                    
            00BA  Fadc$T2IE$0$0                    
            00BA  Fboard$ADCL$0$0                  
            00BA  Fboard$T2IE$0$0                  
            00BA  Fdma$ADCL$0$0                    
            00BA  Fdma$T2IE$0$0                    
            00BA  Fgpio$ADCL$0$0                   
            00BA  Fgpio$T2IE$0$0                   
            00BA  Fgreen_led$ADCL$0$0              
            00BA  Fgreen_led$T2IE$0$0              
            00BA  Ftime$ADCL$0$0                   
            00BA  Ftime$T2IE$0$0                   
            00BA  Fusb$ADCL$0$0                    
            00BA  Fusb$T2IE$0$0                    
            00BA  Fusb_cdc_acm$ADCL$0$0            
            00BA  Fusb_cdc_acm$T2IE$0$0            
            00BA  Fvibes_lab_radio_protocol$ADCL$0$
            00BA  Fvibes_lab_radio_protocol$T2IE$0$
            00BA  Fvibes_lab_tx_5_0$ADCL$0$0       
            00BA  Fvibes_lab_tx_5_0$T2IE$0$0       
            00BB  Fadc$ADCH$0$0                    
            00BB  Fadc$T3IE$0$0                    
            00BB  Fboard$ADCH$0$0                  
            00BB  Fboard$T3IE$0$0                  
            00BB  Fdma$ADCH$0$0                    
            00BB  Fdma$T3IE$0$0                    
            00BB  Fgpio$ADCH$0$0                   
            00BB  Fgpio$T3IE$0$0                   
            00BB  Fgreen_led$ADCH$0$0              
            00BB  Fgreen_led$T3IE$0$0              
            00BB  Ftime$ADCH$0$0                   
            00BB  Ftime$T3IE$0$0                   
            00BB  Fusb$ADCH$0$0                    
            00BB  Fusb$T3IE$0$0                    
            00BB  Fusb_cdc_acm$ADCH$0$0            
            00BB  Fusb_cdc_acm$T3IE$0$0            
            00BB  Fvibes_lab_radio_protocol$ADCH$0$
            00BB  Fvibes_lab_radio_protocol$T3IE$0$
            00BB  Fvibes_lab_tx_5_0$ADCH$0$0       
            00BB  Fvibes_lab_tx_5_0$T3IE$0$0       
            00BC  Fadc$RNDL$0$0                    
            00BC  Fadc$T4IE$0$0                    
            00BC  Fboard$RNDL$0$0                  
            00BC  Fboard$T4IE$0$0                  
            00BC  Fdma$RNDL$0$0                    
            00BC  Fdma$T4IE$0$0                    
            00BC  Fgpio$RNDL$0$0                   
            00BC  Fgpio$T4IE$0$0                   
ASxxxx Linker V02.00 + NoICE + sdld,  page 29.
Hexadecimal

Area                               Addr   Size   Decimal Bytes (Attributes)
--------------------------------   ----   ----   ------- ----- ------------
.	.ABS.                            0000   0000 =      0. bytes (ABS,CON)

      Value  Global                              Global Defined In Module
      -----  ---------------------------------   ------------------------
            00BC  Fgreen_led$RNDL$0$0              
            00BC  Fgreen_led$T4IE$0$0              
            00BC  Ftime$RNDL$0$0                   
            00BC  Ftime$T4IE$0$0                   
            00BC  Fusb$RNDL$0$0                    
            00BC  Fusb$T4IE$0$0                    
            00BC  Fusb_cdc_acm$RNDL$0$0            
            00BC  Fusb_cdc_acm$T4IE$0$0            
            00BC  Fvibes_lab_radio_protocol$RNDL$0$
            00BC  Fvibes_lab_radio_protocol$T4IE$0$
            00BC  Fvibes_lab_tx_5_0$RNDL$0$0       
            00BC  Fvibes_lab_tx_5_0$T4IE$0$0       
            00BD  Fadc$P0IE$0$0                    
            00BD  Fadc$RNDH$0$0                    
            00BD  Fboard$P0IE$0$0                  
            00BD  Fboard$RNDH$0$0                  
            00BD  Fdma$P0IE$0$0                    
            00BD  Fdma$RNDH$0$0                    
            00BD  Fgpio$P0IE$0$0                   
            00BD  Fgpio$RNDH$0$0                   
            00BD  Fgreen_led$P0IE$0$0              
            00BD  Fgreen_led$RNDH$0$0              
            00BD  Ftime$P0IE$0$0                   
            00BD  Ftime$RNDH$0$0                   
            00BD  Fusb$P0IE$0$0                    
            00BD  Fusb$RNDH$0$0                    
            00BD  Fusb_cdc_acm$P0IE$0$0            
            00BD  Fusb_cdc_acm$RNDH$0$0            
            00BD  Fvibes_lab_radio_protocol$P0IE$0$
            00BD  Fvibes_lab_radio_protocol$RNDH$0$
            00BD  Fvibes_lab_tx_5_0$P0IE$0$0       
            00BD  Fvibes_lab_tx_5_0$RNDH$0$0       
            00BE  Fadc$SLEEP$0$0                   
            00BE  Fadc$_IEN16$0$0                  
            00BE  Fboard$SLEEP$0$0                 
            00BE  Fboard$_IEN16$0$0                
            00BE  Fdma$SLEEP$0$0                   
            00BE  Fdma$_IEN16$0$0                  
            00BE  Fgpio$SLEEP$0$0                  
            00BE  Fgpio$_IEN16$0$0                 
            00BE  Fgreen_led$SLEEP$0$0             
            00BE  Fgreen_led$_IEN16$0$0            
            00BE  Ftime$SLEEP$0$0                  
            00BE  Ftime$_IEN16$0$0                 
            00BE  Fusb$SLEEP$0$0                   
            00BE  Fusb$_IEN16$0$0                  
            00BE  Fusb_cdc_acm$SLEEP$0$0           
            00BE  Fusb_cdc_acm$_IEN16$0$0          
            00BE  Fvibes_lab_radio_protocol$SLEEP$0
            00BE  Fvibes_lab_radio_protocol$_IEN16$
            00BE  Fvibes_lab_tx_5_0$SLEEP$0$0      
ASxxxx Linker V02.00 + NoICE + sdld,  page 30.
Hexadecimal

Area                               Addr   Size   Decimal Bytes (Attributes)
--------------------------------   ----   ----   ------- ----- ------------
.	.ABS.                            0000   0000 =      0. bytes (ABS,CON)

      Value  Global                              Global Defined In Module
      -----  ---------------------------------   ------------------------
            00BE  Fvibes_lab_tx_5_0$_IEN16$0$0     
            00BF  Fadc$_IEN17$0$0                  
            00BF  Fboard$_IEN17$0$0                
            00BF  Fdma$_IEN17$0$0                  
            00BF  Fgpio$_IEN17$0$0                 
            00BF  Fgreen_led$_IEN17$0$0            
            00BF  Ftime$_IEN17$0$0                 
            00BF  Fusb$_IEN17$0$0                  
            00BF  Fusb_cdc_acm$_IEN17$0$0          
            00BF  Fvibes_lab_radio_protocol$_IEN17$
            00BF  Fvibes_lab_tx_5_0$_IEN17$0$0     
            00C0  Fadc$DMAIF$0$0                   
            00C0  Fadc$IRCON$0$0                   
            00C0  Fboard$DMAIF$0$0                 
            00C0  Fboard$IRCON$0$0                 
            00C0  Fdma$DMAIF$0$0                   
            00C0  Fdma$IRCON$0$0                   
            00C0  Fgpio$DMAIF$0$0                  
            00C0  Fgpio$IRCON$0$0                  
            00C0  Fgreen_led$DMAIF$0$0             
            00C0  Fgreen_led$IRCON$0$0             
            00C0  Ftime$DMAIF$0$0                  
            00C0  Ftime$IRCON$0$0                  
            00C0  Fusb$DMAIF$0$0                   
            00C0  Fusb$IRCON$0$0                   
            00C0  Fusb_cdc_acm$DMAIF$0$0           
            00C0  Fusb_cdc_acm$IRCON$0$0           
            00C0  Fvibes_lab_radio_protocol$DMAIF$0
            00C0  Fvibes_lab_radio_protocol$IRCON$0
            00C0  Fvibes_lab_tx_5_0$DMAIF$0$0      
            00C0  Fvibes_lab_tx_5_0$IRCON$0$0      
            00C1  Fadc$T1IF$0$0                    
            00C1  Fadc$U0DBUF$0$0                  
            00C1  Fboard$T1IF$0$0                  
            00C1  Fboard$U0DBUF$0$0                
            00C1  Fdma$T1IF$0$0                    
            00C1  Fdma$U0DBUF$0$0                  
            00C1  Fgpio$T1IF$0$0                   
            00C1  Fgpio$U0DBUF$0$0                 
            00C1  Fgreen_led$T1IF$0$0              
            00C1  Fgreen_led$U0DBUF$0$0            
            00C1  Ftime$T1IF$0$0                   
            00C1  Ftime$U0DBUF$0$0                 
            00C1  Fusb$T1IF$0$0                    
            00C1  Fusb$U0DBUF$0$0                  
            00C1  Fusb_cdc_acm$T1IF$0$0            
            00C1  Fusb_cdc_acm$U0DBUF$0$0          
            00C1  Fvibes_lab_radio_protocol$T1IF$0$
            00C1  Fvibes_lab_radio_protocol$U0DBUF$
            00C1  Fvibes_lab_tx_5_0$T1IF$0$0       
            00C1  Fvibes_lab_tx_5_0$U0DBUF$0$0     
ASxxxx Linker V02.00 + NoICE + sdld,  page 31.
Hexadecimal

Area                               Addr   Size   Decimal Bytes (Attributes)
--------------------------------   ----   ----   ------- ----- ------------
.	.ABS.                            0000   0000 =      0. bytes (ABS,CON)

      Value  Global                              Global Defined In Module
      -----  ---------------------------------   ------------------------
            00C2  Fadc$T2IF$0$0                    
            00C2  Fadc$U0BAUD$0$0                  
            00C2  Fboard$T2IF$0$0                  
            00C2  Fboard$U0BAUD$0$0                
            00C2  Fdma$T2IF$0$0                    
            00C2  Fdma$U0BAUD$0$0                  
            00C2  Fgpio$T2IF$0$0                   
            00C2  Fgpio$U0BAUD$0$0                 
            00C2  Fgreen_led$T2IF$0$0              
            00C2  Fgreen_led$U0BAUD$0$0            
            00C2  Ftime$T2IF$0$0                   
            00C2  Ftime$U0BAUD$0$0                 
            00C2  Fusb$T2IF$0$0                    
            00C2  Fusb$U0BAUD$0$0                  
            00C2  Fusb_cdc_acm$T2IF$0$0            
            00C2  Fusb_cdc_acm$U0BAUD$0$0          
            00C2  Fvibes_lab_radio_protocol$T2IF$0$
            00C2  Fvibes_lab_radio_protocol$U0BAUD$
            00C2  Fvibes_lab_tx_5_0$T2IF$0$0       
            00C2  Fvibes_lab_tx_5_0$U0BAUD$0$0     
            00C3  Fadc$T3IF$0$0                    
            00C3  Fboard$T3IF$0$0                  
            00C3  Fdma$T3IF$0$0                    
            00C3  Fgpio$T3IF$0$0                   
            00C3  Fgreen_led$T3IF$0$0              
            00C3  Ftime$T3IF$0$0                   
            00C3  Fusb$T3IF$0$0                    
            00C3  Fusb_cdc_acm$T3IF$0$0            
            00C3  Fvibes_lab_radio_protocol$T3IF$0$
            00C3  Fvibes_lab_tx_5_0$T3IF$0$0       
            00C4  Fadc$T4IF$0$0                    
            00C4  Fadc$U0UCR$0$0                   
            00C4  Fboard$T4IF$0$0                  
            00C4  Fboard$U0UCR$0$0                 
            00C4  Fdma$T4IF$0$0                    
            00C4  Fdma$U0UCR$0$0                   
            00C4  Fgpio$T4IF$0$0                   
            00C4  Fgpio$U0UCR$0$0                  
            00C4  Fgreen_led$T4IF$0$0              
            00C4  Fgreen_led$U0UCR$0$0             
            00C4  Ftime$T4IF$0$0                   
            00C4  Ftime$U0UCR$0$0                  
            00C4  Fusb$T4IF$0$0                    
            00C4  Fusb$U0UCR$0$0                   
            00C4  Fusb_cdc_acm$T4IF$0$0            
            00C4  Fusb_cdc_acm$U0UCR$0$0           
            00C4  Fvibes_lab_radio_protocol$T4IF$0$
            00C4  Fvibes_lab_radio_protocol$U0UCR$0
            00C4  Fvibes_lab_tx_5_0$T4IF$0$0       
            00C4  Fvibes_lab_tx_5_0$U0UCR$0$0      
            00C5  Fadc$P0IF$0$0                    
ASxxxx Linker V02.00 + NoICE + sdld,  page 32.
Hexadecimal

Area                               Addr   Size   Decimal Bytes (Attributes)
--------------------------------   ----   ----   ------- ----- ------------
.	.ABS.                            0000   0000 =      0. bytes (ABS,CON)

      Value  Global                              Global Defined In Module
      -----  ---------------------------------   ------------------------
            00C5  Fadc$U0GCR$0$0                   
            00C5  Fboard$P0IF$0$0                  
            00C5  Fboard$U0GCR$0$0                 
            00C5  Fdma$P0IF$0$0                    
            00C5  Fdma$U0GCR$0$0                   
            00C5  Fgpio$P0IF$0$0                   
            00C5  Fgpio$U0GCR$0$0                  
            00C5  Fgreen_led$P0IF$0$0              
            00C5  Fgreen_led$U0GCR$0$0             
            00C5  Ftime$P0IF$0$0                   
            00C5  Ftime$U0GCR$0$0                  
            00C5  Fusb$P0IF$0$0                    
            00C5  Fusb$U0GCR$0$0                   
            00C5  Fusb_cdc_acm$P0IF$0$0            
            00C5  Fusb_cdc_acm$U0GCR$0$0           
            00C5  Fvibes_lab_radio_protocol$P0IF$0$
            00C5  Fvibes_lab_radio_protocol$U0GCR$0
            00C5  Fvibes_lab_tx_5_0$P0IF$0$0       
            00C5  Fvibes_lab_tx_5_0$U0GCR$0$0      
            00C6  Fadc$CLKCON$0$0                  
            00C6  Fadc$_IRCON6$0$0                 
            00C6  Fboard$CLKCON$0$0                
            00C6  Fboard$_IRCON6$0$0               
            00C6  Fdma$CLKCON$0$0                  
            00C6  Fdma$_IRCON6$0$0                 
            00C6  Fgpio$CLKCON$0$0                 
            00C6  Fgpio$_IRCON6$0$0                
            00C6  Fgreen_led$CLKCON$0$0            
            00C6  Fgreen_led$_IRCON6$0$0           
            00C6  Ftime$CLKCON$0$0                 
            00C6  Ftime$_IRCON6$0$0                
            00C6  Fusb$CLKCON$0$0                  
            00C6  Fusb$_IRCON6$0$0                 
            00C6  Fusb_cdc_acm$CLKCON$0$0          
            00C6  Fusb_cdc_acm$_IRCON6$0$0         
            00C6  Fvibes_lab_radio_protocol$CLKCON$
            00C6  Fvibes_lab_radio_protocol$_IRCON6
            00C6  Fvibes_lab_tx_5_0$CLKCON$0$0     
            00C6  Fvibes_lab_tx_5_0$_IRCON6$0$0    
            00C7  Fadc$MEMCTR$0$0                  
            00C7  Fadc$STIF$0$0                    
            00C7  Fboard$MEMCTR$0$0                
            00C7  Fboard$STIF$0$0                  
            00C7  Fdma$MEMCTR$0$0                  
            00C7  Fdma$STIF$0$0                    
            00C7  Fgpio$MEMCTR$0$0                 
            00C7  Fgpio$STIF$0$0                   
            00C7  Fgreen_led$MEMCTR$0$0            
            00C7  Fgreen_led$STIF$0$0              
            00C7  Ftime$MEMCTR$0$0                 
            00C7  Ftime$STIF$0$0                   
ASxxxx Linker V02.00 + NoICE + sdld,  page 33.
Hexadecimal

Area                               Addr   Size   Decimal Bytes (Attributes)
--------------------------------   ----   ----   ------- ----- ------------
.	.ABS.                            0000   0000 =      0. bytes (ABS,CON)

      Value  Global                              Global Defined In Module
      -----  ---------------------------------   ------------------------
            00C7  Fusb$MEMCTR$0$0                  
            00C7  Fusb$STIF$0$0                    
            00C7  Fusb_cdc_acm$MEMCTR$0$0          
            00C7  Fusb_cdc_acm$STIF$0$0            
            00C7  Fvibes_lab_radio_protocol$MEMCTR$
            00C7  Fvibes_lab_radio_protocol$STIF$0$
            00C7  Fvibes_lab_tx_5_0$MEMCTR$0$0     
            00C7  Fvibes_lab_tx_5_0$STIF$0$0       
            00C9  Fadc$WDCTL$0$0                   
            00C9  Fboard$WDCTL$0$0                 
            00C9  Fdma$WDCTL$0$0                   
            00C9  Fgpio$WDCTL$0$0                  
            00C9  Fgreen_led$WDCTL$0$0             
            00C9  Ftime$WDCTL$0$0                  
            00C9  Fusb$WDCTL$0$0                   
            00C9  Fusb_cdc_acm$WDCTL$0$0           
            00C9  Fvibes_lab_radio_protocol$WDCTL$0
            00C9  Fvibes_lab_tx_5_0$WDCTL$0$0      
            00CA  Fadc$T3CNT$0$0                   
            00CA  Fboard$T3CNT$0$0                 
            00CA  Fdma$T3CNT$0$0                   
            00CA  Fgpio$T3CNT$0$0                  
            00CA  Fgreen_led$T3CNT$0$0             
            00CA  Ftime$T3CNT$0$0                  
            00CA  Fusb$T3CNT$0$0                   
            00CA  Fusb_cdc_acm$T3CNT$0$0           
            00CA  Fvibes_lab_radio_protocol$T3CNT$0
            00CA  Fvibes_lab_tx_5_0$T3CNT$0$0      
            00CB  Fadc$T3CTL$0$0                   
            00CB  Fboard$T3CTL$0$0                 
            00CB  Fdma$T3CTL$0$0                   
            00CB  Fgpio$T3CTL$0$0                  
            00CB  Fgreen_led$T3CTL$0$0             
            00CB  Ftime$T3CTL$0$0                  
            00CB  Fusb$T3CTL$0$0                   
            00CB  Fusb_cdc_acm$T3CTL$0$0           
            00CB  Fvibes_lab_radio_protocol$T3CTL$0
            00CB  Fvibes_lab_tx_5_0$T3CTL$0$0      
            00CC  Fadc$T3CCTL0$0$0                 
            00CC  Fboard$T3CCTL0$0$0               
            00CC  Fdma$T3CCTL0$0$0                 
            00CC  Fgpio$T3CCTL0$0$0                
            00CC  Fgreen_led$T3CCTL0$0$0           
            00CC  Ftime$T3CCTL0$0$0                
            00CC  Fusb$T3CCTL0$0$0                 
            00CC  Fusb_cdc_acm$T3CCTL0$0$0         
            00CC  Fvibes_lab_radio_protocol$T3CCTL0
            00CC  Fvibes_lab_tx_5_0$T3CCTL0$0$0    
            00CD  Fadc$T3CC0$0$0                   
            00CD  Fboard$T3CC0$0$0                 
            00CD  Fdma$T3CC0$0$0                   
ASxxxx Linker V02.00 + NoICE + sdld,  page 34.
Hexadecimal

Area                               Addr   Size   Decimal Bytes (Attributes)
--------------------------------   ----   ----   ------- ----- ------------
.	.ABS.                            0000   0000 =      0. bytes (ABS,CON)

      Value  Global                              Global Defined In Module
      -----  ---------------------------------   ------------------------
            00CD  Fgpio$T3CC0$0$0                  
            00CD  Fgreen_led$T3CC0$0$0             
            00CD  Ftime$T3CC0$0$0                  
            00CD  Fusb$T3CC0$0$0                   
            00CD  Fusb_cdc_acm$T3CC0$0$0           
            00CD  Fvibes_lab_radio_protocol$T3CC0$0
            00CD  Fvibes_lab_tx_5_0$T3CC0$0$0      
            00CE  Fadc$T3CCTL1$0$0                 
            00CE  Fboard$T3CCTL1$0$0               
            00CE  Fdma$T3CCTL1$0$0                 
            00CE  Fgpio$T3CCTL1$0$0                
            00CE  Fgreen_led$T3CCTL1$0$0           
            00CE  Ftime$T3CCTL1$0$0                
            00CE  Fusb$T3CCTL1$0$0                 
            00CE  Fusb_cdc_acm$T3CCTL1$0$0         
            00CE  Fvibes_lab_radio_protocol$T3CCTL1
            00CE  Fvibes_lab_tx_5_0$T3CCTL1$0$0    
            00CF  Fadc$T3CC1$0$0                   
            00CF  Fboard$T3CC1$0$0                 
            00CF  Fdma$T3CC1$0$0                   
            00CF  Fgpio$T3CC1$0$0                  
            00CF  Fgreen_led$T3CC1$0$0             
            00CF  Ftime$T3CC1$0$0                  
            00CF  Fusb$T3CC1$0$0                   
            00CF  Fusb_cdc_acm$T3CC1$0$0           
            00CF  Fvibes_lab_radio_protocol$T3CC1$0
            00CF  Fvibes_lab_tx_5_0$T3CC1$0$0      
            00D0  Fadc$P$0$0                       
            00D0  Fadc$PSW$0$0                     
            00D0  Fboard$P$0$0                     
            00D0  Fboard$PSW$0$0                   
            00D0  Fdma$P$0$0                       
            00D0  Fdma$PSW$0$0                     
            00D0  Fgpio$P$0$0                      
            00D0  Fgpio$PSW$0$0                    
            00D0  Fgreen_led$P$0$0                 
            00D0  Fgreen_led$PSW$0$0               
            00D0  Ftime$P$0$0                      
            00D0  Ftime$PSW$0$0                    
            00D0  Fusb$P$0$0                       
            00D0  Fusb$PSW$0$0                     
            00D0  Fusb_cdc_acm$P$0$0               
            00D0  Fusb_cdc_acm$PSW$0$0             
            00D0  Fvibes_lab_radio_protocol$P$0$0  
            00D0  Fvibes_lab_radio_protocol$PSW$0$0
            00D0  Fvibes_lab_tx_5_0$P$0$0          
            00D0  Fvibes_lab_tx_5_0$PSW$0$0        
            00D1  Fadc$DMAIRQ$0$0                  
            00D1  Fadc$F1$0$0                      
            00D1  Fboard$DMAIRQ$0$0                
            00D1  Fboard$F1$0$0                    
ASxxxx Linker V02.00 + NoICE + sdld,  page 35.
Hexadecimal

Area                               Addr   Size   Decimal Bytes (Attributes)
--------------------------------   ----   ----   ------- ----- ------------
.	.ABS.                            0000   0000 =      0. bytes (ABS,CON)

      Value  Global                              Global Defined In Module
      -----  ---------------------------------   ------------------------
            00D1  Fdma$DMAIRQ$0$0                  
            00D1  Fdma$F1$0$0                      
            00D1  Fgpio$DMAIRQ$0$0                 
            00D1  Fgpio$F1$0$0                     
            00D1  Fgreen_led$DMAIRQ$0$0            
            00D1  Fgreen_led$F1$0$0                
            00D1  Ftime$DMAIRQ$0$0                 
            00D1  Ftime$F1$0$0                     
            00D1  Fusb$DMAIRQ$0$0                  
            00D1  Fusb$F1$0$0                      
            00D1  Fusb_cdc_acm$DMAIRQ$0$0          
            00D1  Fusb_cdc_acm$F1$0$0              
            00D1  Fvibes_lab_radio_protocol$DMAIRQ$
            00D1  Fvibes_lab_radio_protocol$F1$0$0 
            00D1  Fvibes_lab_tx_5_0$DMAIRQ$0$0     
            00D1  Fvibes_lab_tx_5_0$F1$0$0         
            00D2  Fadc$DMA1CFGL$0$0                
            00D2  Fadc$OV$0$0                      
            00D2  Fboard$DMA1CFGL$0$0              
            00D2  Fboard$OV$0$0                    
            00D2  Fdma$DMA1CFGL$0$0                
            00D2  Fdma$OV$0$0                      
            00D2  Fgpio$DMA1CFGL$0$0               
            00D2  Fgpio$OV$0$0                     
            00D2  Fgreen_led$DMA1CFGL$0$0          
            00D2  Fgreen_led$OV$0$0                
            00D2  Ftime$DMA1CFGL$0$0               
            00D2  Ftime$OV$0$0                     
            00D2  Fusb$DMA1CFGL$0$0                
            00D2  Fusb$OV$0$0                      
            00D2  Fusb_cdc_acm$DMA1CFGL$0$0        
            00D2  Fusb_cdc_acm$OV$0$0              
            00D2  Fvibes_lab_radio_protocol$DMA1CFG
            00D2  Fvibes_lab_radio_protocol$OV$0$0 
            00D2  Fvibes_lab_tx_5_0$DMA1CFGL$0$0   
            00D2  Fvibes_lab_tx_5_0$OV$0$0         
            00D3  Fadc$DMA1CFGH$0$0                
            00D3  Fadc$RS0$0$0                     
            00D3  Fboard$DMA1CFGH$0$0              
            00D3  Fboard$RS0$0$0                   
            00D3  Fdma$DMA1CFGH$0$0                
            00D3  Fdma$RS0$0$0                     
            00D3  Fgpio$DMA1CFGH$0$0               
            00D3  Fgpio$RS0$0$0                    
            00D3  Fgreen_led$DMA1CFGH$0$0          
            00D3  Fgreen_led$RS0$0$0               
            00D3  Ftime$DMA1CFGH$0$0               
            00D3  Ftime$RS0$0$0                    
            00D3  Fusb$DMA1CFGH$0$0                
            00D3  Fusb$RS0$0$0                     
            00D3  Fusb_cdc_acm$DMA1CFGH$0$0        
ASxxxx Linker V02.00 + NoICE + sdld,  page 36.
Hexadecimal

Area                               Addr   Size   Decimal Bytes (Attributes)
--------------------------------   ----   ----   ------- ----- ------------
.	.ABS.                            0000   0000 =      0. bytes (ABS,CON)

      Value  Global                              Global Defined In Module
      -----  ---------------------------------   ------------------------
            00D3  Fusb_cdc_acm$RS0$0$0             
            00D3  Fvibes_lab_radio_protocol$DMA1CFG
            00D3  Fvibes_lab_radio_protocol$RS0$0$0
            00D3  Fvibes_lab_tx_5_0$DMA1CFGH$0$0   
            00D3  Fvibes_lab_tx_5_0$RS0$0$0        
            00D4  Fadc$DMA0CFGL$0$0                
            00D4  Fadc$RS1$0$0                     
            00D4  Fboard$DMA0CFGL$0$0              
            00D4  Fboard$RS1$0$0                   
            00D4  Fdma$DMA0CFGL$0$0                
            00D4  Fdma$RS1$0$0                     
            00D4  Fgpio$DMA0CFGL$0$0               
            00D4  Fgpio$RS1$0$0                    
            00D4  Fgreen_led$DMA0CFGL$0$0          
            00D4  Fgreen_led$RS1$0$0               
            00D4  Ftime$DMA0CFGL$0$0               
            00D4  Ftime$RS1$0$0                    
            00D4  Fusb$DMA0CFGL$0$0                
            00D4  Fusb$RS1$0$0                     
            00D4  Fusb_cdc_acm$DMA0CFGL$0$0        
            00D4  Fusb_cdc_acm$RS1$0$0             
            00D4  Fvibes_lab_radio_protocol$DMA0CFG
            00D4  Fvibes_lab_radio_protocol$RS1$0$0
            00D4  Fvibes_lab_tx_5_0$DMA0CFGL$0$0   
            00D4  Fvibes_lab_tx_5_0$RS1$0$0        
            00D5  Fadc$DMA0CFGH$0$0                
            00D5  Fadc$F0$0$0                      
            00D5  Fboard$DMA0CFGH$0$0              
            00D5  Fboard$F0$0$0                    
            00D5  Fdma$DMA0CFGH$0$0                
            00D5  Fdma$F0$0$0                      
            00D5  Fgpio$DMA0CFGH$0$0               
            00D5  Fgpio$F0$0$0                     
            00D5  Fgreen_led$DMA0CFGH$0$0          
            00D5  Fgreen_led$F0$0$0                
            00D5  Ftime$DMA0CFGH$0$0               
            00D5  Ftime$F0$0$0                     
            00D5  Fusb$DMA0CFGH$0$0                
            00D5  Fusb$F0$0$0                      
            00D5  Fusb_cdc_acm$DMA0CFGH$0$0        
            00D5  Fusb_cdc_acm$F0$0$0              
            00D5  Fvibes_lab_radio_protocol$DMA0CFG
            00D5  Fvibes_lab_radio_protocol$F0$0$0 
            00D5  Fvibes_lab_tx_5_0$DMA0CFGH$0$0   
            00D5  Fvibes_lab_tx_5_0$F0$0$0         
            00D6  Fadc$AC$0$0                      
            00D6  Fadc$DMAARM$0$0                  
            00D6  Fboard$AC$0$0                    
            00D6  Fboard$DMAARM$0$0                
            00D6  Fdma$AC$0$0                      
            00D6  Fdma$DMAARM$0$0                  
ASxxxx Linker V02.00 + NoICE + sdld,  page 37.
Hexadecimal

Area                               Addr   Size   Decimal Bytes (Attributes)
--------------------------------   ----   ----   ------- ----- ------------
.	.ABS.                            0000   0000 =      0. bytes (ABS,CON)

      Value  Global                              Global Defined In Module
      -----  ---------------------------------   ------------------------
            00D6  Fgpio$AC$0$0                     
            00D6  Fgpio$DMAARM$0$0                 
            00D6  Fgreen_led$AC$0$0                
            00D6  Fgreen_led$DMAARM$0$0            
            00D6  Ftime$AC$0$0                     
            00D6  Ftime$DMAARM$0$0                 
            00D6  Fusb$AC$0$0                      
            00D6  Fusb$DMAARM$0$0                  
            00D6  Fusb_cdc_acm$AC$0$0              
            00D6  Fusb_cdc_acm$DMAARM$0$0          
            00D6  Fvibes_lab_radio_protocol$AC$0$0 
            00D6  Fvibes_lab_radio_protocol$DMAARM$
            00D6  Fvibes_lab_tx_5_0$AC$0$0         
            00D6  Fvibes_lab_tx_5_0$DMAARM$0$0     
            00D7  Fadc$CY$0$0                      
            00D7  Fadc$DMAREQ$0$0                  
            00D7  Fboard$CY$0$0                    
            00D7  Fboard$DMAREQ$0$0                
            00D7  Fdma$CY$0$0                      
            00D7  Fdma$DMAREQ$0$0                  
            00D7  Fgpio$CY$0$0                     
            00D7  Fgpio$DMAREQ$0$0                 
            00D7  Fgreen_led$CY$0$0                
            00D7  Fgreen_led$DMAREQ$0$0            
            00D7  Ftime$CY$0$0                     
            00D7  Ftime$DMAREQ$0$0                 
            00D7  Fusb$CY$0$0                      
            00D7  Fusb$DMAREQ$0$0                  
            00D7  Fusb_cdc_acm$CY$0$0              
            00D7  Fusb_cdc_acm$DMAREQ$0$0          
            00D7  Fvibes_lab_radio_protocol$CY$0$0 
            00D7  Fvibes_lab_radio_protocol$DMAREQ$
            00D7  Fvibes_lab_tx_5_0$CY$0$0         
            00D7  Fvibes_lab_tx_5_0$DMAREQ$0$0     
            00D8  Fadc$T3OVFIF$0$0                 
            00D8  Fadc$TIMIF$0$0                   
            00D8  Fboard$T3OVFIF$0$0               
            00D8  Fboard$TIMIF$0$0                 
            00D8  Fdma$T3OVFIF$0$0                 
            00D8  Fdma$TIMIF$0$0                   
            00D8  Fgpio$T3OVFIF$0$0                
            00D8  Fgpio$TIMIF$0$0                  
            00D8  Fgreen_led$T3OVFIF$0$0           
            00D8  Fgreen_led$TIMIF$0$0             
            00D8  Ftime$T3OVFIF$0$0                
            00D8  Ftime$TIMIF$0$0                  
            00D8  Fusb$T3OVFIF$0$0                 
            00D8  Fusb$TIMIF$0$0                   
            00D8  Fusb_cdc_acm$T3OVFIF$0$0         
            00D8  Fusb_cdc_acm$TIMIF$0$0           
            00D8  Fvibes_lab_radio_protocol$T3OVFIF
ASxxxx Linker V02.00 + NoICE + sdld,  page 38.
Hexadecimal

Area                               Addr   Size   Decimal Bytes (Attributes)
--------------------------------   ----   ----   ------- ----- ------------
.	.ABS.                            0000   0000 =      0. bytes (ABS,CON)

      Value  Global                              Global Defined In Module
      -----  ---------------------------------   ------------------------
            00D8  Fvibes_lab_radio_protocol$TIMIF$0
            00D8  Fvibes_lab_tx_5_0$T3OVFIF$0$0    
            00D8  Fvibes_lab_tx_5_0$TIMIF$0$0      
            00D9  Fadc$RFD$0$0                     
            00D9  Fadc$T3CH0IF$0$0                 
            00D9  Fboard$RFD$0$0                   
            00D9  Fboard$T3CH0IF$0$0               
            00D9  Fdma$RFD$0$0                     
            00D9  Fdma$T3CH0IF$0$0                 
            00D9  Fgpio$RFD$0$0                    
            00D9  Fgpio$T3CH0IF$0$0                
            00D9  Fgreen_led$RFD$0$0               
            00D9  Fgreen_led$T3CH0IF$0$0           
            00D9  Ftime$RFD$0$0                    
            00D9  Ftime$T3CH0IF$0$0                
            00D9  Fusb$RFD$0$0                     
            00D9  Fusb$T3CH0IF$0$0                 
            00D9  Fusb_cdc_acm$RFD$0$0             
            00D9  Fusb_cdc_acm$T3CH0IF$0$0         
            00D9  Fvibes_lab_radio_protocol$RFD$0$0
            00D9  Fvibes_lab_radio_protocol$T3CH0IF
            00D9  Fvibes_lab_tx_5_0$RFD$0$0        
            00D9  Fvibes_lab_tx_5_0$T3CH0IF$0$0    
            00DA  Fadc$T1CC0L$0$0                  
            00DA  Fadc$T3CH1IF$0$0                 
            00DA  Fboard$T1CC0L$0$0                
            00DA  Fboard$T3CH1IF$0$0               
            00DA  Fdma$T1CC0L$0$0                  
            00DA  Fdma$T3CH1IF$0$0                 
            00DA  Fgpio$T1CC0L$0$0                 
            00DA  Fgpio$T3CH1IF$0$0                
            00DA  Fgreen_led$T1CC0L$0$0            
            00DA  Fgreen_led$T3CH1IF$0$0           
            00DA  Ftime$T1CC0L$0$0                 
            00DA  Ftime$T3CH1IF$0$0                
            00DA  Fusb$T1CC0L$0$0                  
            00DA  Fusb$T3CH1IF$0$0                 
            00DA  Fusb_cdc_acm$T1CC0L$0$0          
            00DA  Fusb_cdc_acm$T3CH1IF$0$0         
            00DA  Fvibes_lab_radio_protocol$T1CC0L$
            00DA  Fvibes_lab_radio_protocol$T3CH1IF
            00DA  Fvibes_lab_tx_5_0$T1CC0L$0$0     
            00DA  Fvibes_lab_tx_5_0$T3CH1IF$0$0    
            00DB  Fadc$T1CC0H$0$0                  
            00DB  Fadc$T4OVFIF$0$0                 
            00DB  Fboard$T1CC0H$0$0                
            00DB  Fboard$T4OVFIF$0$0               
            00DB  Fdma$T1CC0H$0$0                  
            00DB  Fdma$T4OVFIF$0$0                 
            00DB  Fgpio$T1CC0H$0$0                 
            00DB  Fgpio$T4OVFIF$0$0                
ASxxxx Linker V02.00 + NoICE + sdld,  page 39.
Hexadecimal

Area                               Addr   Size   Decimal Bytes (Attributes)
--------------------------------   ----   ----   ------- ----- ------------
.	.ABS.                            0000   0000 =      0. bytes (ABS,CON)

      Value  Global                              Global Defined In Module
      -----  ---------------------------------   ------------------------
            00DB  Fgreen_led$T1CC0H$0$0            
            00DB  Fgreen_led$T4OVFIF$0$0           
            00DB  Ftime$T1CC0H$0$0                 
            00DB  Ftime$T4OVFIF$0$0                
            00DB  Fusb$T1CC0H$0$0                  
            00DB  Fusb$T4OVFIF$0$0                 
            00DB  Fusb_cdc_acm$T1CC0H$0$0          
            00DB  Fusb_cdc_acm$T4OVFIF$0$0         
            00DB  Fvibes_lab_radio_protocol$T1CC0H$
            00DB  Fvibes_lab_radio_protocol$T4OVFIF
            00DB  Fvibes_lab_tx_5_0$T1CC0H$0$0     
            00DB  Fvibes_lab_tx_5_0$T4OVFIF$0$0    
            00DC  Fadc$T1CC1L$0$0                  
            00DC  Fadc$T4CH0IF$0$0                 
            00DC  Fboard$T1CC1L$0$0                
            00DC  Fboard$T4CH0IF$0$0               
            00DC  Fdma$T1CC1L$0$0                  
            00DC  Fdma$T4CH0IF$0$0                 
            00DC  Fgpio$T1CC1L$0$0                 
            00DC  Fgpio$T4CH0IF$0$0                
            00DC  Fgreen_led$T1CC1L$0$0            
            00DC  Fgreen_led$T4CH0IF$0$0           
            00DC  Ftime$T1CC1L$0$0                 
            00DC  Ftime$T4CH0IF$0$0                
            00DC  Fusb$T1CC1L$0$0                  
            00DC  Fusb$T4CH0IF$0$0                 
            00DC  Fusb_cdc_acm$T1CC1L$0$0          
            00DC  Fusb_cdc_acm$T4CH0IF$0$0         
            00DC  Fvibes_lab_radio_protocol$T1CC1L$
            00DC  Fvibes_lab_radio_protocol$T4CH0IF
            00DC  Fvibes_lab_tx_5_0$T1CC1L$0$0     
            00DC  Fvibes_lab_tx_5_0$T4CH0IF$0$0    
            00DD  Fadc$T1CC1H$0$0                  
            00DD  Fadc$T4CH1IF$0$0                 
            00DD  Fboard$T1CC1H$0$0                
            00DD  Fboard$T4CH1IF$0$0               
            00DD  Fdma$T1CC1H$0$0                  
            00DD  Fdma$T4CH1IF$0$0                 
            00DD  Fgpio$T1CC1H$0$0                 
            00DD  Fgpio$T4CH1IF$0$0                
            00DD  Fgreen_led$T1CC1H$0$0            
            00DD  Fgreen_led$T4CH1IF$0$0           
            00DD  Ftime$T1CC1H$0$0                 
            00DD  Ftime$T4CH1IF$0$0                
            00DD  Fusb$T1CC1H$0$0                  
            00DD  Fusb$T4CH1IF$0$0                 
            00DD  Fusb_cdc_acm$T1CC1H$0$0          
            00DD  Fusb_cdc_acm$T4CH1IF$0$0         
            00DD  Fvibes_lab_radio_protocol$T1CC1H$
            00DD  Fvibes_lab_radio_protocol$T4CH1IF
            00DD  Fvibes_lab_tx_5_0$T1CC1H$0$0     
ASxxxx Linker V02.00 + NoICE + sdld,  page 40.
Hexadecimal

Area                               Addr   Size   Decimal Bytes (Attributes)
--------------------------------   ----   ----   ------- ----- ------------
.	.ABS.                            0000   0000 =      0. bytes (ABS,CON)

      Value  Global                              Global Defined In Module
      -----  ---------------------------------   ------------------------
            00DD  Fvibes_lab_tx_5_0$T4CH1IF$0$0    
            00DE  Fadc$OVFIM$0$0                   
            00DE  Fadc$T1CC2L$0$0                  
            00DE  Fboard$OVFIM$0$0                 
            00DE  Fboard$T1CC2L$0$0                
            00DE  Fdma$OVFIM$0$0                   
            00DE  Fdma$T1CC2L$0$0                  
            00DE  Fgpio$OVFIM$0$0                  
            00DE  Fgpio$T1CC2L$0$0                 
            00DE  Fgreen_led$OVFIM$0$0             
            00DE  Fgreen_led$T1CC2L$0$0            
            00DE  Ftime$OVFIM$0$0                  
            00DE  Ftime$T1CC2L$0$0                 
            00DE  Fusb$OVFIM$0$0                   
            00DE  Fusb$T1CC2L$0$0                  
            00DE  Fusb_cdc_acm$OVFIM$0$0           
            00DE  Fusb_cdc_acm$T1CC2L$0$0          
            00DE  Fvibes_lab_radio_protocol$OVFIM$0
            00DE  Fvibes_lab_radio_protocol$T1CC2L$
            00DE  Fvibes_lab_tx_5_0$OVFIM$0$0      
            00DE  Fvibes_lab_tx_5_0$T1CC2L$0$0     
            00DF  Fadc$T1CC2H$0$0                  
            00DF  Fadc$_TIMIF7$0$0                 
            00DF  Fboard$T1CC2H$0$0                
            00DF  Fboard$_TIMIF7$0$0               
            00DF  Fdma$T1CC2H$0$0                  
            00DF  Fdma$_TIMIF7$0$0                 
            00DF  Fgpio$T1CC2H$0$0                 
            00DF  Fgpio$_TIMIF7$0$0                
            00DF  Fgreen_led$T1CC2H$0$0            
            00DF  Fgreen_led$_TIMIF7$0$0           
            00DF  Ftime$T1CC2H$0$0                 
            00DF  Ftime$_TIMIF7$0$0                
            00DF  Fusb$T1CC2H$0$0                  
            00DF  Fusb$_TIMIF7$0$0                 
            00DF  Fusb_cdc_acm$T1CC2H$0$0          
            00DF  Fusb_cdc_acm$_TIMIF7$0$0         
            00DF  Fvibes_lab_radio_protocol$T1CC2H$
            00DF  Fvibes_lab_radio_protocol$_TIMIF7
            00DF  Fvibes_lab_tx_5_0$T1CC2H$0$0     
            00DF  Fvibes_lab_tx_5_0$_TIMIF7$0$0    
            00E0  Fadc$ACC$0$0                     
            00E0  Fadc$ACC_0$0$0                   
            00E0  Fboard$ACC$0$0                   
            00E0  Fboard$ACC_0$0$0                 
            00E0  Fdma$ACC$0$0                     
            00E0  Fdma$ACC_0$0$0                   
            00E0  Fgpio$ACC$0$0                    
            00E0  Fgpio$ACC_0$0$0                  
            00E0  Fgreen_led$ACC$0$0               
            00E0  Fgreen_led$ACC_0$0$0             
ASxxxx Linker V02.00 + NoICE + sdld,  page 41.
Hexadecimal

Area                               Addr   Size   Decimal Bytes (Attributes)
--------------------------------   ----   ----   ------- ----- ------------
.	.ABS.                            0000   0000 =      0. bytes (ABS,CON)

      Value  Global                              Global Defined In Module
      -----  ---------------------------------   ------------------------
            00E0  Ftime$ACC$0$0                    
            00E0  Ftime$ACC_0$0$0                  
            00E0  Fusb$ACC$0$0                     
            00E0  Fusb$ACC_0$0$0                   
            00E0  Fusb_cdc_acm$ACC$0$0             
            00E0  Fusb_cdc_acm$ACC_0$0$0           
            00E0  Fvibes_lab_radio_protocol$ACC$0$0
            00E0  Fvibes_lab_radio_protocol$ACC_0$0
            00E0  Fvibes_lab_tx_5_0$ACC$0$0        
            00E0  Fvibes_lab_tx_5_0$ACC_0$0$0      
            00E1  Fadc$ACC_1$0$0                   
            00E1  Fadc$RFST$0$0                    
            00E1  Fboard$ACC_1$0$0                 
            00E1  Fboard$RFST$0$0                  
            00E1  Fdma$ACC_1$0$0                   
            00E1  Fdma$RFST$0$0                    
            00E1  Fgpio$ACC_1$0$0                  
            00E1  Fgpio$RFST$0$0                   
            00E1  Fgreen_led$ACC_1$0$0             
            00E1  Fgreen_led$RFST$0$0              
            00E1  Ftime$ACC_1$0$0                  
            00E1  Ftime$RFST$0$0                   
            00E1  Fusb$ACC_1$0$0                   
            00E1  Fusb$RFST$0$0                    
            00E1  Fusb_cdc_acm$ACC_1$0$0           
            00E1  Fusb_cdc_acm$RFST$0$0            
            00E1  Fvibes_lab_radio_protocol$ACC_1$0
            00E1  Fvibes_lab_radio_protocol$RFST$0$
            00E1  Fvibes_lab_tx_5_0$ACC_1$0$0      
            00E1  Fvibes_lab_tx_5_0$RFST$0$0       
            00E2  Fadc$ACC_2$0$0                   
            00E2  Fadc$T1CNTL$0$0                  
            00E2  Fboard$ACC_2$0$0                 
            00E2  Fboard$T1CNTL$0$0                
            00E2  Fdma$ACC_2$0$0                   
            00E2  Fdma$T1CNTL$0$0                  
            00E2  Fgpio$ACC_2$0$0                  
            00E2  Fgpio$T1CNTL$0$0                 
            00E2  Fgreen_led$ACC_2$0$0             
            00E2  Fgreen_led$T1CNTL$0$0            
            00E2  Ftime$ACC_2$0$0                  
            00E2  Ftime$T1CNTL$0$0                 
            00E2  Fusb$ACC_2$0$0                   
            00E2  Fusb$T1CNTL$0$0                  
            00E2  Fusb_cdc_acm$ACC_2$0$0           
            00E2  Fusb_cdc_acm$T1CNTL$0$0          
            00E2  Fvibes_lab_radio_protocol$ACC_2$0
            00E2  Fvibes_lab_radio_protocol$T1CNTL$
            00E2  Fvibes_lab_tx_5_0$ACC_2$0$0      
            00E2  Fvibes_lab_tx_5_0$T1CNTL$0$0     
            00E3  Fadc$ACC_3$0$0                   
ASxxxx Linker V02.00 + NoICE + sdld,  page 42.
Hexadecimal

Area                               Addr   Size   Decimal Bytes (Attributes)
--------------------------------   ----   ----   ------- ----- ------------
.	.ABS.                            0000   0000 =      0. bytes (ABS,CON)

      Value  Global                              Global Defined In Module
      -----  ---------------------------------   ------------------------
            00E3  Fadc$T1CNTH$0$0                  
            00E3  Fboard$ACC_3$0$0                 
            00E3  Fboard$T1CNTH$0$0                
            00E3  Fdma$ACC_3$0$0                   
            00E3  Fdma$T1CNTH$0$0                  
            00E3  Fgpio$ACC_3$0$0                  
            00E3  Fgpio$T1CNTH$0$0                 
            00E3  Fgreen_led$ACC_3$0$0             
            00E3  Fgreen_led$T1CNTH$0$0            
            00E3  Ftime$ACC_3$0$0                  
            00E3  Ftime$T1CNTH$0$0                 
            00E3  Fusb$ACC_3$0$0                   
            00E3  Fusb$T1CNTH$0$0                  
            00E3  Fusb_cdc_acm$ACC_3$0$0           
            00E3  Fusb_cdc_acm$T1CNTH$0$0          
            00E3  Fvibes_lab_radio_protocol$ACC_3$0
            00E3  Fvibes_lab_radio_protocol$T1CNTH$
            00E3  Fvibes_lab_tx_5_0$ACC_3$0$0      
            00E3  Fvibes_lab_tx_5_0$T1CNTH$0$0     
            00E4  Fadc$ACC_4$0$0                   
            00E4  Fadc$T1CTL$0$0                   
            00E4  Fboard$ACC_4$0$0                 
            00E4  Fboard$T1CTL$0$0                 
            00E4  Fdma$ACC_4$0$0                   
            00E4  Fdma$T1CTL$0$0                   
            00E4  Fgpio$ACC_4$0$0                  
            00E4  Fgpio$T1CTL$0$0                  
            00E4  Fgreen_led$ACC_4$0$0             
            00E4  Fgreen_led$T1CTL$0$0             
            00E4  Ftime$ACC_4$0$0                  
            00E4  Ftime$T1CTL$0$0                  
            00E4  Fusb$ACC_4$0$0                   
            00E4  Fusb$T1CTL$0$0                   
            00E4  Fusb_cdc_acm$ACC_4$0$0           
            00E4  Fusb_cdc_acm$T1CTL$0$0           
            00E4  Fvibes_lab_radio_protocol$ACC_4$0
            00E4  Fvibes_lab_radio_protocol$T1CTL$0
            00E4  Fvibes_lab_tx_5_0$ACC_4$0$0      
            00E4  Fvibes_lab_tx_5_0$T1CTL$0$0      
            00E5  Fadc$ACC_5$0$0                   
            00E5  Fadc$T1CCTL0$0$0                 
            00E5  Fboard$ACC_5$0$0                 
            00E5  Fboard$T1CCTL0$0$0               
            00E5  Fdma$ACC_5$0$0                   
            00E5  Fdma$T1CCTL0$0$0                 
            00E5  Fgpio$ACC_5$0$0                  
            00E5  Fgpio$T1CCTL0$0$0                
            00E5  Fgreen_led$ACC_5$0$0             
            00E5  Fgreen_led$T1CCTL0$0$0           
            00E5  Ftime$ACC_5$0$0                  
            00E5  Ftime$T1CCTL0$0$0                
ASxxxx Linker V02.00 + NoICE + sdld,  page 43.
Hexadecimal

Area                               Addr   Size   Decimal Bytes (Attributes)
--------------------------------   ----   ----   ------- ----- ------------
.	.ABS.                            0000   0000 =      0. bytes (ABS,CON)

      Value  Global                              Global Defined In Module
      -----  ---------------------------------   ------------------------
            00E5  Fusb$ACC_5$0$0                   
            00E5  Fusb$T1CCTL0$0$0                 
            00E5  Fusb_cdc_acm$ACC_5$0$0           
            00E5  Fusb_cdc_acm$T1CCTL0$0$0         
            00E5  Fvibes_lab_radio_protocol$ACC_5$0
            00E5  Fvibes_lab_radio_protocol$T1CCTL0
            00E5  Fvibes_lab_tx_5_0$ACC_5$0$0      
            00E5  Fvibes_lab_tx_5_0$T1CCTL0$0$0    
            00E6  Fadc$ACC_6$0$0                   
            00E6  Fadc$T1CCTL1$0$0                 
            00E6  Fboard$ACC_6$0$0                 
            00E6  Fboard$T1CCTL1$0$0               
            00E6  Fdma$ACC_6$0$0                   
            00E6  Fdma$T1CCTL1$0$0                 
            00E6  Fgpio$ACC_6$0$0                  
            00E6  Fgpio$T1CCTL1$0$0                
            00E6  Fgreen_led$ACC_6$0$0             
            00E6  Fgreen_led$T1CCTL1$0$0           
            00E6  Ftime$ACC_6$0$0                  
            00E6  Ftime$T1CCTL1$0$0                
            00E6  Fusb$ACC_6$0$0                   
            00E6  Fusb$T1CCTL1$0$0                 
            00E6  Fusb_cdc_acm$ACC_6$0$0           
            00E6  Fusb_cdc_acm$T1CCTL1$0$0         
            00E6  Fvibes_lab_radio_protocol$ACC_6$0
            00E6  Fvibes_lab_radio_protocol$T1CCTL1
            00E6  Fvibes_lab_tx_5_0$ACC_6$0$0      
            00E6  Fvibes_lab_tx_5_0$T1CCTL1$0$0    
            00E7  Fadc$ACC_7$0$0                   
            00E7  Fadc$T1CCTL2$0$0                 
            00E7  Fboard$ACC_7$0$0                 
            00E7  Fboard$T1CCTL2$0$0               
            00E7  Fdma$ACC_7$0$0                   
            00E7  Fdma$T1CCTL2$0$0                 
            00E7  Fgpio$ACC_7$0$0                  
            00E7  Fgpio$T1CCTL2$0$0                
            00E7  Fgreen_led$ACC_7$0$0             
            00E7  Fgreen_led$T1CCTL2$0$0           
            00E7  Ftime$ACC_7$0$0                  
            00E7  Ftime$T1CCTL2$0$0                
            00E7  Fusb$ACC_7$0$0                   
            00E7  Fusb$T1CCTL2$0$0                 
            00E7  Fusb_cdc_acm$ACC_7$0$0           
            00E7  Fusb_cdc_acm$T1CCTL2$0$0         
            00E7  Fvibes_lab_radio_protocol$ACC_7$0
            00E7  Fvibes_lab_radio_protocol$T1CCTL2
            00E7  Fvibes_lab_tx_5_0$ACC_7$0$0      
            00E7  Fvibes_lab_tx_5_0$T1CCTL2$0$0    
            00E8  Fadc$IRCON2$0$0                  
            00E8  Fadc$P2IF$0$0                    
            00E8  Fboard$IRCON2$0$0                
ASxxxx Linker V02.00 + NoICE + sdld,  page 44.
Hexadecimal

Area                               Addr   Size   Decimal Bytes (Attributes)
--------------------------------   ----   ----   ------- ----- ------------
.	.ABS.                            0000   0000 =      0. bytes (ABS,CON)

      Value  Global                              Global Defined In Module
      -----  ---------------------------------   ------------------------
            00E8  Fboard$P2IF$0$0                  
            00E8  Fdma$IRCON2$0$0                  
            00E8  Fdma$P2IF$0$0                    
            00E8  Fgpio$IRCON2$0$0                 
            00E8  Fgpio$P2IF$0$0                   
            00E8  Fgreen_led$IRCON2$0$0            
            00E8  Fgreen_led$P2IF$0$0              
            00E8  Ftime$IRCON2$0$0                 
            00E8  Ftime$P2IF$0$0                   
            00E8  Fusb$IRCON2$0$0                  
            00E8  Fusb$P2IF$0$0                    
            00E8  Fusb_cdc_acm$IRCON2$0$0          
            00E8  Fusb_cdc_acm$P2IF$0$0            
            00E8  Fvibes_lab_radio_protocol$IRCON2$
            00E8  Fvibes_lab_radio_protocol$P2IF$0$
            00E8  Fvibes_lab_tx_5_0$IRCON2$0$0     
            00E8  Fvibes_lab_tx_5_0$P2IF$0$0       
            00E9  Fadc$RFIF$0$0                    
            00E9  Fadc$UTX0IF$0$0                  
            00E9  Fboard$RFIF$0$0                  
            00E9  Fboard$UTX0IF$0$0                
            00E9  Fdma$RFIF$0$0                    
            00E9  Fdma$UTX0IF$0$0                  
            00E9  Fgpio$RFIF$0$0                   
            00E9  Fgpio$UTX0IF$0$0                 
            00E9  Fgreen_led$RFIF$0$0              
            00E9  Fgreen_led$UTX0IF$0$0            
            00E9  Ftime$RFIF$0$0                   
            00E9  Ftime$UTX0IF$0$0                 
            00E9  Fusb$RFIF$0$0                    
            00E9  Fusb$UTX0IF$0$0                  
            00E9  Fusb_cdc_acm$RFIF$0$0            
            00E9  Fusb_cdc_acm$UTX0IF$0$0          
            00E9  Fvibes_lab_radio_protocol$RFIF$0$
            00E9  Fvibes_lab_radio_protocol$UTX0IF$
            00E9  Fvibes_lab_tx_5_0$RFIF$0$0       
            00E9  Fvibes_lab_tx_5_0$UTX0IF$0$0     
            00EA  Fadc$T4CNT$0$0                   
            00EA  Fadc$UTX1IF$0$0                  
            00EA  Fboard$T4CNT$0$0                 
            00EA  Fboard$UTX1IF$0$0                
            00EA  Fdma$T4CNT$0$0                   
            00EA  Fdma$UTX1IF$0$0                  
            00EA  Fgpio$T4CNT$0$0                  
            00EA  Fgpio$UTX1IF$0$0                 
            00EA  Fgreen_led$T4CNT$0$0             
            00EA  Fgreen_led$UTX1IF$0$0            
            00EA  Ftime$T4CNT$0$0                  
            00EA  Ftime$UTX1IF$0$0                 
            00EA  Fusb$T4CNT$0$0                   
            00EA  Fusb$UTX1IF$0$0                  
ASxxxx Linker V02.00 + NoICE + sdld,  page 45.
Hexadecimal

Area                               Addr   Size   Decimal Bytes (Attributes)
--------------------------------   ----   ----   ------- ----- ------------
.	.ABS.                            0000   0000 =      0. bytes (ABS,CON)

      Value  Global                              Global Defined In Module
      -----  ---------------------------------   ------------------------
            00EA  Fusb_cdc_acm$T4CNT$0$0           
            00EA  Fusb_cdc_acm$UTX1IF$0$0          
            00EA  Fvibes_lab_radio_protocol$T4CNT$0
            00EA  Fvibes_lab_radio_protocol$UTX1IF$
            00EA  Fvibes_lab_tx_5_0$T4CNT$0$0      
            00EA  Fvibes_lab_tx_5_0$UTX1IF$0$0     
            00EB  Fadc$P1IF$0$0                    
            00EB  Fadc$T4CTL$0$0                   
            00EB  Fboard$P1IF$0$0                  
            00EB  Fboard$T4CTL$0$0                 
            00EB  Fdma$P1IF$0$0                    
            00EB  Fdma$T4CTL$0$0                   
            00EB  Fgpio$P1IF$0$0                   
            00EB  Fgpio$T4CTL$0$0                  
            00EB  Fgreen_led$P1IF$0$0              
            00EB  Fgreen_led$T4CTL$0$0             
            00EB  Ftime$P1IF$0$0                   
            00EB  Ftime$T4CTL$0$0                  
            00EB  Fusb$P1IF$0$0                    
            00EB  Fusb$T4CTL$0$0                   
            00EB  Fusb_cdc_acm$P1IF$0$0            
            00EB  Fusb_cdc_acm$T4CTL$0$0           
            00EB  Fvibes_lab_radio_protocol$P1IF$0$
            00EB  Fvibes_lab_radio_protocol$T4CTL$0
            00EB  Fvibes_lab_tx_5_0$P1IF$0$0       
            00EB  Fvibes_lab_tx_5_0$T4CTL$0$0      
            00EC  Fadc$T4CCTL0$0$0                 
            00EC  Fadc$WDTIF$0$0                   
            00EC  Fboard$T4CCTL0$0$0               
            00EC  Fboard$WDTIF$0$0                 
            00EC  Fdma$T4CCTL0$0$0                 
            00EC  Fdma$WDTIF$0$0                   
            00EC  Fgpio$T4CCTL0$0$0                
            00EC  Fgpio$WDTIF$0$0                  
            00EC  Fgreen_led$T4CCTL0$0$0           
            00EC  Fgreen_led$WDTIF$0$0             
            00EC  Ftime$T4CCTL0$0$0                
            00EC  Ftime$WDTIF$0$0                  
            00EC  Fusb$T4CCTL0$0$0                 
            00EC  Fusb$WDTIF$0$0                   
            00EC  Fusb_cdc_acm$T4CCTL0$0$0         
            00EC  Fusb_cdc_acm$WDTIF$0$0           
            00EC  Fvibes_lab_radio_protocol$T4CCTL0
            00EC  Fvibes_lab_radio_protocol$WDTIF$0
            00EC  Fvibes_lab_tx_5_0$T4CCTL0$0$0    
            00EC  Fvibes_lab_tx_5_0$WDTIF$0$0      
            00ED  Fadc$T4CC0$0$0                   
            00ED  Fadc$_IRCON25$0$0                
            00ED  Fboard$T4CC0$0$0                 
            00ED  Fboard$_IRCON25$0$0              
            00ED  Fdma$T4CC0$0$0                   
ASxxxx Linker V02.00 + NoICE + sdld,  page 46.
Hexadecimal

Area                               Addr   Size   Decimal Bytes (Attributes)
--------------------------------   ----   ----   ------- ----- ------------
.	.ABS.                            0000   0000 =      0. bytes (ABS,CON)

      Value  Global                              Global Defined In Module
      -----  ---------------------------------   ------------------------
            00ED  Fdma$_IRCON25$0$0                
            00ED  Fgpio$T4CC0$0$0                  
            00ED  Fgpio$_IRCON25$0$0               
            00ED  Fgreen_led$T4CC0$0$0             
            00ED  Fgreen_led$_IRCON25$0$0          
            00ED  Ftime$T4CC0$0$0                  
            00ED  Ftime$_IRCON25$0$0               
            00ED  Fusb$T4CC0$0$0                   
            00ED  Fusb$_IRCON25$0$0                
            00ED  Fusb_cdc_acm$T4CC0$0$0           
            00ED  Fusb_cdc_acm$_IRCON25$0$0        
            00ED  Fvibes_lab_radio_protocol$T4CC0$0
            00ED  Fvibes_lab_radio_protocol$_IRCON2
            00ED  Fvibes_lab_tx_5_0$T4CC0$0$0      
            00ED  Fvibes_lab_tx_5_0$_IRCON25$0$0   
            00EE  Fadc$T4CCTL1$0$0                 
            00EE  Fadc$_IRCON26$0$0                
            00EE  Fboard$T4CCTL1$0$0               
            00EE  Fboard$_IRCON26$0$0              
            00EE  Fdma$T4CCTL1$0$0                 
            00EE  Fdma$_IRCON26$0$0                
            00EE  Fgpio$T4CCTL1$0$0                
            00EE  Fgpio$_IRCON26$0$0               
            00EE  Fgreen_led$T4CCTL1$0$0           
            00EE  Fgreen_led$_IRCON26$0$0          
            00EE  Ftime$T4CCTL1$0$0                
            00EE  Ftime$_IRCON26$0$0               
            00EE  Fusb$T4CCTL1$0$0                 
            00EE  Fusb$_IRCON26$0$0                
            00EE  Fusb_cdc_acm$T4CCTL1$0$0         
            00EE  Fusb_cdc_acm$_IRCON26$0$0        
            00EE  Fvibes_lab_radio_protocol$T4CCTL1
            00EE  Fvibes_lab_radio_protocol$_IRCON2
            00EE  Fvibes_lab_tx_5_0$T4CCTL1$0$0    
            00EE  Fvibes_lab_tx_5_0$_IRCON26$0$0   
            00EF  Fadc$T4CC1$0$0                   
            00EF  Fadc$_IRCON27$0$0                
            00EF  Fboard$T4CC1$0$0                 
            00EF  Fboard$_IRCON27$0$0              
            00EF  Fdma$T4CC1$0$0                   
            00EF  Fdma$_IRCON27$0$0                
            00EF  Fgpio$T4CC1$0$0                  
            00EF  Fgpio$_IRCON27$0$0               
            00EF  Fgreen_led$T4CC1$0$0             
            00EF  Fgreen_led$_IRCON27$0$0          
            00EF  Ftime$T4CC1$0$0                  
            00EF  Ftime$_IRCON27$0$0               
            00EF  Fusb$T4CC1$0$0                   
            00EF  Fusb$_IRCON27$0$0                
            00EF  Fusb_cdc_acm$T4CC1$0$0           
            00EF  Fusb_cdc_acm$_IRCON27$0$0        
ASxxxx Linker V02.00 + NoICE + sdld,  page 47.
Hexadecimal

Area                               Addr   Size   Decimal Bytes (Attributes)
--------------------------------   ----   ----   ------- ----- ------------
.	.ABS.                            0000   0000 =      0. bytes (ABS,CON)

      Value  Global                              Global Defined In Module
      -----  ---------------------------------   ------------------------
            00EF  Fvibes_lab_radio_protocol$T4CC1$0
            00EF  Fvibes_lab_radio_protocol$_IRCON2
            00EF  Fvibes_lab_tx_5_0$T4CC1$0$0      
            00EF  Fvibes_lab_tx_5_0$_IRCON27$0$0   
            00F0  Fadc$B$0$0                       
            00F0  Fadc$B_0$0$0                     
            00F0  Fboard$B$0$0                     
            00F0  Fboard$B_0$0$0                   
            00F0  Fdma$B$0$0                       
            00F0  Fdma$B_0$0$0                     
            00F0  Fgpio$B$0$0                      
            00F0  Fgpio$B_0$0$0                    
            00F0  Fgreen_led$B$0$0                 
            00F0  Fgreen_led$B_0$0$0               
            00F0  Ftime$B$0$0                      
            00F0  Ftime$B_0$0$0                    
            00F0  Fusb$B$0$0                       
            00F0  Fusb$B_0$0$0                     
            00F0  Fusb_cdc_acm$B$0$0               
            00F0  Fusb_cdc_acm$B_0$0$0             
            00F0  Fvibes_lab_radio_protocol$B$0$0  
            00F0  Fvibes_lab_radio_protocol$B_0$0$0
            00F0  Fvibes_lab_tx_5_0$B$0$0          
            00F0  Fvibes_lab_tx_5_0$B_0$0$0        
            00F1  Fadc$B_1$0$0                     
            00F1  Fadc$PERCFG$0$0                  
            00F1  Fboard$B_1$0$0                   
            00F1  Fboard$PERCFG$0$0                
            00F1  Fdma$B_1$0$0                     
            00F1  Fdma$PERCFG$0$0                  
            00F1  Fgpio$B_1$0$0                    
            00F1  Fgpio$PERCFG$0$0                 
            00F1  Fgreen_led$B_1$0$0               
            00F1  Fgreen_led$PERCFG$0$0            
            00F1  Ftime$B_1$0$0                    
            00F1  Ftime$PERCFG$0$0                 
            00F1  Fusb$B_1$0$0                     
            00F1  Fusb$PERCFG$0$0                  
            00F1  Fusb_cdc_acm$B_1$0$0             
            00F1  Fusb_cdc_acm$PERCFG$0$0          
            00F1  Fvibes_lab_radio_protocol$B_1$0$0
            00F1  Fvibes_lab_radio_protocol$PERCFG$
            00F1  Fvibes_lab_tx_5_0$B_1$0$0        
            00F1  Fvibes_lab_tx_5_0$PERCFG$0$0     
            00F2  Fadc$ADCCFG$0$0                  
            00F2  Fadc$B_2$0$0                     
            00F2  Fboard$ADCCFG$0$0                
            00F2  Fboard$B_2$0$0                   
            00F2  Fdma$ADCCFG$0$0                  
            00F2  Fdma$B_2$0$0                     
            00F2  Fgpio$ADCCFG$0$0                 
ASxxxx Linker V02.00 + NoICE + sdld,  page 48.
Hexadecimal

Area                               Addr   Size   Decimal Bytes (Attributes)
--------------------------------   ----   ----   ------- ----- ------------
.	.ABS.                            0000   0000 =      0. bytes (ABS,CON)

      Value  Global                              Global Defined In Module
      -----  ---------------------------------   ------------------------
            00F2  Fgpio$B_2$0$0                    
            00F2  Fgreen_led$ADCCFG$0$0            
            00F2  Fgreen_led$B_2$0$0               
            00F2  Ftime$ADCCFG$0$0                 
            00F2  Ftime$B_2$0$0                    
            00F2  Fusb$ADCCFG$0$0                  
            00F2  Fusb$B_2$0$0                     
            00F2  Fusb_cdc_acm$ADCCFG$0$0          
            00F2  Fusb_cdc_acm$B_2$0$0             
            00F2  Fvibes_lab_radio_protocol$ADCCFG$
            00F2  Fvibes_lab_radio_protocol$B_2$0$0
            00F2  Fvibes_lab_tx_5_0$ADCCFG$0$0     
            00F2  Fvibes_lab_tx_5_0$B_2$0$0        
            00F3  Fadc$B_3$0$0                     
            00F3  Fadc$P0SEL$0$0                   
            00F3  Fboard$B_3$0$0                   
            00F3  Fboard$P0SEL$0$0                 
            00F3  Fdma$B_3$0$0                     
            00F3  Fdma$P0SEL$0$0                   
            00F3  Fgpio$B_3$0$0                    
            00F3  Fgpio$P0SEL$0$0                  
            00F3  Fgreen_led$B_3$0$0               
            00F3  Fgreen_led$P0SEL$0$0             
            00F3  Ftime$B_3$0$0                    
            00F3  Ftime$P0SEL$0$0                  
            00F3  Fusb$B_3$0$0                     
            00F3  Fusb$P0SEL$0$0                   
            00F3  Fusb_cdc_acm$B_3$0$0             
            00F3  Fusb_cdc_acm$P0SEL$0$0           
            00F3  Fvibes_lab_radio_protocol$B_3$0$0
            00F3  Fvibes_lab_radio_protocol$P0SEL$0
            00F3  Fvibes_lab_tx_5_0$B_3$0$0        
            00F3  Fvibes_lab_tx_5_0$P0SEL$0$0      
            00F4  Fadc$B_4$0$0                     
            00F4  Fadc$P1SEL$0$0                   
            00F4  Fboard$B_4$0$0                   
            00F4  Fboard$P1SEL$0$0                 
            00F4  Fdma$B_4$0$0                     
            00F4  Fdma$P1SEL$0$0                   
            00F4  Fgpio$B_4$0$0                    
            00F4  Fgpio$P1SEL$0$0                  
            00F4  Fgreen_led$B_4$0$0               
            00F4  Fgreen_led$P1SEL$0$0             
            00F4  Ftime$B_4$0$0                    
            00F4  Ftime$P1SEL$0$0                  
            00F4  Fusb$B_4$0$0                     
            00F4  Fusb$P1SEL$0$0                   
            00F4  Fusb_cdc_acm$B_4$0$0             
            00F4  Fusb_cdc_acm$P1SEL$0$0           
            00F4  Fvibes_lab_radio_protocol$B_4$0$0
            00F4  Fvibes_lab_radio_protocol$P1SEL$0
ASxxxx Linker V02.00 + NoICE + sdld,  page 49.
Hexadecimal

Area                               Addr   Size   Decimal Bytes (Attributes)
--------------------------------   ----   ----   ------- ----- ------------
.	.ABS.                            0000   0000 =      0. bytes (ABS,CON)

      Value  Global                              Global Defined In Module
      -----  ---------------------------------   ------------------------
            00F4  Fvibes_lab_tx_5_0$B_4$0$0        
            00F4  Fvibes_lab_tx_5_0$P1SEL$0$0      
            00F5  Fadc$B_5$0$0                     
            00F5  Fadc$P2SEL$0$0                   
            00F5  Fboard$B_5$0$0                   
            00F5  Fboard$P2SEL$0$0                 
            00F5  Fdma$B_5$0$0                     
            00F5  Fdma$P2SEL$0$0                   
            00F5  Fgpio$B_5$0$0                    
            00F5  Fgpio$P2SEL$0$0                  
            00F5  Fgreen_led$B_5$0$0               
            00F5  Fgreen_led$P2SEL$0$0             
            00F5  Ftime$B_5$0$0                    
            00F5  Ftime$P2SEL$0$0                  
            00F5  Fusb$B_5$0$0                     
            00F5  Fusb$P2SEL$0$0                   
            00F5  Fusb_cdc_acm$B_5$0$0             
            00F5  Fusb_cdc_acm$P2SEL$0$0           
            00F5  Fvibes_lab_radio_protocol$B_5$0$0
            00F5  Fvibes_lab_radio_protocol$P2SEL$0
            00F5  Fvibes_lab_tx_5_0$B_5$0$0        
            00F5  Fvibes_lab_tx_5_0$P2SEL$0$0      
            00F6  Fadc$B_6$0$0                     
            00F6  Fadc$P1INP$0$0                   
            00F6  Fboard$B_6$0$0                   
            00F6  Fboard$P1INP$0$0                 
            00F6  Fdma$B_6$0$0                     
            00F6  Fdma$P1INP$0$0                   
            00F6  Fgpio$B_6$0$0                    
            00F6  Fgpio$P1INP$0$0                  
            00F6  Fgreen_led$B_6$0$0               
            00F6  Fgreen_led$P1INP$0$0             
            00F6  Ftime$B_6$0$0                    
            00F6  Ftime$P1INP$0$0                  
            00F6  Fusb$B_6$0$0                     
            00F6  Fusb$P1INP$0$0                   
            00F6  Fusb_cdc_acm$B_6$0$0             
            00F6  Fusb_cdc_acm$P1INP$0$0           
            00F6  Fvibes_lab_radio_protocol$B_6$0$0
            00F6  Fvibes_lab_radio_protocol$P1INP$0
            00F6  Fvibes_lab_tx_5_0$B_6$0$0        
            00F6  Fvibes_lab_tx_5_0$P1INP$0$0      
            00F7  Fadc$B_7$0$0                     
            00F7  Fadc$P2INP$0$0                   
            00F7  Fboard$B_7$0$0                   
            00F7  Fboard$P2INP$0$0                 
            00F7  Fdma$B_7$0$0                     
            00F7  Fdma$P2INP$0$0                   
            00F7  Fgpio$B_7$0$0                    
            00F7  Fgpio$P2INP$0$0                  
            00F7  Fgreen_led$B_7$0$0               
ASxxxx Linker V02.00 + NoICE + sdld,  page 50.
Hexadecimal

Area                               Addr   Size   Decimal Bytes (Attributes)
--------------------------------   ----   ----   ------- ----- ------------
.	.ABS.                            0000   0000 =      0. bytes (ABS,CON)

      Value  Global                              Global Defined In Module
      -----  ---------------------------------   ------------------------
            00F7  Fgreen_led$P2INP$0$0             
            00F7  Ftime$B_7$0$0                    
            00F7  Ftime$P2INP$0$0                  
            00F7  Fusb$B_7$0$0                     
            00F7  Fusb$P2INP$0$0                   
            00F7  Fusb_cdc_acm$B_7$0$0             
            00F7  Fusb_cdc_acm$P2INP$0$0           
            00F7  Fvibes_lab_radio_protocol$B_7$0$0
            00F7  Fvibes_lab_radio_protocol$P2INP$0
            00F7  Fvibes_lab_tx_5_0$B_7$0$0        
            00F7  Fvibes_lab_tx_5_0$P2INP$0$0      
            00F8  Fadc$U1ACTIVE$0$0                
            00F8  Fadc$U1CSR$0$0                   
            00F8  Fboard$U1ACTIVE$0$0              
            00F8  Fboard$U1CSR$0$0                 
            00F8  Fdma$U1ACTIVE$0$0                
            00F8  Fdma$U1CSR$0$0                   
            00F8  Fgpio$U1ACTIVE$0$0               
            00F8  Fgpio$U1CSR$0$0                  
            00F8  Fgreen_led$U1ACTIVE$0$0          
            00F8  Fgreen_led$U1CSR$0$0             
            00F8  Ftime$U1ACTIVE$0$0               
            00F8  Ftime$U1CSR$0$0                  
            00F8  Fusb$U1ACTIVE$0$0                
            00F8  Fusb$U1CSR$0$0                   
            00F8  Fusb_cdc_acm$U1ACTIVE$0$0        
            00F8  Fusb_cdc_acm$U1CSR$0$0           
            00F8  Fvibes_lab_radio_protocol$U1ACTIV
            00F8  Fvibes_lab_radio_protocol$U1CSR$0
            00F8  Fvibes_lab_tx_5_0$U1ACTIVE$0$0   
            00F8  Fvibes_lab_tx_5_0$U1CSR$0$0      
            00F9  Fadc$U1DBUF$0$0                  
            00F9  Fadc$U1TX_BYTE$0$0               
            00F9  Fboard$U1DBUF$0$0                
            00F9  Fboard$U1TX_BYTE$0$0             
            00F9  Fdma$U1DBUF$0$0                  
            00F9  Fdma$U1TX_BYTE$0$0               
            00F9  Fgpio$U1DBUF$0$0                 
            00F9  Fgpio$U1TX_BYTE$0$0              
            00F9  Fgreen_led$U1DBUF$0$0            
            00F9  Fgreen_led$U1TX_BYTE$0$0         
            00F9  Ftime$U1DBUF$0$0                 
            00F9  Ftime$U1TX_BYTE$0$0              
            00F9  Fusb$U1DBUF$0$0                  
            00F9  Fusb$U1TX_BYTE$0$0               
            00F9  Fusb_cdc_acm$U1DBUF$0$0          
            00F9  Fusb_cdc_acm$U1TX_BYTE$0$0       
            00F9  Fvibes_lab_radio_protocol$U1DBUF$
            00F9  Fvibes_lab_radio_protocol$U1TX_BY
            00F9  Fvibes_lab_tx_5_0$U1DBUF$0$0     
            00F9  Fvibes_lab_tx_5_0$U1TX_BYTE$0$0  
ASxxxx Linker V02.00 + NoICE + sdld,  page 51.
Hexadecimal

Area                               Addr   Size   Decimal Bytes (Attributes)
--------------------------------   ----   ----   ------- ----- ------------
.	.ABS.                            0000   0000 =      0. bytes (ABS,CON)

      Value  Global                              Global Defined In Module
      -----  ---------------------------------   ------------------------
            00FA  Fadc$U1BAUD$0$0                  
            00FA  Fadc$U1RX_BYTE$0$0               
            00FA  Fboard$U1BAUD$0$0                
            00FA  Fboard$U1RX_BYTE$0$0             
            00FA  Fdma$U1BAUD$0$0                  
            00FA  Fdma$U1RX_BYTE$0$0               
            00FA  Fgpio$U1BAUD$0$0                 
            00FA  Fgpio$U1RX_BYTE$0$0              
            00FA  Fgreen_led$U1BAUD$0$0            
            00FA  Fgreen_led$U1RX_BYTE$0$0         
            00FA  Ftime$U1BAUD$0$0                 
            00FA  Ftime$U1RX_BYTE$0$0              
            00FA  Fusb$U1BAUD$0$0                  
            00FA  Fusb$U1RX_BYTE$0$0               
            00FA  Fusb_cdc_acm$U1BAUD$0$0          
            00FA  Fusb_cdc_acm$U1RX_BYTE$0$0       
            00FA  Fvibes_lab_radio_protocol$U1BAUD$
            00FA  Fvibes_lab_radio_protocol$U1RX_BY
            00FA  Fvibes_lab_tx_5_0$U1BAUD$0$0     
            00FA  Fvibes_lab_tx_5_0$U1RX_BYTE$0$0  
            00FB  Fadc$U1ERR$0$0                   
            00FB  Fadc$U1UCR$0$0                   
            00FB  Fboard$U1ERR$0$0                 
            00FB  Fboard$U1UCR$0$0                 
            00FB  Fdma$U1ERR$0$0                   
            00FB  Fdma$U1UCR$0$0                   
            00FB  Fgpio$U1ERR$0$0                  
            00FB  Fgpio$U1UCR$0$0                  
            00FB  Fgreen_led$U1ERR$0$0             
            00FB  Fgreen_led$U1UCR$0$0             
            00FB  Ftime$U1ERR$0$0                  
            00FB  Ftime$U1UCR$0$0                  
            00FB  Fusb$U1ERR$0$0                   
            00FB  Fusb$U1UCR$0$0                   
            00FB  Fusb_cdc_acm$U1ERR$0$0           
            00FB  Fusb_cdc_acm$U1UCR$0$0           
            00FB  Fvibes_lab_radio_protocol$U1ERR$0
            00FB  Fvibes_lab_radio_protocol$U1UCR$0
            00FB  Fvibes_lab_tx_5_0$U1ERR$0$0      
            00FB  Fvibes_lab_tx_5_0$U1UCR$0$0      
            00FC  Fadc$U1FE$0$0                    
            00FC  Fadc$U1GCR$0$0                   
            00FC  Fboard$U1FE$0$0                  
            00FC  Fboard$U1GCR$0$0                 
            00FC  Fdma$U1FE$0$0                    
            00FC  Fdma$U1GCR$0$0                   
            00FC  Fgpio$U1FE$0$0                   
            00FC  Fgpio$U1GCR$0$0                  
            00FC  Fgreen_led$U1FE$0$0              
            00FC  Fgreen_led$U1GCR$0$0             
            00FC  Ftime$U1FE$0$0                   
ASxxxx Linker V02.00 + NoICE + sdld,  page 52.
Hexadecimal

Area                               Addr   Size   Decimal Bytes (Attributes)
--------------------------------   ----   ----   ------- ----- ------------
.	.ABS.                            0000   0000 =      0. bytes (ABS,CON)

      Value  Global                              Global Defined In Module
      -----  ---------------------------------   ------------------------
            00FC  Ftime$U1GCR$0$0                  
            00FC  Fusb$U1FE$0$0                    
            00FC  Fusb$U1GCR$0$0                   
            00FC  Fusb_cdc_acm$U1FE$0$0            
            00FC  Fusb_cdc_acm$U1GCR$0$0           
            00FC  Fvibes_lab_radio_protocol$U1FE$0$
            00FC  Fvibes_lab_radio_protocol$U1GCR$0
            00FC  Fvibes_lab_tx_5_0$U1FE$0$0       
            00FC  Fvibes_lab_tx_5_0$U1GCR$0$0      
            00FD  Fadc$P0DIR$0$0                   
            00FD  Fadc$U1SLAVE$0$0                 
            00FD  Fboard$P0DIR$0$0                 
            00FD  Fboard$U1SLAVE$0$0               
            00FD  Fdma$P0DIR$0$0                   
            00FD  Fdma$U1SLAVE$0$0                 
            00FD  Fgpio$P0DIR$0$0                  
            00FD  Fgpio$U1SLAVE$0$0                
            00FD  Fgreen_led$P0DIR$0$0             
            00FD  Fgreen_led$U1SLAVE$0$0           
            00FD  Ftime$P0DIR$0$0                  
            00FD  Ftime$U1SLAVE$0$0                
            00FD  Fusb$P0DIR$0$0                   
            00FD  Fusb$U1SLAVE$0$0                 
            00FD  Fusb_cdc_acm$P0DIR$0$0           
            00FD  Fusb_cdc_acm$U1SLAVE$0$0         
            00FD  Fvibes_lab_radio_protocol$P0DIR$0
            00FD  Fvibes_lab_radio_protocol$U1SLAVE
            00FD  Fvibes_lab_tx_5_0$P0DIR$0$0      
            00FD  Fvibes_lab_tx_5_0$U1SLAVE$0$0    
            00FE  Fadc$P1DIR$0$0                   
            00FE  Fadc$U1RE$0$0                    
            00FE  Fboard$P1DIR$0$0                 
            00FE  Fboard$U1RE$0$0                  
            00FE  Fdma$P1DIR$0$0                   
            00FE  Fdma$U1RE$0$0                    
            00FE  Fgpio$P1DIR$0$0                  
            00FE  Fgpio$U1RE$0$0                   
            00FE  Fgreen_led$P1DIR$0$0             
            00FE  Fgreen_led$U1RE$0$0              
            00FE  Ftime$P1DIR$0$0                  
            00FE  Ftime$U1RE$0$0                   
            00FE  Fusb$P1DIR$0$0                   
            00FE  Fusb$U1RE$0$0                    
            00FE  Fusb_cdc_acm$P1DIR$0$0           
            00FE  Fusb_cdc_acm$U1RE$0$0            
            00FE  Fvibes_lab_radio_protocol$P1DIR$0
            00FE  Fvibes_lab_radio_protocol$U1RE$0$
            00FE  Fvibes_lab_tx_5_0$P1DIR$0$0      
            00FE  Fvibes_lab_tx_5_0$U1RE$0$0       
            00FF  Fadc$P2DIR$0$0                   
            00FF  Fadc$U1MODE$0$0                  
ASxxxx Linker V02.00 + NoICE + sdld,  page 53.
Hexadecimal

Area                               Addr   Size   Decimal Bytes (Attributes)
--------------------------------   ----   ----   ------- ----- ------------
.	.ABS.                            0000   0000 =      0. bytes (ABS,CON)

      Value  Global                              Global Defined In Module
      -----  ---------------------------------   ------------------------
            00FF  Fboard$P2DIR$0$0                 
            00FF  Fboard$U1MODE$0$0                
            00FF  Fdma$P2DIR$0$0                   
            00FF  Fdma$U1MODE$0$0                  
            00FF  Fgpio$P2DIR$0$0                  
            00FF  Fgpio$U1MODE$0$0                 
            00FF  Fgreen_led$P2DIR$0$0             
            00FF  Fgreen_led$U1MODE$0$0            
            00FF  Ftime$P2DIR$0$0                  
            00FF  Ftime$U1MODE$0$0                 
            00FF  Fusb$P2DIR$0$0                   
            00FF  Fusb$U1MODE$0$0                  
            00FF  Fusb_cdc_acm$P2DIR$0$0           
            00FF  Fusb_cdc_acm$U1MODE$0$0          
            00FF  Fvibes_lab_radio_protocol$P2DIR$0
            00FF  Fvibes_lab_radio_protocol$U1MODE$
            00FF  Fvibes_lab_tx_5_0$P2DIR$0$0      
            00FF  Fvibes_lab_tx_5_0$U1MODE$0$0     
            03CC  _bootloaderDeviceDescriptor      
            03E0  _serialNumber                    
            03E6  _serialNumberStringDescriptor    
            DE00  Fadc$USBADDR$0$0                 
            DE00  Fboard$USBADDR$0$0               
            DE00  Fdma$USBADDR$0$0                 
            DE00  Fgpio$USBADDR$0$0                
            DE00  Fgreen_led$USBADDR$0$0           
            DE00  Ftime$USBADDR$0$0                
            DE00  Fusb$USBADDR$0$0                 
            DE00  Fusb_cdc_acm$USBADDR$0$0         
            DE00  Fvibes_lab_radio_protocol$USBADDR
            DE00  Fvibes_lab_tx_5_0$USBADDR$0$0    
            DE01  Fadc$USBPOW$0$0                  
            DE01  Fboard$USBPOW$0$0                
            DE01  Fdma$USBPOW$0$0                  
            DE01  Fgpio$USBPOW$0$0                 
            DE01  Fgreen_led$USBPOW$0$0            
            DE01  Ftime$USBPOW$0$0                 
            DE01  Fusb$USBPOW$0$0                  
            DE01  Fusb_cdc_acm$USBPOW$0$0          
            DE01  Fvibes_lab_radio_protocol$USBPOW$
            DE01  Fvibes_lab_tx_5_0$USBPOW$0$0     
            DE02  Fadc$USBIIF$0$0                  
            DE02  Fboard$USBIIF$0$0                
            DE02  Fdma$USBIIF$0$0                  
            DE02  Fgpio$USBIIF$0$0                 
            DE02  Fgreen_led$USBIIF$0$0            
            DE02  Ftime$USBIIF$0$0                 
            DE02  Fusb$USBIIF$0$0                  
            DE02  Fusb_cdc_acm$USBIIF$0$0          
            DE02  Fvibes_lab_radio_protocol$USBIIF$
            DE02  Fvibes_lab_tx_5_0$USBIIF$0$0     
ASxxxx Linker V02.00 + NoICE + sdld,  page 54.
Hexadecimal

Area                               Addr   Size   Decimal Bytes (Attributes)
--------------------------------   ----   ----   ------- ----- ------------
.	.ABS.                            0000   0000 =      0. bytes (ABS,CON)

      Value  Global                              Global Defined In Module
      -----  ---------------------------------   ------------------------
            DE04  Fadc$USBOIF$0$0                  
            DE04  Fboard$USBOIF$0$0                
            DE04  Fdma$USBOIF$0$0                  
            DE04  Fgpio$USBOIF$0$0                 
            DE04  Fgreen_led$USBOIF$0$0            
            DE04  Ftime$USBOIF$0$0                 
            DE04  Fusb$USBOIF$0$0                  
            DE04  Fusb_cdc_acm$USBOIF$0$0          
            DE04  Fvibes_lab_radio_protocol$USBOIF$
            DE04  Fvibes_lab_tx_5_0$USBOIF$0$0     
            DE06  Fadc$USBCIF$0$0                  
            DE06  Fboard$USBCIF$0$0                
            DE06  Fdma$USBCIF$0$0                  
            DE06  Fgpio$USBCIF$0$0                 
            DE06  Fgreen_led$USBCIF$0$0            
            DE06  Ftime$USBCIF$0$0                 
            DE06  Fusb$USBCIF$0$0                  
            DE06  Fusb_cdc_acm$USBCIF$0$0          
            DE06  Fvibes_lab_radio_protocol$USBCIF$
            DE06  Fvibes_lab_tx_5_0$USBCIF$0$0     
            DE07  Fadc$USBIIE$0$0                  
            DE07  Fboard$USBIIE$0$0                
            DE07  Fdma$USBIIE$0$0                  
            DE07  Fgpio$USBIIE$0$0                 
            DE07  Fgreen_led$USBIIE$0$0            
            DE07  Ftime$USBIIE$0$0                 
            DE07  Fusb$USBIIE$0$0                  
            DE07  Fusb_cdc_acm$USBIIE$0$0          
            DE07  Fvibes_lab_radio_protocol$USBIIE$
            DE07  Fvibes_lab_tx_5_0$USBIIE$0$0     
            DE09  Fadc$USBOIE$0$0                  
            DE09  Fboard$USBOIE$0$0                
            DE09  Fdma$USBOIE$0$0                  
            DE09  Fgpio$USBOIE$0$0                 
            DE09  Fgreen_led$USBOIE$0$0            
            DE09  Ftime$USBOIE$0$0                 
            DE09  Fusb$USBOIE$0$0                  
            DE09  Fusb_cdc_acm$USBOIE$0$0          
            DE09  Fvibes_lab_radio_protocol$USBOIE$
            DE09  Fvibes_lab_tx_5_0$USBOIE$0$0     
            DE0B  Fadc$USBCIE$0$0                  
            DE0B  Fboard$USBCIE$0$0                
            DE0B  Fdma$USBCIE$0$0                  
            DE0B  Fgpio$USBCIE$0$0                 
            DE0B  Fgreen_led$USBCIE$0$0            
            DE0B  Ftime$USBCIE$0$0                 
            DE0B  Fusb$USBCIE$0$0                  
            DE0B  Fusb_cdc_acm$USBCIE$0$0          
            DE0B  Fvibes_lab_radio_protocol$USBCIE$
            DE0B  Fvibes_lab_tx_5_0$USBCIE$0$0     
            DE0C  Fadc$USBFRML$0$0                 
ASxxxx Linker V02.00 + NoICE + sdld,  page 55.
Hexadecimal

Area                               Addr   Size   Decimal Bytes (Attributes)
--------------------------------   ----   ----   ------- ----- ------------
.	.ABS.                            0000   0000 =      0. bytes (ABS,CON)

      Value  Global                              Global Defined In Module
      -----  ---------------------------------   ------------------------
            DE0C  Fboard$USBFRML$0$0               
            DE0C  Fdma$USBFRML$0$0                 
            DE0C  Fgpio$USBFRML$0$0                
            DE0C  Fgreen_led$USBFRML$0$0           
            DE0C  Ftime$USBFRML$0$0                
            DE0C  Fusb$USBFRML$0$0                 
            DE0C  Fusb_cdc_acm$USBFRML$0$0         
            DE0C  Fvibes_lab_radio_protocol$USBFRML
            DE0C  Fvibes_lab_tx_5_0$USBFRML$0$0    
            DE0D  Fadc$USBFRMH$0$0                 
            DE0D  Fboard$USBFRMH$0$0               
            DE0D  Fdma$USBFRMH$0$0                 
            DE0D  Fgpio$USBFRMH$0$0                
            DE0D  Fgreen_led$USBFRMH$0$0           
            DE0D  Ftime$USBFRMH$0$0                
            DE0D  Fusb$USBFRMH$0$0                 
            DE0D  Fusb_cdc_acm$USBFRMH$0$0         
            DE0D  Fvibes_lab_radio_protocol$USBFRMH
            DE0D  Fvibes_lab_tx_5_0$USBFRMH$0$0    
            DE0E  Fadc$USBINDEX$0$0                
            DE0E  Fboard$USBINDEX$0$0              
            DE0E  Fdma$USBINDEX$0$0                
            DE0E  Fgpio$USBINDEX$0$0               
            DE0E  Fgreen_led$USBINDEX$0$0          
            DE0E  Ftime$USBINDEX$0$0               
            DE0E  Fusb$USBINDEX$0$0                
            DE0E  Fusb_cdc_acm$USBINDEX$0$0        
            DE0E  Fvibes_lab_radio_protocol$USBINDE
            DE0E  Fvibes_lab_tx_5_0$USBINDEX$0$0   
            DE10  Fadc$USBMAXI$0$0                 
            DE10  Fboard$USBMAXI$0$0               
            DE10  Fdma$USBMAXI$0$0                 
            DE10  Fgpio$USBMAXI$0$0                
            DE10  Fgreen_led$USBMAXI$0$0           
            DE10  Ftime$USBMAXI$0$0                
            DE10  Fusb$USBMAXI$0$0                 
            DE10  Fusb_cdc_acm$USBMAXI$0$0         
            DE10  Fvibes_lab_radio_protocol$USBMAXI
            DE10  Fvibes_lab_tx_5_0$USBMAXI$0$0    
            DE11  Fadc$USBCSIL$0$0                 
            DE11  Fboard$USBCSIL$0$0               
            DE11  Fdma$USBCSIL$0$0                 
            DE11  Fgpio$USBCSIL$0$0                
            DE11  Fgreen_led$USBCSIL$0$0           
            DE11  Ftime$USBCSIL$0$0                
            DE11  Fusb$USBCSIL$0$0                 
            DE11  Fusb_cdc_acm$USBCSIL$0$0         
            DE11  Fvibes_lab_radio_protocol$USBCSIL
            DE11  Fvibes_lab_tx_5_0$USBCSIL$0$0    
            DE12  Fadc$USBCSIH$0$0                 
            DE12  Fboard$USBCSIH$0$0               
ASxxxx Linker V02.00 + NoICE + sdld,  page 56.
Hexadecimal

Area                               Addr   Size   Decimal Bytes (Attributes)
--------------------------------   ----   ----   ------- ----- ------------
.	.ABS.                            0000   0000 =      0. bytes (ABS,CON)

      Value  Global                              Global Defined In Module
      -----  ---------------------------------   ------------------------
            DE12  Fdma$USBCSIH$0$0                 
            DE12  Fgpio$USBCSIH$0$0                
            DE12  Fgreen_led$USBCSIH$0$0           
            DE12  Ftime$USBCSIH$0$0                
            DE12  Fusb$USBCSIH$0$0                 
            DE12  Fusb_cdc_acm$USBCSIH$0$0         
            DE12  Fvibes_lab_radio_protocol$USBCSIH
            DE12  Fvibes_lab_tx_5_0$USBCSIH$0$0    
            DE13  Fadc$USBMAXO$0$0                 
            DE13  Fboard$USBMAXO$0$0               
            DE13  Fdma$USBMAXO$0$0                 
            DE13  Fgpio$USBMAXO$0$0                
            DE13  Fgreen_led$USBMAXO$0$0           
            DE13  Ftime$USBMAXO$0$0                
            DE13  Fusb$USBMAXO$0$0                 
            DE13  Fusb_cdc_acm$USBMAXO$0$0         
            DE13  Fvibes_lab_radio_protocol$USBMAXO
            DE13  Fvibes_lab_tx_5_0$USBMAXO$0$0    
            DE14  Fadc$USBCSOL$0$0                 
            DE14  Fboard$USBCSOL$0$0               
            DE14  Fdma$USBCSOL$0$0                 
            DE14  Fgpio$USBCSOL$0$0                
            DE14  Fgreen_led$USBCSOL$0$0           
            DE14  Ftime$USBCSOL$0$0                
            DE14  Fusb$USBCSOL$0$0                 
            DE14  Fusb_cdc_acm$USBCSOL$0$0         
            DE14  Fvibes_lab_radio_protocol$USBCSOL
            DE14  Fvibes_lab_tx_5_0$USBCSOL$0$0    
            DE15  Fadc$USBCSOH$0$0                 
            DE15  Fboard$USBCSOH$0$0               
            DE15  Fdma$USBCSOH$0$0                 
            DE15  Fgpio$USBCSOH$0$0                
            DE15  Fgreen_led$USBCSOH$0$0           
            DE15  Ftime$USBCSOH$0$0                
            DE15  Fusb$USBCSOH$0$0                 
            DE15  Fusb_cdc_acm$USBCSOH$0$0         
            DE15  Fvibes_lab_radio_protocol$USBCSOH
            DE15  Fvibes_lab_tx_5_0$USBCSOH$0$0    
            DE16  Fadc$USBCNTL$0$0                 
            DE16  Fboard$USBCNTL$0$0               
            DE16  Fdma$USBCNTL$0$0                 
            DE16  Fgpio$USBCNTL$0$0                
            DE16  Fgreen_led$USBCNTL$0$0           
            DE16  Ftime$USBCNTL$0$0                
            DE16  Fusb$USBCNTL$0$0                 
            DE16  Fusb_cdc_acm$USBCNTL$0$0         
            DE16  Fvibes_lab_radio_protocol$USBCNTL
            DE16  Fvibes_lab_tx_5_0$USBCNTL$0$0    
            DE17  Fadc$USBCNTH$0$0                 
            DE17  Fboard$USBCNTH$0$0               
            DE17  Fdma$USBCNTH$0$0                 
ASxxxx Linker V02.00 + NoICE + sdld,  page 57.
Hexadecimal

Area                               Addr   Size   Decimal Bytes (Attributes)
--------------------------------   ----   ----   ------- ----- ------------
.	.ABS.                            0000   0000 =      0. bytes (ABS,CON)

      Value  Global                              Global Defined In Module
      -----  ---------------------------------   ------------------------
            DE17  Fgpio$USBCNTH$0$0                
            DE17  Fgreen_led$USBCNTH$0$0           
            DE17  Ftime$USBCNTH$0$0                
            DE17  Fusb$USBCNTH$0$0                 
            DE17  Fusb_cdc_acm$USBCNTH$0$0         
            DE17  Fvibes_lab_radio_protocol$USBCNTH
            DE17  Fvibes_lab_tx_5_0$USBCNTH$0$0    
            DE20  Fadc$USBF0$0$0                   
            DE20  Fboard$USBF0$0$0                 
            DE20  Fdma$USBF0$0$0                   
            DE20  Fgpio$USBF0$0$0                  
            DE20  Fgreen_led$USBF0$0$0             
            DE20  Ftime$USBF0$0$0                  
            DE20  Fusb$USBF0$0$0                   
            DE20  Fusb_cdc_acm$USBF0$0$0           
            DE20  Fvibes_lab_radio_protocol$USBF0$0
            DE20  Fvibes_lab_tx_5_0$USBF0$0$0      
            DE22  Fadc$USBF1$0$0                   
            DE22  Fboard$USBF1$0$0                 
            DE22  Fdma$USBF1$0$0                   
            DE22  Fgpio$USBF1$0$0                  
            DE22  Fgreen_led$USBF1$0$0             
            DE22  Ftime$USBF1$0$0                  
            DE22  Fusb$USBF1$0$0                   
            DE22  Fusb_cdc_acm$USBF1$0$0           
            DE22  Fvibes_lab_radio_protocol$USBF1$0
            DE22  Fvibes_lab_tx_5_0$USBF1$0$0      
            DE24  Fadc$USBF2$0$0                   
            DE24  Fboard$USBF2$0$0                 
            DE24  Fdma$USBF2$0$0                   
            DE24  Fgpio$USBF2$0$0                  
            DE24  Fgreen_led$USBF2$0$0             
            DE24  Ftime$USBF2$0$0                  
            DE24  Fusb$USBF2$0$0                   
            DE24  Fusb_cdc_acm$USBF2$0$0           
            DE24  Fvibes_lab_radio_protocol$USBF2$0
            DE24  Fvibes_lab_tx_5_0$USBF2$0$0      
            DE26  Fadc$USBF3$0$0                   
            DE26  Fboard$USBF3$0$0                 
            DE26  Fdma$USBF3$0$0                   
            DE26  Fgpio$USBF3$0$0                  
            DE26  Fgreen_led$USBF3$0$0             
            DE26  Ftime$USBF3$0$0                  
            DE26  Fusb$USBF3$0$0                   
            DE26  Fusb_cdc_acm$USBF3$0$0           
            DE26  Fvibes_lab_radio_protocol$USBF3$0
            DE26  Fvibes_lab_tx_5_0$USBF3$0$0      
            DE28  Fadc$USBF4$0$0                   
            DE28  Fboard$USBF4$0$0                 
            DE28  Fdma$USBF4$0$0                   
            DE28  Fgpio$USBF4$0$0                  
ASxxxx Linker V02.00 + NoICE + sdld,  page 58.
Hexadecimal

Area                               Addr   Size   Decimal Bytes (Attributes)
--------------------------------   ----   ----   ------- ----- ------------
.	.ABS.                            0000   0000 =      0. bytes (ABS,CON)

      Value  Global                              Global Defined In Module
      -----  ---------------------------------   ------------------------
            DE28  Fgreen_led$USBF4$0$0             
            DE28  Ftime$USBF4$0$0                  
            DE28  Fusb$USBF4$0$0                   
            DE28  Fusb_cdc_acm$USBF4$0$0           
            DE28  Fvibes_lab_radio_protocol$USBF4$0
            DE28  Fvibes_lab_tx_5_0$USBF4$0$0      
            DE2A  Fadc$USBF5$0$0                   
            DE2A  Fboard$USBF5$0$0                 
            DE2A  Fdma$USBF5$0$0                   
            DE2A  Fgpio$USBF5$0$0                  
            DE2A  Fgreen_led$USBF5$0$0             
            DE2A  Ftime$USBF5$0$0                  
            DE2A  Fusb$USBF5$0$0                   
            DE2A  Fusb_cdc_acm$USBF5$0$0           
            DE2A  Fvibes_lab_radio_protocol$USBF5$0
            DE2A  Fvibes_lab_tx_5_0$USBF5$0$0      
            DF00  Fadc$SYNC1$0$0                   
            DF00  Fboard$SYNC1$0$0                 
            DF00  Fdma$SYNC1$0$0                   
            DF00  Fgpio$SYNC1$0$0                  
            DF00  Fgreen_led$SYNC1$0$0             
            DF00  Ftime$SYNC1$0$0                  
            DF00  Fusb$SYNC1$0$0                   
            DF00  Fusb_cdc_acm$SYNC1$0$0           
            DF00  Fvibes_lab_radio_protocol$SYNC1$0
            DF00  Fvibes_lab_tx_5_0$SYNC1$0$0      
            DF01  Fadc$SYNC0$0$0                   
            DF01  Fboard$SYNC0$0$0                 
            DF01  Fdma$SYNC0$0$0                   
            DF01  Fgpio$SYNC0$0$0                  
            DF01  Fgreen_led$SYNC0$0$0             
            DF01  Ftime$SYNC0$0$0                  
            DF01  Fusb$SYNC0$0$0                   
            DF01  Fusb_cdc_acm$SYNC0$0$0           
            DF01  Fvibes_lab_radio_protocol$SYNC0$0
            DF01  Fvibes_lab_tx_5_0$SYNC0$0$0      
            DF02  Fadc$PKTLEN$0$0                  
            DF02  Fboard$PKTLEN$0$0                
            DF02  Fdma$PKTLEN$0$0                  
            DF02  Fgpio$PKTLEN$0$0                 
            DF02  Fgreen_led$PKTLEN$0$0            
            DF02  Ftime$PKTLEN$0$0                 
            DF02  Fusb$PKTLEN$0$0                  
            DF02  Fusb_cdc_acm$PKTLEN$0$0          
            DF02  Fvibes_lab_radio_protocol$PKTLEN$
            DF02  Fvibes_lab_tx_5_0$PKTLEN$0$0     
            DF03  Fadc$PKTCTRL1$0$0                
            DF03  Fboard$PKTCTRL1$0$0              
            DF03  Fdma$PKTCTRL1$0$0                
            DF03  Fgpio$PKTCTRL1$0$0               
            DF03  Fgreen_led$PKTCTRL1$0$0          
ASxxxx Linker V02.00 + NoICE + sdld,  page 59.
Hexadecimal

Area                               Addr   Size   Decimal Bytes (Attributes)
--------------------------------   ----   ----   ------- ----- ------------
.	.ABS.                            0000   0000 =      0. bytes (ABS,CON)

      Value  Global                              Global Defined In Module
      -----  ---------------------------------   ------------------------
            DF03  Ftime$PKTCTRL1$0$0               
            DF03  Fusb$PKTCTRL1$0$0                
            DF03  Fusb_cdc_acm$PKTCTRL1$0$0        
            DF03  Fvibes_lab_radio_protocol$PKTCTRL
            DF03  Fvibes_lab_tx_5_0$PKTCTRL1$0$0   
            DF04  Fadc$PKTCTRL0$0$0                
            DF04  Fboard$PKTCTRL0$0$0              
            DF04  Fdma$PKTCTRL0$0$0                
            DF04  Fgpio$PKTCTRL0$0$0               
            DF04  Fgreen_led$PKTCTRL0$0$0          
            DF04  Ftime$PKTCTRL0$0$0               
            DF04  Fusb$PKTCTRL0$0$0                
            DF04  Fusb_cdc_acm$PKTCTRL0$0$0        
            DF04  Fvibes_lab_radio_protocol$PKTCTRL
            DF04  Fvibes_lab_tx_5_0$PKTCTRL0$0$0   
            DF05  Fadc$ADDR$0$0                    
            DF05  Fboard$ADDR$0$0                  
            DF05  Fdma$ADDR$0$0                    
            DF05  Fgpio$ADDR$0$0                   
            DF05  Fgreen_led$ADDR$0$0              
            DF05  Ftime$ADDR$0$0                   
            DF05  Fusb$ADDR$0$0                    
            DF05  Fusb_cdc_acm$ADDR$0$0            
            DF05  Fvibes_lab_radio_protocol$ADDR$0$
            DF05  Fvibes_lab_tx_5_0$ADDR$0$0       
            DF06  Fadc$CHANNR$0$0                  
            DF06  Fboard$CHANNR$0$0                
            DF06  Fdma$CHANNR$0$0                  
            DF06  Fgpio$CHANNR$0$0                 
            DF06  Fgreen_led$CHANNR$0$0            
            DF06  Ftime$CHANNR$0$0                 
            DF06  Fusb$CHANNR$0$0                  
            DF06  Fusb_cdc_acm$CHANNR$0$0          
            DF06  Fvibes_lab_radio_protocol$CHANNR$
            DF06  Fvibes_lab_tx_5_0$CHANNR$0$0     
            DF07  Fadc$FSCTRL1$0$0                 
            DF07  Fboard$FSCTRL1$0$0               
            DF07  Fdma$FSCTRL1$0$0                 
            DF07  Fgpio$FSCTRL1$0$0                
            DF07  Fgreen_led$FSCTRL1$0$0           
            DF07  Ftime$FSCTRL1$0$0                
            DF07  Fusb$FSCTRL1$0$0                 
            DF07  Fusb_cdc_acm$FSCTRL1$0$0         
            DF07  Fvibes_lab_radio_protocol$FSCTRL1
            DF07  Fvibes_lab_tx_5_0$FSCTRL1$0$0    
            DF08  Fadc$FSCTRL0$0$0                 
            DF08  Fboard$FSCTRL0$0$0               
            DF08  Fdma$FSCTRL0$0$0                 
            DF08  Fgpio$FSCTRL0$0$0                
            DF08  Fgreen_led$FSCTRL0$0$0           
            DF08  Ftime$FSCTRL0$0$0                
ASxxxx Linker V02.00 + NoICE + sdld,  page 60.
Hexadecimal

Area                               Addr   Size   Decimal Bytes (Attributes)
--------------------------------   ----   ----   ------- ----- ------------
.	.ABS.                            0000   0000 =      0. bytes (ABS,CON)

      Value  Global                              Global Defined In Module
      -----  ---------------------------------   ------------------------
            DF08  Fusb$FSCTRL0$0$0                 
            DF08  Fusb_cdc_acm$FSCTRL0$0$0         
            DF08  Fvibes_lab_radio_protocol$FSCTRL0
            DF08  Fvibes_lab_tx_5_0$FSCTRL0$0$0    
            DF09  Fadc$FREQ2$0$0                   
            DF09  Fboard$FREQ2$0$0                 
            DF09  Fdma$FREQ2$0$0                   
            DF09  Fgpio$FREQ2$0$0                  
            DF09  Fgreen_led$FREQ2$0$0             
            DF09  Ftime$FREQ2$0$0                  
            DF09  Fusb$FREQ2$0$0                   
            DF09  Fusb_cdc_acm$FREQ2$0$0           
            DF09  Fvibes_lab_radio_protocol$FREQ2$0
            DF09  Fvibes_lab_tx_5_0$FREQ2$0$0      
            DF0A  Fadc$FREQ1$0$0                   
            DF0A  Fboard$FREQ1$0$0                 
            DF0A  Fdma$FREQ1$0$0                   
            DF0A  Fgpio$FREQ1$0$0                  
            DF0A  Fgreen_led$FREQ1$0$0             
            DF0A  Ftime$FREQ1$0$0                  
            DF0A  Fusb$FREQ1$0$0                   
            DF0A  Fusb_cdc_acm$FREQ1$0$0           
            DF0A  Fvibes_lab_radio_protocol$FREQ1$0
            DF0A  Fvibes_lab_tx_5_0$FREQ1$0$0      
            DF0B  Fadc$FREQ0$0$0                   
            DF0B  Fboard$FREQ0$0$0                 
            DF0B  Fdma$FREQ0$0$0                   
            DF0B  Fgpio$FREQ0$0$0                  
            DF0B  Fgreen_led$FREQ0$0$0             
            DF0B  Ftime$FREQ0$0$0                  
            DF0B  Fusb$FREQ0$0$0                   
            DF0B  Fusb_cdc_acm$FREQ0$0$0           
            DF0B  Fvibes_lab_radio_protocol$FREQ0$0
            DF0B  Fvibes_lab_tx_5_0$FREQ0$0$0      
            DF0C  Fadc$MDMCFG4$0$0                 
            DF0C  Fboard$MDMCFG4$0$0               
            DF0C  Fdma$MDMCFG4$0$0                 
            DF0C  Fgpio$MDMCFG4$0$0                
            DF0C  Fgreen_led$MDMCFG4$0$0           
            DF0C  Ftime$MDMCFG4$0$0                
            DF0C  Fusb$MDMCFG4$0$0                 
            DF0C  Fusb_cdc_acm$MDMCFG4$0$0         
            DF0C  Fvibes_lab_radio_protocol$MDMCFG4
            DF0C  Fvibes_lab_tx_5_0$MDMCFG4$0$0    
            DF0D  Fadc$MDMCFG3$0$0                 
            DF0D  Fboard$MDMCFG3$0$0               
            DF0D  Fdma$MDMCFG3$0$0                 
            DF0D  Fgpio$MDMCFG3$0$0                
            DF0D  Fgreen_led$MDMCFG3$0$0           
            DF0D  Ftime$MDMCFG3$0$0                
            DF0D  Fusb$MDMCFG3$0$0                 
ASxxxx Linker V02.00 + NoICE + sdld,  page 61.
Hexadecimal

Area                               Addr   Size   Decimal Bytes (Attributes)
--------------------------------   ----   ----   ------- ----- ------------
.	.ABS.                            0000   0000 =      0. bytes (ABS,CON)

      Value  Global                              Global Defined In Module
      -----  ---------------------------------   ------------------------
            DF0D  Fusb_cdc_acm$MDMCFG3$0$0         
            DF0D  Fvibes_lab_radio_protocol$MDMCFG3
            DF0D  Fvibes_lab_tx_5_0$MDMCFG3$0$0    
            DF0E  Fadc$MDMCFG2$0$0                 
            DF0E  Fboard$MDMCFG2$0$0               
            DF0E  Fdma$MDMCFG2$0$0                 
            DF0E  Fgpio$MDMCFG2$0$0                
            DF0E  Fgreen_led$MDMCFG2$0$0           
            DF0E  Ftime$MDMCFG2$0$0                
            DF0E  Fusb$MDMCFG2$0$0                 
            DF0E  Fusb_cdc_acm$MDMCFG2$0$0         
            DF0E  Fvibes_lab_radio_protocol$MDMCFG2
            DF0E  Fvibes_lab_tx_5_0$MDMCFG2$0$0    
            DF0F  Fadc$MDMCFG1$0$0                 
            DF0F  Fboard$MDMCFG1$0$0               
            DF0F  Fdma$MDMCFG1$0$0                 
            DF0F  Fgpio$MDMCFG1$0$0                
            DF0F  Fgreen_led$MDMCFG1$0$0           
            DF0F  Ftime$MDMCFG1$0$0                
            DF0F  Fusb$MDMCFG1$0$0                 
            DF0F  Fusb_cdc_acm$MDMCFG1$0$0         
            DF0F  Fvibes_lab_radio_protocol$MDMCFG1
            DF0F  Fvibes_lab_tx_5_0$MDMCFG1$0$0    
            DF10  Fadc$MDMCFG0$0$0                 
            DF10  Fboard$MDMCFG0$0$0               
            DF10  Fdma$MDMCFG0$0$0                 
            DF10  Fgpio$MDMCFG0$0$0                
            DF10  Fgreen_led$MDMCFG0$0$0           
            DF10  Ftime$MDMCFG0$0$0                
            DF10  Fusb$MDMCFG0$0$0                 
            DF10  Fusb_cdc_acm$MDMCFG0$0$0         
            DF10  Fvibes_lab_radio_protocol$MDMCFG0
            DF10  Fvibes_lab_tx_5_0$MDMCFG0$0$0    
            DF11  Fadc$DEVIATN$0$0                 
            DF11  Fboard$DEVIATN$0$0               
            DF11  Fdma$DEVIATN$0$0                 
            DF11  Fgpio$DEVIATN$0$0                
            DF11  Fgreen_led$DEVIATN$0$0           
            DF11  Ftime$DEVIATN$0$0                
            DF11  Fusb$DEVIATN$0$0                 
            DF11  Fusb_cdc_acm$DEVIATN$0$0         
            DF11  Fvibes_lab_radio_protocol$DEVIATN
            DF11  Fvibes_lab_tx_5_0$DEVIATN$0$0    
            DF12  Fadc$MCSM2$0$0                   
            DF12  Fboard$MCSM2$0$0                 
            DF12  Fdma$MCSM2$0$0                   
            DF12  Fgpio$MCSM2$0$0                  
            DF12  Fgreen_led$MCSM2$0$0             
            DF12  Ftime$MCSM2$0$0                  
            DF12  Fusb$MCSM2$0$0                   
            DF12  Fusb_cdc_acm$MCSM2$0$0           
ASxxxx Linker V02.00 + NoICE + sdld,  page 62.
Hexadecimal

Area                               Addr   Size   Decimal Bytes (Attributes)
--------------------------------   ----   ----   ------- ----- ------------
.	.ABS.                            0000   0000 =      0. bytes (ABS,CON)

      Value  Global                              Global Defined In Module
      -----  ---------------------------------   ------------------------
            DF12  Fvibes_lab_radio_protocol$MCSM2$0
            DF12  Fvibes_lab_tx_5_0$MCSM2$0$0      
            DF13  Fadc$MCSM1$0$0                   
            DF13  Fboard$MCSM1$0$0                 
            DF13  Fdma$MCSM1$0$0                   
            DF13  Fgpio$MCSM1$0$0                  
            DF13  Fgreen_led$MCSM1$0$0             
            DF13  Ftime$MCSM1$0$0                  
            DF13  Fusb$MCSM1$0$0                   
            DF13  Fusb_cdc_acm$MCSM1$0$0           
            DF13  Fvibes_lab_radio_protocol$MCSM1$0
            DF13  Fvibes_lab_tx_5_0$MCSM1$0$0      
            DF14  Fadc$MCSM0$0$0                   
            DF14  Fboard$MCSM0$0$0                 
            DF14  Fdma$MCSM0$0$0                   
            DF14  Fgpio$MCSM0$0$0                  
            DF14  Fgreen_led$MCSM0$0$0             
            DF14  Ftime$MCSM0$0$0                  
            DF14  Fusb$MCSM0$0$0                   
            DF14  Fusb_cdc_acm$MCSM0$0$0           
            DF14  Fvibes_lab_radio_protocol$MCSM0$0
            DF14  Fvibes_lab_tx_5_0$MCSM0$0$0      
            DF15  Fadc$FOCCFG$0$0                  
            DF15  Fboard$FOCCFG$0$0                
            DF15  Fdma$FOCCFG$0$0                  
            DF15  Fgpio$FOCCFG$0$0                 
            DF15  Fgreen_led$FOCCFG$0$0            
            DF15  Ftime$FOCCFG$0$0                 
            DF15  Fusb$FOCCFG$0$0                  
            DF15  Fusb_cdc_acm$FOCCFG$0$0          
            DF15  Fvibes_lab_radio_protocol$FOCCFG$
            DF15  Fvibes_lab_tx_5_0$FOCCFG$0$0     
            DF16  Fadc$BSCFG$0$0                   
            DF16  Fboard$BSCFG$0$0                 
            DF16  Fdma$BSCFG$0$0                   
            DF16  Fgpio$BSCFG$0$0                  
            DF16  Fgreen_led$BSCFG$0$0             
            DF16  Ftime$BSCFG$0$0                  
            DF16  Fusb$BSCFG$0$0                   
            DF16  Fusb_cdc_acm$BSCFG$0$0           
            DF16  Fvibes_lab_radio_protocol$BSCFG$0
            DF16  Fvibes_lab_tx_5_0$BSCFG$0$0      
            DF17  Fadc$AGCCTRL2$0$0                
            DF17  Fboard$AGCCTRL2$0$0              
            DF17  Fdma$AGCCTRL2$0$0                
            DF17  Fgpio$AGCCTRL2$0$0               
            DF17  Fgreen_led$AGCCTRL2$0$0          
            DF17  Ftime$AGCCTRL2$0$0               
            DF17  Fusb$AGCCTRL2$0$0                
            DF17  Fusb_cdc_acm$AGCCTRL2$0$0        
            DF17  Fvibes_lab_radio_protocol$AGCCTRL
ASxxxx Linker V02.00 + NoICE + sdld,  page 63.
Hexadecimal

Area                               Addr   Size   Decimal Bytes (Attributes)
--------------------------------   ----   ----   ------- ----- ------------
.	.ABS.                            0000   0000 =      0. bytes (ABS,CON)

      Value  Global                              Global Defined In Module
      -----  ---------------------------------   ------------------------
            DF17  Fvibes_lab_tx_5_0$AGCCTRL2$0$0   
            DF18  Fadc$AGCCTRL1$0$0                
            DF18  Fboard$AGCCTRL1$0$0              
            DF18  Fdma$AGCCTRL1$0$0                
            DF18  Fgpio$AGCCTRL1$0$0               
            DF18  Fgreen_led$AGCCTRL1$0$0          
            DF18  Ftime$AGCCTRL1$0$0               
            DF18  Fusb$AGCCTRL1$0$0                
            DF18  Fusb_cdc_acm$AGCCTRL1$0$0        
            DF18  Fvibes_lab_radio_protocol$AGCCTRL
            DF18  Fvibes_lab_tx_5_0$AGCCTRL1$0$0   
            DF19  Fadc$AGCCTRL0$0$0                
            DF19  Fboard$AGCCTRL0$0$0              
            DF19  Fdma$AGCCTRL0$0$0                
            DF19  Fgpio$AGCCTRL0$0$0               
            DF19  Fgreen_led$AGCCTRL0$0$0          
            DF19  Ftime$AGCCTRL0$0$0               
            DF19  Fusb$AGCCTRL0$0$0                
            DF19  Fusb_cdc_acm$AGCCTRL0$0$0        
            DF19  Fvibes_lab_radio_protocol$AGCCTRL
            DF19  Fvibes_lab_tx_5_0$AGCCTRL0$0$0   
            DF1A  Fadc$FREND1$0$0                  
            DF1A  Fboard$FREND1$0$0                
            DF1A  Fdma$FREND1$0$0                  
            DF1A  Fgpio$FREND1$0$0                 
            DF1A  Fgreen_led$FREND1$0$0            
            DF1A  Ftime$FREND1$0$0                 
            DF1A  Fusb$FREND1$0$0                  
            DF1A  Fusb_cdc_acm$FREND1$0$0          
            DF1A  Fvibes_lab_radio_protocol$FREND1$
            DF1A  Fvibes_lab_tx_5_0$FREND1$0$0     
            DF1B  Fadc$FREND0$0$0                  
            DF1B  Fboard$FREND0$0$0                
            DF1B  Fdma$FREND0$0$0                  
            DF1B  Fgpio$FREND0$0$0                 
            DF1B  Fgreen_led$FREND0$0$0            
            DF1B  Ftime$FREND0$0$0                 
            DF1B  Fusb$FREND0$0$0                  
            DF1B  Fusb_cdc_acm$FREND0$0$0          
            DF1B  Fvibes_lab_radio_protocol$FREND0$
            DF1B  Fvibes_lab_tx_5_0$FREND0$0$0     
            DF1C  Fadc$FSCAL3$0$0                  
            DF1C  Fboard$FSCAL3$0$0                
            DF1C  Fdma$FSCAL3$0$0                  
            DF1C  Fgpio$FSCAL3$0$0                 
            DF1C  Fgreen_led$FSCAL3$0$0            
            DF1C  Ftime$FSCAL3$0$0                 
            DF1C  Fusb$FSCAL3$0$0                  
            DF1C  Fusb_cdc_acm$FSCAL3$0$0          
            DF1C  Fvibes_lab_radio_protocol$FSCAL3$
            DF1C  Fvibes_lab_tx_5_0$FSCAL3$0$0     
ASxxxx Linker V02.00 + NoICE + sdld,  page 64.
Hexadecimal

Area                               Addr   Size   Decimal Bytes (Attributes)
--------------------------------   ----   ----   ------- ----- ------------
.	.ABS.                            0000   0000 =      0. bytes (ABS,CON)

      Value  Global                              Global Defined In Module
      -----  ---------------------------------   ------------------------
            DF1D  Fadc$FSCAL2$0$0                  
            DF1D  Fboard$FSCAL2$0$0                
            DF1D  Fdma$FSCAL2$0$0                  
            DF1D  Fgpio$FSCAL2$0$0                 
            DF1D  Fgreen_led$FSCAL2$0$0            
            DF1D  Ftime$FSCAL2$0$0                 
            DF1D  Fusb$FSCAL2$0$0                  
            DF1D  Fusb_cdc_acm$FSCAL2$0$0          
            DF1D  Fvibes_lab_radio_protocol$FSCAL2$
            DF1D  Fvibes_lab_tx_5_0$FSCAL2$0$0     
            DF1E  Fadc$FSCAL1$0$0                  
            DF1E  Fboard$FSCAL1$0$0                
            DF1E  Fdma$FSCAL1$0$0                  
            DF1E  Fgpio$FSCAL1$0$0                 
            DF1E  Fgreen_led$FSCAL1$0$0            
            DF1E  Ftime$FSCAL1$0$0                 
            DF1E  Fusb$FSCAL1$0$0                  
            DF1E  Fusb_cdc_acm$FSCAL1$0$0          
            DF1E  Fvibes_lab_radio_protocol$FSCAL1$
            DF1E  Fvibes_lab_tx_5_0$FSCAL1$0$0     
            DF1F  Fadc$FSCAL0$0$0                  
            DF1F  Fboard$FSCAL0$0$0                
            DF1F  Fdma$FSCAL0$0$0                  
            DF1F  Fgpio$FSCAL0$0$0                 
            DF1F  Fgreen_led$FSCAL0$0$0            
            DF1F  Ftime$FSCAL0$0$0                 
            DF1F  Fusb$FSCAL0$0$0                  
            DF1F  Fusb_cdc_acm$FSCAL0$0$0          
            DF1F  Fvibes_lab_radio_protocol$FSCAL0$
            DF1F  Fvibes_lab_tx_5_0$FSCAL0$0$0     
            DF23  Fadc$TEST2$0$0                   
            DF23  Fboard$TEST2$0$0                 
            DF23  Fdma$TEST2$0$0                   
            DF23  Fgpio$TEST2$0$0                  
            DF23  Fgreen_led$TEST2$0$0             
            DF23  Ftime$TEST2$0$0                  
            DF23  Fusb$TEST2$0$0                   
            DF23  Fusb_cdc_acm$TEST2$0$0           
            DF23  Fvibes_lab_radio_protocol$TEST2$0
            DF23  Fvibes_lab_tx_5_0$TEST2$0$0      
            DF24  Fadc$TEST1$0$0                   
            DF24  Fboard$TEST1$0$0                 
            DF24  Fdma$TEST1$0$0                   
            DF24  Fgpio$TEST1$0$0                  
            DF24  Fgreen_led$TEST1$0$0             
            DF24  Ftime$TEST1$0$0                  
            DF24  Fusb$TEST1$0$0                   
            DF24  Fusb_cdc_acm$TEST1$0$0           
            DF24  Fvibes_lab_radio_protocol$TEST1$0
            DF24  Fvibes_lab_tx_5_0$TEST1$0$0      
            DF25  Fadc$TEST0$0$0                   
ASxxxx Linker V02.00 + NoICE + sdld,  page 65.
Hexadecimal

Area                               Addr   Size   Decimal Bytes (Attributes)
--------------------------------   ----   ----   ------- ----- ------------
.	.ABS.                            0000   0000 =      0. bytes (ABS,CON)

      Value  Global                              Global Defined In Module
      -----  ---------------------------------   ------------------------
            DF25  Fboard$TEST0$0$0                 
            DF25  Fdma$TEST0$0$0                   
            DF25  Fgpio$TEST0$0$0                  
            DF25  Fgreen_led$TEST0$0$0             
            DF25  Ftime$TEST0$0$0                  
            DF25  Fusb$TEST0$0$0                   
            DF25  Fusb_cdc_acm$TEST0$0$0           
            DF25  Fvibes_lab_radio_protocol$TEST0$0
            DF25  Fvibes_lab_tx_5_0$TEST0$0$0      
            DF2E  Fadc$PA_TABLE0$0$0               
            DF2E  Fboard$PA_TABLE0$0$0             
            DF2E  Fdma$PA_TABLE0$0$0               
            DF2E  Fgpio$PA_TABLE0$0$0              
            DF2E  Fgreen_led$PA_TABLE0$0$0         
            DF2E  Ftime$PA_TABLE0$0$0              
            DF2E  Fusb$PA_TABLE0$0$0               
            DF2E  Fusb_cdc_acm$PA_TABLE0$0$0       
            DF2E  Fvibes_lab_radio_protocol$PA_TABL
            DF2E  Fvibes_lab_tx_5_0$PA_TABLE0$0$0  
            DF2F  Fadc$IOCFG2$0$0                  
            DF2F  Fboard$IOCFG2$0$0                
            DF2F  Fdma$IOCFG2$0$0                  
            DF2F  Fgpio$IOCFG2$0$0                 
            DF2F  Fgreen_led$IOCFG2$0$0            
            DF2F  Ftime$IOCFG2$0$0                 
            DF2F  Fusb$IOCFG2$0$0                  
            DF2F  Fusb_cdc_acm$IOCFG2$0$0          
            DF2F  Fvibes_lab_radio_protocol$IOCFG2$
            DF2F  Fvibes_lab_tx_5_0$IOCFG2$0$0     
            DF30  Fadc$IOCFG1$0$0                  
            DF30  Fboard$IOCFG1$0$0                
            DF30  Fdma$IOCFG1$0$0                  
            DF30  Fgpio$IOCFG1$0$0                 
            DF30  Fgreen_led$IOCFG1$0$0            
            DF30  Ftime$IOCFG1$0$0                 
            DF30  Fusb$IOCFG1$0$0                  
            DF30  Fusb_cdc_acm$IOCFG1$0$0          
            DF30  Fvibes_lab_radio_protocol$IOCFG1$
            DF30  Fvibes_lab_tx_5_0$IOCFG1$0$0     
            DF31  Fadc$IOCFG0$0$0                  
            DF31  Fboard$IOCFG0$0$0                
            DF31  Fdma$IOCFG0$0$0                  
            DF31  Fgpio$IOCFG0$0$0                 
            DF31  Fgreen_led$IOCFG0$0$0            
            DF31  Ftime$IOCFG0$0$0                 
            DF31  Fusb$IOCFG0$0$0                  
            DF31  Fusb_cdc_acm$IOCFG0$0$0          
            DF31  Fvibes_lab_radio_protocol$IOCFG0$
            DF31  Fvibes_lab_tx_5_0$IOCFG0$0$0     
            DF36  Fadc$PARTNUM$0$0                 
            DF36  Fboard$PARTNUM$0$0               
ASxxxx Linker V02.00 + NoICE + sdld,  page 66.
Hexadecimal

Area                               Addr   Size   Decimal Bytes (Attributes)
--------------------------------   ----   ----   ------- ----- ------------
.	.ABS.                            0000   0000 =      0. bytes (ABS,CON)

      Value  Global                              Global Defined In Module
      -----  ---------------------------------   ------------------------
            DF36  Fdma$PARTNUM$0$0                 
            DF36  Fgpio$PARTNUM$0$0                
            DF36  Fgreen_led$PARTNUM$0$0           
            DF36  Ftime$PARTNUM$0$0                
            DF36  Fusb$PARTNUM$0$0                 
            DF36  Fusb_cdc_acm$PARTNUM$0$0         
            DF36  Fvibes_lab_radio_protocol$PARTNUM
            DF36  Fvibes_lab_tx_5_0$PARTNUM$0$0    
            DF37  Fadc$VERSION$0$0                 
            DF37  Fboard$VERSION$0$0               
            DF37  Fdma$VERSION$0$0                 
            DF37  Fgpio$VERSION$0$0                
            DF37  Fgreen_led$VERSION$0$0           
            DF37  Ftime$VERSION$0$0                
            DF37  Fusb$VERSION$0$0                 
            DF37  Fusb_cdc_acm$VERSION$0$0         
            DF37  Fvibes_lab_radio_protocol$VERSION
            DF37  Fvibes_lab_tx_5_0$VERSION$0$0    
            DF38  Fadc$FREQEST$0$0                 
            DF38  Fboard$FREQEST$0$0               
            DF38  Fdma$FREQEST$0$0                 
            DF38  Fgpio$FREQEST$0$0                
            DF38  Fgreen_led$FREQEST$0$0           
            DF38  Ftime$FREQEST$0$0                
            DF38  Fusb$FREQEST$0$0                 
            DF38  Fusb_cdc_acm$FREQEST$0$0         
            DF38  Fvibes_lab_radio_protocol$FREQEST
            DF38  Fvibes_lab_tx_5_0$FREQEST$0$0    
            DF39  Fadc$LQI$0$0                     
            DF39  Fboard$LQI$0$0                   
            DF39  Fdma$LQI$0$0                     
            DF39  Fgpio$LQI$0$0                    
            DF39  Fgreen_led$LQI$0$0               
            DF39  Ftime$LQI$0$0                    
            DF39  Fusb$LQI$0$0                     
            DF39  Fusb_cdc_acm$LQI$0$0             
            DF39  Fvibes_lab_radio_protocol$LQI$0$0
            DF39  Fvibes_lab_tx_5_0$LQI$0$0        
            DF3A  Fadc$RSSI$0$0                    
            DF3A  Fboard$RSSI$0$0                  
            DF3A  Fdma$RSSI$0$0                    
            DF3A  Fgpio$RSSI$0$0                   
            DF3A  Fgreen_led$RSSI$0$0              
            DF3A  Ftime$RSSI$0$0                   
            DF3A  Fusb$RSSI$0$0                    
            DF3A  Fusb_cdc_acm$RSSI$0$0            
            DF3A  Fvibes_lab_radio_protocol$RSSI$0$
            DF3A  Fvibes_lab_tx_5_0$RSSI$0$0       
            DF3B  Fadc$MARCSTATE$0$0               
            DF3B  Fboard$MARCSTATE$0$0             
            DF3B  Fdma$MARCSTATE$0$0               
ASxxxx Linker V02.00 + NoICE + sdld,  page 67.
Hexadecimal

Area                               Addr   Size   Decimal Bytes (Attributes)
--------------------------------   ----   ----   ------- ----- ------------
.	.ABS.                            0000   0000 =      0. bytes (ABS,CON)

      Value  Global                              Global Defined In Module
      -----  ---------------------------------   ------------------------
            DF3B  Fgpio$MARCSTATE$0$0              
            DF3B  Fgreen_led$MARCSTATE$0$0         
            DF3B  Ftime$MARCSTATE$0$0              
            DF3B  Fusb$MARCSTATE$0$0               
            DF3B  Fusb_cdc_acm$MARCSTATE$0$0       
            DF3B  Fvibes_lab_radio_protocol$MARCSTA
            DF3B  Fvibes_lab_tx_5_0$MARCSTATE$0$0  
            DF3C  Fadc$PKTSTATUS$0$0               
            DF3C  Fboard$PKTSTATUS$0$0             
            DF3C  Fdma$PKTSTATUS$0$0               
            DF3C  Fgpio$PKTSTATUS$0$0              
            DF3C  Fgreen_led$PKTSTATUS$0$0         
            DF3C  Ftime$PKTSTATUS$0$0              
            DF3C  Fusb$PKTSTATUS$0$0               
            DF3C  Fusb_cdc_acm$PKTSTATUS$0$0       
            DF3C  Fvibes_lab_radio_protocol$PKTSTAT
            DF3C  Fvibes_lab_tx_5_0$PKTSTATUS$0$0  
            DF3D  Fadc$VCO_VC_DAC$0$0              
            DF3D  Fboard$VCO_VC_DAC$0$0            
            DF3D  Fdma$VCO_VC_DAC$0$0              
            DF3D  Fgpio$VCO_VC_DAC$0$0             
            DF3D  Fgreen_led$VCO_VC_DAC$0$0        
            DF3D  Ftime$VCO_VC_DAC$0$0             
            DF3D  Fusb$VCO_VC_DAC$0$0              
            DF3D  Fusb_cdc_acm$VCO_VC_DAC$0$0      
            DF3D  Fvibes_lab_radio_protocol$VCO_VC_
            DF3D  Fvibes_lab_tx_5_0$VCO_VC_DAC$0$0 
            DF40  Fadc$I2SCFG0$0$0                 
            DF40  Fboard$I2SCFG0$0$0               
            DF40  Fdma$I2SCFG0$0$0                 
            DF40  Fgpio$I2SCFG0$0$0                
            DF40  Fgreen_led$I2SCFG0$0$0           
            DF40  Ftime$I2SCFG0$0$0                
            DF40  Fusb$I2SCFG0$0$0                 
            DF40  Fusb_cdc_acm$I2SCFG0$0$0         
            DF40  Fvibes_lab_radio_protocol$I2SCFG0
            DF40  Fvibes_lab_tx_5_0$I2SCFG0$0$0    
            DF41  Fadc$I2SCFG1$0$0                 
            DF41  Fboard$I2SCFG1$0$0               
            DF41  Fdma$I2SCFG1$0$0                 
            DF41  Fgpio$I2SCFG1$0$0                
            DF41  Fgreen_led$I2SCFG1$0$0           
            DF41  Ftime$I2SCFG1$0$0                
            DF41  Fusb$I2SCFG1$0$0                 
            DF41  Fusb_cdc_acm$I2SCFG1$0$0         
            DF41  Fvibes_lab_radio_protocol$I2SCFG1
            DF41  Fvibes_lab_tx_5_0$I2SCFG1$0$0    
            DF42  Fadc$I2SDATL$0$0                 
            DF42  Fboard$I2SDATL$0$0               
            DF42  Fdma$I2SDATL$0$0                 
            DF42  Fgpio$I2SDATL$0$0                
ASxxxx Linker V02.00 + NoICE + sdld,  page 68.
Hexadecimal

Area                               Addr   Size   Decimal Bytes (Attributes)
--------------------------------   ----   ----   ------- ----- ------------
.	.ABS.                            0000   0000 =      0. bytes (ABS,CON)

      Value  Global                              Global Defined In Module
      -----  ---------------------------------   ------------------------
            DF42  Fgreen_led$I2SDATL$0$0           
            DF42  Ftime$I2SDATL$0$0                
            DF42  Fusb$I2SDATL$0$0                 
            DF42  Fusb_cdc_acm$I2SDATL$0$0         
            DF42  Fvibes_lab_radio_protocol$I2SDATL
            DF42  Fvibes_lab_tx_5_0$I2SDATL$0$0    
            DF43  Fadc$I2SDATH$0$0                 
            DF43  Fboard$I2SDATH$0$0               
            DF43  Fdma$I2SDATH$0$0                 
            DF43  Fgpio$I2SDATH$0$0                
            DF43  Fgreen_led$I2SDATH$0$0           
            DF43  Ftime$I2SDATH$0$0                
            DF43  Fusb$I2SDATH$0$0                 
            DF43  Fusb_cdc_acm$I2SDATH$0$0         
            DF43  Fvibes_lab_radio_protocol$I2SDATH
            DF43  Fvibes_lab_tx_5_0$I2SDATH$0$0    
            DF44  Fadc$I2SWCNT$0$0                 
            DF44  Fboard$I2SWCNT$0$0               
            DF44  Fdma$I2SWCNT$0$0                 
            DF44  Fgpio$I2SWCNT$0$0                
            DF44  Fgreen_led$I2SWCNT$0$0           
            DF44  Ftime$I2SWCNT$0$0                
            DF44  Fusb$I2SWCNT$0$0                 
            DF44  Fusb_cdc_acm$I2SWCNT$0$0         
            DF44  Fvibes_lab_radio_protocol$I2SWCNT
            DF44  Fvibes_lab_tx_5_0$I2SWCNT$0$0    
            DF45  Fadc$I2SSTAT$0$0                 
            DF45  Fboard$I2SSTAT$0$0               
            DF45  Fdma$I2SSTAT$0$0                 
            DF45  Fgpio$I2SSTAT$0$0                
            DF45  Fgreen_led$I2SSTAT$0$0           
            DF45  Ftime$I2SSTAT$0$0                
            DF45  Fusb$I2SSTAT$0$0                 
            DF45  Fusb_cdc_acm$I2SSTAT$0$0         
            DF45  Fvibes_lab_radio_protocol$I2SSTAT
            DF45  Fvibes_lab_tx_5_0$I2SSTAT$0$0    
            DF46  Fadc$I2SCLKF0$0$0                
            DF46  Fboard$I2SCLKF0$0$0              
            DF46  Fdma$I2SCLKF0$0$0                
            DF46  Fgpio$I2SCLKF0$0$0               
            DF46  Fgreen_led$I2SCLKF0$0$0          
            DF46  Ftime$I2SCLKF0$0$0               
            DF46  Fusb$I2SCLKF0$0$0                
            DF46  Fusb_cdc_acm$I2SCLKF0$0$0        
            DF46  Fvibes_lab_radio_protocol$I2SCLKF
            DF46  Fvibes_lab_tx_5_0$I2SCLKF0$0$0   
            DF47  Fadc$I2SCLKF1$0$0                
            DF47  Fboard$I2SCLKF1$0$0              
            DF47  Fdma$I2SCLKF1$0$0                
            DF47  Fgpio$I2SCLKF1$0$0               
            DF47  Fgreen_led$I2SCLKF1$0$0          
ASxxxx Linker V02.00 + NoICE + sdld,  page 69.
Hexadecimal

Area                               Addr   Size   Decimal Bytes (Attributes)
--------------------------------   ----   ----   ------- ----- ------------
.	.ABS.                            0000   0000 =      0. bytes (ABS,CON)

      Value  Global                              Global Defined In Module
      -----  ---------------------------------   ------------------------
            DF47  Ftime$I2SCLKF1$0$0               
            DF47  Fusb$I2SCLKF1$0$0                
            DF47  Fusb_cdc_acm$I2SCLKF1$0$0        
            DF47  Fvibes_lab_radio_protocol$I2SCLKF
            DF47  Fvibes_lab_tx_5_0$I2SCLKF1$0$0   
            DF48  Fadc$I2SCLKF2$0$0                
            DF48  Fboard$I2SCLKF2$0$0              
            DF48  Fdma$I2SCLKF2$0$0                
            DF48  Fgpio$I2SCLKF2$0$0               
            DF48  Fgreen_led$I2SCLKF2$0$0          
            DF48  Ftime$I2SCLKF2$0$0               
            DF48  Fusb$I2SCLKF2$0$0                
            DF48  Fusb_cdc_acm$I2SCLKF2$0$0        
            DF48  Fvibes_lab_radio_protocol$I2SCLKF
            DF48  Fvibes_lab_tx_5_0$I2SCLKF2$0$0   

ASxxxx Linker V02.00 + NoICE + sdld,  page 70.
Hexadecimal

Area                               Addr   Size   Decimal Bytes (Attributes)
--------------------------------   ----   ----   ------- ----- ------------
BSEG_BYTES                         0020   0003 =      3. bytes (REL,CON)

      Value  Global                              Global Defined In Module
      -----  ---------------------------------   ------------------------
ASxxxx Linker V02.00 + NoICE + sdld,  page 71.
Hexadecimal

Area                               Addr   Size   Decimal Bytes (Attributes)
--------------------------------   ----   ----   ------- ----- ------------
_CODE                              0020   0000 =      0. bytes (REL,CON)

      Value  Global                              Global Defined In Module
      -----  ---------------------------------   ------------------------
ASxxxx Linker V02.00 + NoICE + sdld,  page 72.
Hexadecimal

Area                               Addr   Size   Decimal Bytes (Attributes)
--------------------------------   ----   ----   ------- ----- ------------
REG_BANK_0                         0000   0008 =      8. bytes (REL,OVR)

      Value  Global                              Global Defined In Module
      -----  ---------------------------------   ------------------------
ASxxxx Linker V02.00 + NoICE + sdld,  page 73.
Hexadecimal

Area                               Addr   Size   Decimal Bytes (Attributes)
--------------------------------   ----   ----   ------- ----- ------------
REG_BANK_1                         0008   0008 =      8. bytes (REL,OVR)

      Value  Global                              Global Defined In Module
      -----  ---------------------------------   ------------------------
ASxxxx Linker V02.00 + NoICE + sdld,  page 74.
Hexadecimal

Area                               Addr   Size   Decimal Bytes (Attributes)
--------------------------------   ----   ----   ------- ----- ------------
REG_BANK_2                         0010   0008 =      8. bytes (REL,OVR)

      Value  Global                              Global Defined In Module
      -----  ---------------------------------   ------------------------
ASxxxx Linker V02.00 + NoICE + sdld,  page 75.
Hexadecimal

Area                               Addr   Size   Decimal Bytes (Attributes)
--------------------------------   ----   ----   ------- ----- ------------
REG_BANK_3                         0018   0008 =      8. bytes (REL,OVR)

      Value  Global                              Global Defined In Module
      -----  ---------------------------------   ------------------------
ASxxxx Linker V02.00 + NoICE + sdld,  page 76.
Hexadecimal

Area                               Addr   Size   Decimal Bytes (Attributes)
--------------------------------   ----   ----   ------- ----- ------------
BSEG                               0000   0014 =     20. bytes (REL,CON,BIT)

      Value  Global                              Global Defined In Module
      -----  ---------------------------------   ------------------------
       0B:  0000  Fvibes_lab_tx_5_0$isrCounter$0$0 
       0B:  0001  Fvibes_lab_tx_5_0$lostSample$0$0 
       0B:  0002  Fvibes_lab_tx_5_0$initComplete$0$
       0B:  0003  Fvibes_lab_radio_protocol$isTrans
       0B:  0004  G$sendReceiveComplete$0$0        
       0B:  0004  _sendReceiveComplete             
       0B:  0005  Fvibes_lab_radio_protocol$txBusy$
       0B:  0006  Fvibes_lab_radio_protocol$sending
       0B:  0007  Fvibes_lab_radio_protocol$sending
       0B:  0008  Fvibes_lab_radio_protocol$awaitin
       0B:  0009  Fvibes_lab_radio_protocol$sending
       0B:  000A  Fvibes_lab_radio_protocol$reTrans
       0B:  000B  LradioInit$isTx$1$1              
       0B:  000B  _radioInit_PARM_1                
       0B:  000C  Fboard$vbusHighBit$0$0           
       0B:  000D  LboardDetectVbus$savedState$2$2  
       0B:  000E  Fusb_cdc_acm$sendEmptyPacketSoon$
       0B:  000F  Fusb_cdc_acm$startBootloaderSoon$
       0B:  0010  G$usbSuspendMode$0$0             
       0B:  0010  _usbSuspendMode                  
       0B:  0011  G$usbActivityFlag$0$0            
       0B:  0011  _usbActivityFlag                 
       0B:  0012  LusbSleep$savedP0IE$1$1          
       0B:  0013  G$usbBlinkActive$0$0             
       0B:  0013  _usbBlinkActive                  

ASxxxx Linker V02.00 + NoICE + sdld,  page 77.
Hexadecimal

Area                               Addr   Size   Decimal Bytes (Attributes)
--------------------------------   ----   ----   ------- ----- ------------
BIT_BANK                           0023   0001 =      1. bytes (REL,OVR)

      Value  Global                              Global Defined In Module
      -----  ---------------------------------   ------------------------
ASxxxx Linker V02.00 + NoICE + sdld,  page 78.
Hexadecimal

Area                               Addr   Size   Decimal Bytes (Attributes)
--------------------------------   ----   ----   ------- ----- ------------
DSEG                               0000   0080 =    128. bytes (REL,CON)

      Value  Global                              Global Defined In Module
      -----  ---------------------------------   ------------------------
            0024  Fvibes_lab_tx_5_0$accSample$0$0  
            0026  Fvibes_lab_tx_5_0$sampleIndex$0$0
            0027  Fvibes_lab_tx_5_0$transmissionsRe
            0028  Fvibes_lab_tx_5_0$operationalTime
            002C  Fvibes_lab_radio_protocol$mainLoo
            002D  Fvibes_lab_radio_protocol$interru
            002E  Fvibes_lab_radio_protocol$freePac
            002F  Fusb_cdc_acm$inFifoBytesLoaded$0$
ASxxxx Linker V02.00 + NoICE + sdld,  page 79.
Hexadecimal

Area                               Addr   Size   Decimal Bytes (Attributes)
--------------------------------   ----   ----   ------- ----- ------------
OSEG                               0023   0000 =      0. bytes (REL,OVR)

      Value  Global                              Global Defined In Module
      -----  ---------------------------------   ------------------------
ASxxxx Linker V02.00 + NoICE + sdld,  page 80.
Hexadecimal

Area                               Addr   Size   Decimal Bytes (Attributes)
--------------------------------   ----   ----   ------- ----- ------------
ISEG                               0000   0000 =      0. bytes (REL,CON)

      Value  Global                              Global Defined In Module
      -----  ---------------------------------   ------------------------
ASxxxx Linker V02.00 + NoICE + sdld,  page 81.
Hexadecimal

Area                               Addr   Size   Decimal Bytes (Attributes)
--------------------------------   ----   ----   ------- ----- ------------
SSEG                               0030   00D0 =    208. bytes (REL,OVR)

      Value  Global                              Global Defined In Module
      -----  ---------------------------------   ------------------------
            0030  __start__stack                   

ASxxxx Linker V02.00 + NoICE + sdld,  page 82.
Hexadecimal

Area                               Addr   Size   Decimal Bytes (Attributes)
--------------------------------   ----   ----   ------- ----- ------------
PSEG                               F000   001F =     31. bytes (REL,CON,PAG,XDATA)

      Value  Global                              Global Defined In Module
      -----  ---------------------------------   ------------------------
       0D:  F000  Fvibes_lab_tx_5_0$packet$0$0     
       0D:  F002  Fvibes_lab_radio_protocol$packetI
       0D:  F003  G$timeMs$0$0                     
       0D:  F003  _timeMs                          
       0D:  F007  LboardDetectVbus$lastCheck$1$1   
       0D:  F008  G$usbComControlLineState$0$0     
       0D:  F008  _usbComControlLineState          
       0D:  F009  G$usbComSerialState$0$0          
       0D:  F009  _usbComSerialState               
       0D:  F00A  Fusb_cdc_acm$lastReportedSerialSt
       0D:  F00B  G$usbComLineCodingChangeHandler$0
       0D:  F00B  _usbComLineCodingChangeHandler   
       0D:  F00D  LusbComRxReceive$size$1$1        
       0D:  F00D  _usbComRxReceive_PARM_2          
       0D:  F00E  LusbComTxSend$size$1$1           
       0D:  F00E  _usbComTxSend_PARM_2             
       0D:  F00F  G$controlTransferPointer$0$0     
       0D:  F00F  _controlTransferPointer          
       0D:  F011  LusbReadFifo$count$1$1           
       0D:  F011  _usbReadFifo_PARM_2              
       0D:  F012  LusbReadFifo$buffer$1$1          
       0D:  F012  _usbReadFifo_PARM_3              
       0D:  F014  LusbWriteFifo$count$1$1          
       0D:  F014  _usbWriteFifo_PARM_2             
       0D:  F015  LusbWriteFifo$buffer$1$1         
       0D:  F015  _usbWriteFifo_PARM_3             
       0D:  F017  LusbControlRead$source$1$1       
       0D:  F017  _usbControlRead_PARM_2           
       0D:  F019  LusbControlWrite$source$1$1      
       0D:  F019  _usbControlWrite_PARM_2          
       0D:  F01B  LusbInitEndpointIn$maxPacketSize$
       0D:  F01B  _usbInitEndpointIn_PARM_2        
       0D:  F01C  LusbInitEndpointOut$maxPacketSize
       0D:  F01C  _usbInitEndpointOut_PARM_2       
       0D:  F01D  G$usbLastActivity$0$0            
       0D:  F01D  _usbLastActivity                 
       0D:  F01E  G$usbBlinkStart$0$0              
       0D:  F01E  _usbBlinkStart                   

ASxxxx Linker V02.00 + NoICE + sdld,  page 83.
Hexadecimal

Area                               Addr   Size   Decimal Bytes (Attributes)
--------------------------------   ----   ----   ------- ----- ------------
XSEG                               F000   0C37 =   3127. bytes (REL,CON,XDATA)

      Value  Global                              Global Defined In Module
      -----  ---------------------------------   ------------------------
       0D:  F01F  Fvibes_lab_radio_protocol$packetB
       0D:  FC27  Fvibes_lab_radio_protocol$shortPa
       0D:  FC29  Fusb_cdc_acm$startBootloaderReque
       0D:  FC2A  G$dmaConfig$0$0                  
       0D:  FC2A  _dmaConfig                       
       0D:  FC4A  G$usbSetupPacket$0$0             
       0D:  FC4A  _usbSetupPacket                  
       0D:  FC52  G$controlTransferBytesLeft$0$0   
       0D:  FC52  _controlTransferBytesLeft        
       0D:  FC54  LusbStandardDeviceRequestHandler$

ASxxxx Linker V02.00 + NoICE + sdld,  page 84.
Hexadecimal

Area                               Addr   Size   Decimal Bytes (Attributes)
--------------------------------   ----   ----   ------- ----- ------------
XISEG                              FC56   0009 =      9. bytes (REL,CON,XDATA)

      Value  Global                              Global Defined In Module
      -----  ---------------------------------   ------------------------
       0D:  FC56  G$usbComLineCoding$0$0           
       0D:  FC56  _usbComLineCoding                
       0D:  FC5D  G$usbDeviceState$0$0             
       0D:  FC5D  _usbDeviceState                  
       0D:  FC5E  G$controlTransferState$0$0       
       0D:  FC5E  _controlTransferState            

ASxxxx Linker V02.00 + NoICE + sdld,  page 85.
Hexadecimal

Area                               Addr   Size   Decimal Bytes (Attributes)
--------------------------------   ----   ----   ------- ----- ------------
HOME                               0400   008D =    141. bytes (REL,CON,CODE)

      Value  Global                              Global Defined In Module
      -----  ---------------------------------   ------------------------
       0C:  0400  A$vibes_lab_tx_5.0$752           
       0C:  0403  A$vibes_lab_tx_5.0$753           
       0C:  040B  A$vibes_lab_tx_5.0$755           
       0C:  0413  A$vibes_lab_tx_5.0$757           
       0C:  041B  A$vibes_lab_tx_5.0$759           
       0C:  0423  A$vibes_lab_tx_5.0$761           
       0C:  042B  A$vibes_lab_tx_5.0$763           
       0C:  0433  A$vibes_lab_tx_5.0$765           
       0C:  043B  A$vibes_lab_tx_5.0$767           
       0C:  0443  A$vibes_lab_tx_5.0$769           
       0C:  044B  A$vibes_lab_tx_5.0$771           
       0C:  0453  A$vibes_lab_tx_5.0$773           
       0C:  045B  A$vibes_lab_tx_5.0$775           
       0C:  0463  A$vibes_lab_tx_5.0$777           
       0C:  046B  A$vibes_lab_tx_5.0$779           
       0C:  0473  A$vibes_lab_tx_5.0$781           
       0C:  047B  A$vibes_lab_tx_5.0$783           
       0C:  0483  A$vibes_lab_tx_5.0$785           
       0C:  0486  A$vibes_lab_tx_5.0$807           
       0C:  0486  __sdcc_program_startup           
       0C:  0489  A$vibes_lab_tx_5.0$809           
       0C:  048B  __sdcc_call_dptr                 

ASxxxx Linker V02.00 + NoICE + sdld,  page 86.
Hexadecimal

Area                               Addr   Size   Decimal Bytes (Attributes)
--------------------------------   ----   ----   ------- ----- ------------
GSINIT0                            048D   0003 =      3. bytes (REL,CON,CODE)

      Value  Global                              Global Defined In Module
      -----  ---------------------------------   ------------------------
       0C:  048D  __sdcc_gsinit_startup            

ASxxxx Linker V02.00 + NoICE + sdld,  page 87.
Hexadecimal

Area                               Addr   Size   Decimal Bytes (Attributes)
--------------------------------   ----   ----   ------- ----- ------------
GSINIT1                            0490   0000 =      0. bytes (REL,CON,CODE)

      Value  Global                              Global Defined In Module
      -----  ---------------------------------   ------------------------
ASxxxx Linker V02.00 + NoICE + sdld,  page 88.
Hexadecimal

Area                               Addr   Size   Decimal Bytes (Attributes)
--------------------------------   ----   ----   ------- ----- ------------
GSINIT2                            0490   000A =     10. bytes (REL,CON,CODE)

      Value  Global                              Global Defined In Module
      -----  ---------------------------------   ------------------------
ASxxxx Linker V02.00 + NoICE + sdld,  page 89.
Hexadecimal

Area                               Addr   Size   Decimal Bytes (Attributes)
--------------------------------   ----   ----   ------- ----- ------------
GSINIT3                            049A   0022 =     34. bytes (REL,CON,CODE)

      Value  Global                              Global Defined In Module
      -----  ---------------------------------   ------------------------
       0C:  049A  __mcs51_genXINIT                 

ASxxxx Linker V02.00 + NoICE + sdld,  page 90.
Hexadecimal

Area                               Addr   Size   Decimal Bytes (Attributes)
--------------------------------   ----   ----   ------- ----- ------------
GSINIT4                            04BC   002A =     42. bytes (REL,CON,CODE)

      Value  Global                              Global Defined In Module
      -----  ---------------------------------   ------------------------
       0C:  04BC  __mcs51_genRAMCLEAR              
       0C:  04C2  __mcs51_genXRAMCLEAR             

ASxxxx Linker V02.00 + NoICE + sdld,  page 91.
Hexadecimal

Area                               Addr   Size   Decimal Bytes (Attributes)
--------------------------------   ----   ----   ------- ----- ------------
GSINIT5                            04E6   0000 =      0. bytes (REL,CON,CODE)

      Value  Global                              Global Defined In Module
      -----  ---------------------------------   ------------------------
ASxxxx Linker V02.00 + NoICE + sdld,  page 92.
Hexadecimal

Area                               Addr   Size   Decimal Bytes (Attributes)
--------------------------------   ----   ----   ------- ----- ------------
GSINIT                             04E6   0034 =     52. bytes (REL,CON,CODE)

      Value  Global                              Global Defined In Module
      -----  ---------------------------------   ------------------------
       0C:  04E6  A$time$719                       
       0C:  04E6  C$time.c$16$1$1                  
       0C:  04E8  A$time$720                       
       0C:  04E9  A$time$721                       
       0C:  04EA  A$time$722                       
       0C:  04EB  A$time$723                       
       0C:  04EC  A$time$724                       
       0C:  04ED  A$time$725                       
       0C:  04EE  A$time$726                       
       0C:  04EF  A$time$727                       
       0C:  04F0  A$board$731                      
       0C:  04F0  C$board.c$86$2$1                 
       0C:  04F2  A$board$732                      
       0C:  04F4  A$board$733                      
       0C:  04F5  A$usb_cdc_acm$765                
       0C:  04F5  C$usb_cdc_acm.c$97$1$1           
       0C:  04F8  A$usb_cdc_acm$769                
       0C:  04F8  C$usb_cdc_acm.c$92$1$1           
       0C:  04FA  A$usb_cdc_acm$773                
       0C:  04FA  C$usb_cdc_acm.c$100$1$1          
       0C:  04FC  A$usb_cdc_acm$777                
       0C:  04FC  C$usb_cdc_acm.c$71$1$1           
       0C:  04FE  A$usb_cdc_acm$778                
       0C:  04FF  A$usb_cdc_acm$779                
       0C:  0500  A$usb_cdc_acm$783                
       0C:  0500  C$usb_cdc_acm.c$73$1$1           
       0C:  0502  A$usb_cdc_acm$784                
       0C:  0503  A$usb_cdc_acm$785                
       0C:  0504  A$usb_cdc_acm$789                
       0C:  0504  C$usb_cdc_acm.c$77$1$1           
       0C:  0506  A$usb_cdc_acm$790                
       0C:  0508  A$usb_cdc_acm$791                
       0C:  0509  A$usb_cdc_acm$795                
       0C:  0509  C$usb_cdc_acm.c$87$1$1           
       0C:  050B  A$usb_cdc_acm$796                
       0C:  050D  A$usb_cdc_acm$797                
       0C:  050F  A$usb_cdc_acm$798                
       0C:  0510  A$usb_cdc_acm$799                
       0C:  0511  A$usb_cdc_acm$800                
       0C:  0512  A$usb_cdc_acm$801                
       0C:  0513  A$usb_cdc_acm$802                
       0C:  0514  A$usb$787                        
       0C:  0514  C$usb.c$24$1$1                   
       0C:  0516  A$usb$791                        
       0C:  0516  C$usb.c$27$1$1                   
       0C:  0518  A$green_led$721                  
       0C:  0518  C$green_led.c$9$1$1              

ASxxxx Linker V02.00 + NoICE + sdld,  page 93.
Hexadecimal

Area                               Addr   Size   Decimal Bytes (Attributes)
--------------------------------   ----   ----   ------- ----- ------------
GSFINAL                            051A   0003 =      3. bytes (REL,CON,CODE)

      Value  Global                              Global Defined In Module
      -----  ---------------------------------   ------------------------
       0C:  051A  A$vibes_lab_tx_5.0$800           

ASxxxx Linker V02.00 + NoICE + sdld,  page 94.
Hexadecimal

Area                               Addr   Size   Decimal Bytes (Attributes)
--------------------------------   ----   ----   ------- ----- ------------
CSEG                               051D   157D =   5501. bytes (REL,CON,CODE)

      Value  Global                              Global Defined In Module
      -----  ---------------------------------   ------------------------
       0C:  051D  A$vibes_lab_tx_5.0$833           
       0C:  051D  C$vibes_lab_tx_5.0.c$323$0$0     
       0C:  051D  G$ISR_T3$0$0                     
       0C:  051D  _ISR_T3                          
       0C:  051F  A$vibes_lab_tx_5.0$834           
       0C:  0521  A$vibes_lab_tx_5.0$835           
       0C:  0523  A$vibes_lab_tx_5.0$836           
       0C:  0525  A$vibes_lab_tx_5.0$837           
       0C:  0527  A$vibes_lab_tx_5.0$838           
       0C:  0529  A$vibes_lab_tx_5.0$839           
       0C:  052B  A$vibes_lab_tx_5.0$840           
       0C:  052D  A$vibes_lab_tx_5.0$841           
       0C:  052F  A$vibes_lab_tx_5.0$842           
       0C:  0531  A$vibes_lab_tx_5.0$843           
       0C:  0533  A$vibes_lab_tx_5.0$844           
       0C:  0535  A$vibes_lab_tx_5.0$845           
       0C:  0537  A$vibes_lab_tx_5.0$846           
       0C:  0539  A$vibes_lab_tx_5.0$847           
       0C:  053C  A$vibes_lab_tx_5.0$850           
       0C:  053C  C$vibes_lab_tx_5.0.c$327$1$1     
       0C:  053E  A$vibes_lab_tx_5.0$853           
       0C:  053E  C$vibes_lab_tx_5.0.c$330$1$1     
       0C:  0541  A$vibes_lab_tx_5.0$854           
       0C:  0544  A$vibes_lab_tx_5.0$858           
       0C:  0544  C$vibes_lab_tx_5.0.c$334$2$2     
       0C:  0547  A$vibes_lab_tx_5.0$859           
       0C:  0548  A$vibes_lab_tx_5.0$860           
       0C:  0549  A$vibes_lab_tx_5.0$861           
       0C:  054A  A$vibes_lab_tx_5.0$862           
       0C:  054C  A$vibes_lab_tx_5.0$863           
       0C:  054D  A$vibes_lab_tx_5.0$864           
       0C:  054F  A$vibes_lab_tx_5.0$865           
       0C:  0552  A$vibes_lab_tx_5.0$866           
       0C:  0555  A$vibes_lab_tx_5.0$867           
       0C:  0558  A$vibes_lab_tx_5.0$868           
       0C:  055B  A$vibes_lab_tx_5.0$869           
       0C:  055E  A$vibes_lab_tx_5.0$872           
       0C:  055E  C$vibes_lab_tx_5.0.c$339$2$2     
       0C:  0560  A$vibes_lab_tx_5.0$873           
       0C:  0562  A$vibes_lab_tx_5.0$874           
       0C:  0564  A$vibes_lab_tx_5.0$875           
       0C:  0566  A$vibes_lab_tx_5.0$876           
       0C:  0567  A$vibes_lab_tx_5.0$877           
       0C:  0569  A$vibes_lab_tx_5.0$880           
       0C:  0569  C$vibes_lab_tx_5.0.c$342$2$2     
       0C:  056B  A$vibes_lab_tx_5.0$881           
       0C:  056C  A$vibes_lab_tx_5.0$882           
       0C:  056E  A$vibes_lab_tx_5.0$883           
       0C:  056F  A$vibes_lab_tx_5.0$884           
       0C:  0570  A$vibes_lab_tx_5.0$885           
ASxxxx Linker V02.00 + NoICE + sdld,  page 95.
Hexadecimal

Area                               Addr   Size   Decimal Bytes (Attributes)
--------------------------------   ----   ----   ------- ----- ------------
CSEG                               051D   157D =   5501. bytes (REL,CON,CODE)

      Value  Global                              Global Defined In Module
      -----  ---------------------------------   ------------------------
       0C:  0572  A$vibes_lab_tx_5.0$886           
       0C:  0574  A$vibes_lab_tx_5.0$887           
       0C:  0577  A$vibes_lab_tx_5.0$891           
       0C:  0577  C$vibes_lab_tx_5.0.c$345$3$3     
       0C:  057A  A$vibes_lab_tx_5.0$894           
       0C:  057A  C$vibes_lab_tx_5.0.c$347$4$4     
       0C:  057C  A$vibes_lab_tx_5.0$895           
       0C:  057E  A$vibes_lab_tx_5.0$896           
       0C:  057F  A$vibes_lab_tx_5.0$897           
       0C:  0581  A$vibes_lab_tx_5.0$898           
       0C:  0583  A$vibes_lab_tx_5.0$899           
       0C:  0584  A$vibes_lab_tx_5.0$900           
       0C:  0585  A$vibes_lab_tx_5.0$901           
       0C:  0587  A$vibes_lab_tx_5.0$902           
       0C:  0589  A$vibes_lab_tx_5.0$903           
       0C:  058B  A$vibes_lab_tx_5.0$904           
       0C:  058D  A$vibes_lab_tx_5.0$905           
       0C:  058E  A$vibes_lab_tx_5.0$906           
       0C:  058F  A$vibes_lab_tx_5.0$909           
       0C:  058F  C$vibes_lab_tx_5.0.c$348$4$4     
       0C:  0591  A$vibes_lab_tx_5.0$910           
       0C:  0593  A$vibes_lab_tx_5.0$911           
       0C:  0594  A$vibes_lab_tx_5.0$912           
       0C:  0596  A$vibes_lab_tx_5.0$913           
       0C:  0598  A$vibes_lab_tx_5.0$914           
       0C:  0599  A$vibes_lab_tx_5.0$915           
       0C:  059A  A$vibes_lab_tx_5.0$916           
       0C:  059C  A$vibes_lab_tx_5.0$917           
       0C:  059E  A$vibes_lab_tx_5.0$918           
       0C:  05A0  A$vibes_lab_tx_5.0$919           
       0C:  05A2  A$vibes_lab_tx_5.0$920           
       0C:  05A4  A$vibes_lab_tx_5.0$921           
       0C:  05A6  A$vibes_lab_tx_5.0$922           
       0C:  05A7  A$vibes_lab_tx_5.0$923           
       0C:  05A8  A$vibes_lab_tx_5.0$924           
       0C:  05A9  A$vibes_lab_tx_5.0$925           
       0C:  05AB  A$vibes_lab_tx_5.0$926           
       0C:  05AC  A$vibes_lab_tx_5.0$927           
       0C:  05AD  A$vibes_lab_tx_5.0$928           
       0C:  05AF  A$vibes_lab_tx_5.0$929           
       0C:  05B0  A$vibes_lab_tx_5.0$930           
       0C:  05B1  A$vibes_lab_tx_5.0$931           
       0C:  05B2  A$vibes_lab_tx_5.0$932           
       0C:  05B3  A$vibes_lab_tx_5.0$933           
       0C:  05B4  A$vibes_lab_tx_5.0$934           
       0C:  05B5  A$vibes_lab_tx_5.0$935           
       0C:  05B7  A$vibes_lab_tx_5.0$939           
       0C:  05B7  C$vibes_lab_tx_5.0.c$352$4$5     
       0C:  05B9  A$vibes_lab_tx_5.0$940           
       0C:  05BA  A$vibes_lab_tx_5.0$941           
       0C:  05BC  A$vibes_lab_tx_5.0$942           
ASxxxx Linker V02.00 + NoICE + sdld,  page 96.
Hexadecimal

Area                               Addr   Size   Decimal Bytes (Attributes)
--------------------------------   ----   ----   ------- ----- ------------
CSEG                               051D   157D =   5501. bytes (REL,CON,CODE)

      Value  Global                              Global Defined In Module
      -----  ---------------------------------   ------------------------
       0C:  05BD  A$vibes_lab_tx_5.0$943           
       0C:  05BE  A$vibes_lab_tx_5.0$944           
       0C:  05BF  A$vibes_lab_tx_5.0$945           
       0C:  05C1  A$vibes_lab_tx_5.0$946           
       0C:  05C2  A$vibes_lab_tx_5.0$947           
       0C:  05C4  A$vibes_lab_tx_5.0$948           
       0C:  05C5  A$vibes_lab_tx_5.0$949           
       0C:  05C7  A$vibes_lab_tx_5.0$950           
       0C:  05C9  A$vibes_lab_tx_5.0$951           
       0C:  05CA  A$vibes_lab_tx_5.0$952           
       0C:  05CB  A$vibes_lab_tx_5.0$953           
       0C:  05CD  A$vibes_lab_tx_5.0$954           
       0C:  05CF  A$vibes_lab_tx_5.0$955           
       0C:  05D0  A$vibes_lab_tx_5.0$956           
       0C:  05D1  A$vibes_lab_tx_5.0$957           
       0C:  05D3  A$vibes_lab_tx_5.0$958           
       0C:  05D5  A$vibes_lab_tx_5.0$959           
       0C:  05D7  A$vibes_lab_tx_5.0$960           
       0C:  05D8  A$vibes_lab_tx_5.0$961           
       0C:  05D9  A$vibes_lab_tx_5.0$962           
       0C:  05DA  A$vibes_lab_tx_5.0$963           
       0C:  05DC  A$vibes_lab_tx_5.0$964           
       0C:  05DE  A$vibes_lab_tx_5.0$965           
       0C:  05E0  A$vibes_lab_tx_5.0$966           
       0C:  05E1  A$vibes_lab_tx_5.0$967           
       0C:  05E2  A$vibes_lab_tx_5.0$970           
       0C:  05E2  C$vibes_lab_tx_5.0.c$353$4$5     
       0C:  05E4  A$vibes_lab_tx_5.0$971           
       0C:  05E6  A$vibes_lab_tx_5.0$972           
       0C:  05E7  A$vibes_lab_tx_5.0$973           
       0C:  05E9  A$vibes_lab_tx_5.0$974           
       0C:  05EB  A$vibes_lab_tx_5.0$975           
       0C:  05EC  A$vibes_lab_tx_5.0$976           
       0C:  05ED  A$vibes_lab_tx_5.0$977           
       0C:  05EF  A$vibes_lab_tx_5.0$978           
       0C:  05F1  A$vibes_lab_tx_5.0$979           
       0C:  05F3  A$vibes_lab_tx_5.0$980           
       0C:  05F5  A$vibes_lab_tx_5.0$981           
       0C:  05F7  A$vibes_lab_tx_5.0$982           
       0C:  05F8  A$vibes_lab_tx_5.0$983           
       0C:  05F9  A$vibes_lab_tx_5.0$987           
       0C:  05F9  C$vibes_lab_tx_5.0.c$357$3$3     
       0C:  05FB  A$vibes_lab_tx_5.0$990           
       0C:  05FB  C$vibes_lab_tx_5.0.c$360$3$3     
       0C:  05FD  A$vibes_lab_tx_5.0$991           
       0C:  0600  A$vibes_lab_tx_5.0$994           
       0C:  0600  C$vibes_lab_tx_5.0.c$363$4$6     
       0C:  0602  A$vibes_lab_tx_5.0$995           
       0C:  0603  A$vibes_lab_tx_5.0$996           
       0C:  0605  A$vibes_lab_tx_5.0$997           
       0C:  0606  A$vibes_lab_tx_5.0$998           
ASxxxx Linker V02.00 + NoICE + sdld,  page 97.
Hexadecimal

Area                               Addr   Size   Decimal Bytes (Attributes)
--------------------------------   ----   ----   ------- ----- ------------
CSEG                               051D   157D =   5501. bytes (REL,CON,CODE)

      Value  Global                              Global Defined In Module
      -----  ---------------------------------   ------------------------
       0C:  0607  A$vibes_lab_tx_5.0$999           
       0C:  0609  A$vibes_lab_tx_5.0$1000          
       0C:  060B  A$vibes_lab_tx_5.0$1001          
       0C:  060C  A$vibes_lab_tx_5.0$1004          
       0C:  060C  C$vibes_lab_tx_5.0.c$366$4$6     
       0C:  060F  A$vibes_lab_tx_5.0$1005          
       0C:  0612  A$vibes_lab_tx_5.0$1008          
       0C:  0612  C$vibes_lab_tx_5.0.c$367$4$6     
       0C:  0615  A$vibes_lab_tx_5.0$1009          
       0C:  0618  A$vibes_lab_tx_5.0$1010          
       0C:  061B  A$vibes_lab_tx_5.0$1011          
       0C:  061D  A$vibes_lab_tx_5.0$1012          
       0C:  0620  A$vibes_lab_tx_5.0$1013          
       0C:  0622  A$vibes_lab_tx_5.0$1014          
       0C:  0623  A$vibes_lab_tx_5.0$1015          
       0C:  0624  A$vibes_lab_tx_5.0$1016          
       0C:  0626  A$vibes_lab_tx_5.0$1017          
       0C:  0627  A$vibes_lab_tx_5.0$1020          
       0C:  0627  C$vibes_lab_tx_5.0.c$368$4$6     
       0C:  062A  A$vibes_lab_tx_5.0$1023          
       0C:  062A  C$vibes_lab_tx_5.0.c$371$4$6     
       0C:  062C  A$vibes_lab_tx_5.0$1024          
       0C:  062E  A$vibes_lab_tx_5.0$1028          
       0C:  062E  C$vibes_lab_tx_5.0.c$378$3$7     
       0C:  0630  A$vibes_lab_tx_5.0$1032          
       0C:  0630  C$vibes_lab_tx_5.0.c$383$1$1     
       0C:  0632  A$vibes_lab_tx_5.0$1033          
       0C:  0634  A$vibes_lab_tx_5.0$1034          
       0C:  0636  A$vibes_lab_tx_5.0$1035          
       0C:  0638  A$vibes_lab_tx_5.0$1036          
       0C:  063A  A$vibes_lab_tx_5.0$1037          
       0C:  063C  A$vibes_lab_tx_5.0$1038          
       0C:  063E  A$vibes_lab_tx_5.0$1039          
       0C:  0640  A$vibes_lab_tx_5.0$1040          
       0C:  0642  A$vibes_lab_tx_5.0$1041          
       0C:  0644  A$vibes_lab_tx_5.0$1042          
       0C:  0646  A$vibes_lab_tx_5.0$1043          
       0C:  0648  A$vibes_lab_tx_5.0$1044          
       0C:  064A  A$vibes_lab_tx_5.0$1045          
       0C:  064C  A$vibes_lab_tx_5.0$1046          
       0C:  064E  A$vibes_lab_tx_5.0$1049          
       0C:  064E  C$vibes_lab_tx_5.0.c$384$1$1     
       0C:  064E  XG$ISR_T3$0$0                    
       0C:  064F  A$vibes_lab_tx_5.0$1071          
       0C:  064F  C$vibes_lab_tx_5.0.c$398$1$1     
       0C:  064F  C$vibes_lab_tx_5.0.c$400$1$1     
       0C:  064F  Fvibes_lab_tx_5_0$updateLeds$0$0 
       0C:  0652  A$vibes_lab_tx_5.0$1074          
       0C:  0652  C$vibes_lab_tx_5.0.c$401$2$2     
       0C:  0655  A$vibes_lab_tx_5.0$1075          
       0C:  0657  A$vibes_lab_tx_5.0$1076          
ASxxxx Linker V02.00 + NoICE + sdld,  page 98.
Hexadecimal

Area                               Addr   Size   Decimal Bytes (Attributes)
--------------------------------   ----   ----   ------- ----- ------------
CSEG                               051D   157D =   5501. bytes (REL,CON,CODE)

      Value  Global                              Global Defined In Module
      -----  ---------------------------------   ------------------------
       0C:  065A  A$vibes_lab_tx_5.0$1077          
       0C:  065C  A$vibes_lab_tx_5.0$1079          
       0C:  065F  A$vibes_lab_tx_5.0$1083          
       0C:  065F  C$vibes_lab_tx_5.0.c$405$1$1     
       0C:  0662  A$vibes_lab_tx_5.0$1084          
       0C:  0664  A$vibes_lab_tx_5.0$1085          
       0C:  0666  A$vibes_lab_tx_5.0$1086          
       0C:  0668  A$vibes_lab_tx_5.0$1087          
       0C:  0669  A$vibes_lab_tx_5.0$1088          
       0C:  066A  A$vibes_lab_tx_5.0$1089          
       0C:  066B  A$vibes_lab_tx_5.0$1090          
       0C:  066D  A$vibes_lab_tx_5.0$1091          
       0C:  066E  A$vibes_lab_tx_5.0$1092          
       0C:  066F  A$vibes_lab_tx_5.0$1093          
       0C:  0671  A$vibes_lab_tx_5.0$1094          
       0C:  0672  A$vibes_lab_tx_5.0$1095          
       0C:  0673  A$vibes_lab_tx_5.0$1096          
       0C:  0675  A$vibes_lab_tx_5.0$1097          
       0C:  0676  A$vibes_lab_tx_5.0$1098          
       0C:  0677  A$vibes_lab_tx_5.0$1099          
       0C:  0679  A$vibes_lab_tx_5.0$1100          
       0C:  067A  A$vibes_lab_tx_5.0$1101          
       0C:  067B  A$vibes_lab_tx_5.0$1102          
       0C:  067D  A$vibes_lab_tx_5.0$1103          
       0C:  067E  A$vibes_lab_tx_5.0$1104          
       0C:  0680  A$vibes_lab_tx_5.0$1105          
       0C:  0681  A$vibes_lab_tx_5.0$1106          
       0C:  0682  A$vibes_lab_tx_5.0$1107          
       0C:  0683  A$vibes_lab_tx_5.0$1108          
       0C:  0684  A$vibes_lab_tx_5.0$1109          
       0C:  0685  A$vibes_lab_tx_5.0$1110          
       0C:  0687  A$vibes_lab_tx_5.0$1111          
       0C:  068A  A$vibes_lab_tx_5.0$1114          
       0C:  068A  C$vibes_lab_tx_5.0.c$406$1$1     
       0C:  068D  A$vibes_lab_tx_5.0$1117          
       0C:  068D  C$vibes_lab_tx_5.0.c$409$3$4     
       0C:  0690  A$vibes_lab_tx_5.0$1120          
       0C:  0690  C$vibes_lab_tx_5.0.c$412$2$3     
       0C:  0692  A$vibes_lab_tx_5.0$1123          
       0C:  0692  C$vibes_lab_tx_5.0.c$413$2$3     
       0C:  0695  A$vibes_lab_tx_5.0$1124          
       0C:  0698  A$vibes_lab_tx_5.0$1125          
       0C:  069B  A$vibes_lab_tx_5.0$1126          
       0C:  069E  A$vibes_lab_tx_5.0$1127          
       0C:  06A0  A$vibes_lab_tx_5.0$1131          
       0C:  06A0  C$vibes_lab_tx_5.0.c$415$2$1     
       0C:  06A0  XFvibes_lab_tx_5_0$updateLeds$0$0
       0C:  06A1  A$vibes_lab_tx_5.0$1145          
       0C:  06A1  C$vibes_lab_tx_5.0.c$437$2$1     
       0C:  06A1  C$vibes_lab_tx_5.0.c$440$1$1     
       0C:  06A1  G$main$0$0                       
ASxxxx Linker V02.00 + NoICE + sdld,  page 99.
Hexadecimal

Area                               Addr   Size   Decimal Bytes (Attributes)
--------------------------------   ----   ----   ------- ----- ------------
CSEG                               051D   157D =   5501. bytes (REL,CON,CODE)

      Value  Global                              Global Defined In Module
      -----  ---------------------------------   ------------------------
       0C:  06A1  _main                            
       0C:  06A3  A$vibes_lab_tx_5.0$1148          
       0C:  06A3  C$vibes_lab_tx_5.0.c$443$1$1     
       0C:  06A6  A$vibes_lab_tx_5.0$1151          
       0C:  06A6  C$vibes_lab_tx_5.0.c$444$1$1     
       0C:  06A9  A$vibes_lab_tx_5.0$1154          
       0C:  06A9  C$vibes_lab_tx_5.0.c$446$1$1     
       0C:  06AB  A$vibes_lab_tx_5.0$1155          
       0C:  06AE  A$vibes_lab_tx_5.0$1158          
       0C:  06AE  C$vibes_lab_tx_5.0.c$447$1$1     
       0C:  06B1  A$vibes_lab_tx_5.0$1161          
       0C:  06B1  C$vibes_lab_tx_5.0.c$450$1$1     
       0C:  06B3  A$vibes_lab_tx_5.0$1162          
       0C:  06B6  A$vibes_lab_tx_5.0$1163          
       0C:  06B9  A$vibes_lab_tx_5.0$1166          
       0C:  06B9  C$vibes_lab_tx_5.0.c$451$1$1     
       0C:  06BC  A$vibes_lab_tx_5.0$1167          
       0C:  06BD  A$vibes_lab_tx_5.0$1168          
       0C:  06BE  A$vibes_lab_tx_5.0$1169          
       0C:  06BF  A$vibes_lab_tx_5.0$1170          
       0C:  06C1  A$vibes_lab_tx_5.0$1171          
       0C:  06C4  A$vibes_lab_tx_5.0$1172          
       0C:  06C6  A$vibes_lab_tx_5.0$1173          
       0C:  06C9  A$vibes_lab_tx_5.0$1176          
       0C:  06C9  C$vibes_lab_tx_5.0.c$454$1$1     
       0C:  06CB  A$vibes_lab_tx_5.0$1179          
       0C:  06CB  C$vibes_lab_tx_5.0.c$456$1$1     
       0C:  06CE  A$vibes_lab_tx_5.0$1180          
       0C:  06D0  A$vibes_lab_tx_5.0$1181          
       0C:  06D3  A$vibes_lab_tx_5.0$1182          
       0C:  06D5  A$vibes_lab_tx_5.0$1183          
       0C:  06D6  A$vibes_lab_tx_5.0$1184          
       0C:  06D7  A$vibes_lab_tx_5.0$1185          
       0C:  06D9  A$vibes_lab_tx_5.0$1186          
       0C:  06DA  A$vibes_lab_tx_5.0$1189          
       0C:  06DA  C$vibes_lab_tx_5.0.c$457$1$1     
       0C:  06DD  A$vibes_lab_tx_5.0$1192          
       0C:  06DD  C$vibes_lab_tx_5.0.c$458$1$1     
       0C:  06DF  A$vibes_lab_tx_5.0$1195          
       0C:  06DF  C$vibes_lab_tx_5.0.c$459$1$1     
       0C:  06E0  A$vibes_lab_tx_5.0$1196          
       0C:  06E2  A$vibes_lab_tx_5.0$1197          
       0C:  06E4  A$vibes_lab_tx_5.0$1200          
       0C:  06E4  C$vibes_lab_tx_5.0.c$460$1$1     
       0C:  06E7  A$vibes_lab_tx_5.0$1203          
       0C:  06E7  C$vibes_lab_tx_5.0.c$462$1$1     
       0C:  06EA  A$vibes_lab_tx_5.0$1204          
       0C:  06ED  A$vibes_lab_tx_5.0$1205          
       0C:  06F0  A$vibes_lab_tx_5.0$1206          
       0C:  06F3  A$vibes_lab_tx_5.0$1207          
       0C:  06F5  A$vibes_lab_tx_5.0$1210          
ASxxxx Linker V02.00 + NoICE + sdld,  page 100.
Hexadecimal

Area                               Addr   Size   Decimal Bytes (Attributes)
--------------------------------   ----   ----   ------- ----- ------------
CSEG                               051D   157D =   5501. bytes (REL,CON,CODE)

      Value  Global                              Global Defined In Module
      -----  ---------------------------------   ------------------------
       0C:  06F5  C$vibes_lab_tx_5.0.c$465$1$1     
       0C:  06F7  A$vibes_lab_tx_5.0$1216          
       0C:  06F7  C$vibes_lab_tx_5.0.c$468$1$1     
       0C:  06F7  C$vibes_lab_tx_5.0.c$470$2$2     
       0C:  06FA  A$vibes_lab_tx_5.0$1219          
       0C:  06FA  C$vibes_lab_tx_5.0.c$471$2$2     
       0C:  06FD  A$vibes_lab_tx_5.0$1222          
       0C:  06FD  C$vibes_lab_tx_5.0.c$472$2$2     
       0C:  0700  A$vibes_lab_tx_5.0$1226          
       0C:  0700  C$vibes_lab_tx_5.0.c$475$2$2     
       0C:  0702  A$vibes_lab_tx_5.0$1227          
       0C:  0704  A$vibes_lab_tx_5.0$1230          
       0C:  0704  C$vibes_lab_tx_5.0.c$478$3$3     
       0C:  0707  A$vibes_lab_tx_5.0$1231          
       0C:  0709  A$vibes_lab_tx_5.0$1234          
       0C:  0709  C$vibes_lab_tx_5.0.c$481$4$4     
       0C:  070C  A$vibes_lab_tx_5.0$1237          
       0C:  070C  C$vibes_lab_tx_5.0.c$482$4$4     
       0C:  070E  A$vibes_lab_tx_5.0$1240          
       0C:  070E  C$vibes_lab_tx_5.0.c$486$1$1     
       0C:  070E  XG$main$0$0                      
       0C:  0710  A$vibes_lab_radio_protocol$808   
       0C:  0710  C$vibes_lab_radio_protocol.c$155$
       0C:  0710  C$vibes_lab_radio_protocol.c$158$
       0C:  0710  G$radioInit$0$0                  
       0C:  0710  _radioInit                       
       0C:  0712  A$vibes_lab_radio_protocol$809   
       0C:  0714  A$vibes_lab_radio_protocol$812   
       0C:  0714  C$vibes_lab_radio_protocol.c$160$
       0C:  0716  A$vibes_lab_radio_protocol$815   
       0C:  0716  C$vibes_lab_radio_protocol.c$162$
       0C:  0718  A$vibes_lab_radio_protocol$818   
       0C:  0718  C$vibes_lab_radio_protocol.c$164$
       0C:  071B  A$vibes_lab_radio_protocol$821   
       0C:  071B  C$vibes_lab_radio_protocol.c$165$
       0C:  071E  A$vibes_lab_radio_protocol$824   
       0C:  071E  C$vibes_lab_radio_protocol.c$166$
       0C:  0721  A$vibes_lab_radio_protocol$827   
       0C:  0721  C$vibes_lab_radio_protocol.c$168$
       0C:  0723  A$vibes_lab_radio_protocol$828   
       0C:  0724  A$vibes_lab_radio_protocol$829   
       0C:  0725  A$vibes_lab_radio_protocol$832   
       0C:  0725  C$vibes_lab_radio_protocol.c$170$
       0C:  0727  A$vibes_lab_radio_protocol$835   
       0C:  0727  C$vibes_lab_radio_protocol.c$171$
       0C:  0729  A$vibes_lab_radio_protocol$838   
       0C:  0729  C$vibes_lab_radio_protocol.c$173$
       0C:  072B  A$vibes_lab_radio_protocol$841   
       0C:  072B  C$vibes_lab_radio_protocol.c$174$
       0C:  072D  A$vibes_lab_radio_protocol$844   
       0C:  072D  C$vibes_lab_radio_protocol.c$175$
ASxxxx Linker V02.00 + NoICE + sdld,  page 101.
Hexadecimal

Area                               Addr   Size   Decimal Bytes (Attributes)
--------------------------------   ----   ----   ------- ----- ------------
CSEG                               051D   157D =   5501. bytes (REL,CON,CODE)

      Value  Global                              Global Defined In Module
      -----  ---------------------------------   ------------------------
       0C:  072F  A$vibes_lab_radio_protocol$847   
       0C:  072F  C$vibes_lab_radio_protocol.c$178$
       0C:  0732  A$vibes_lab_radio_protocol$848   
       0C:  0734  A$vibes_lab_radio_protocol$849   
       0C:  0735  A$vibes_lab_radio_protocol$852   
       0C:  0735  C$vibes_lab_radio_protocol.c$179$
       0C:  0738  A$vibes_lab_radio_protocol$853   
       0C:  0739  A$vibes_lab_radio_protocol$854   
       0C:  073A  A$vibes_lab_radio_protocol$855   
       0C:  073B  A$vibes_lab_radio_protocol$856   
       0C:  073D  A$vibes_lab_radio_protocol$857   
       0C:  073E  A$vibes_lab_radio_protocol$858   
       0C:  073F  A$vibes_lab_radio_protocol$859   
       0C:  0741  A$vibes_lab_radio_protocol$860   
       0C:  0742  A$vibes_lab_radio_protocol$861   
       0C:  0743  A$vibes_lab_radio_protocol$862   
       0C:  0745  A$vibes_lab_radio_protocol$863   
       0C:  0746  A$vibes_lab_radio_protocol$864   
       0C:  0747  A$vibes_lab_radio_protocol$865   
       0C:  074A  A$vibes_lab_radio_protocol$866   
       0C:  074B  A$vibes_lab_radio_protocol$867   
       0C:  074C  A$vibes_lab_radio_protocol$870   
       0C:  074C  C$vibes_lab_radio_protocol.c$182$
       0C:  074F  A$vibes_lab_radio_protocol$871   
       0C:  0751  A$vibes_lab_radio_protocol$872   
       0C:  0752  A$vibes_lab_radio_protocol$875   
       0C:  0752  C$vibes_lab_radio_protocol.c$187$
       0C:  0755  A$vibes_lab_radio_protocol$876   
       0C:  0757  A$vibes_lab_radio_protocol$877   
       0C:  0758  A$vibes_lab_radio_protocol$880   
       0C:  0758  C$vibes_lab_radio_protocol.c$188$
       0C:  075B  A$vibes_lab_radio_protocol$881   
       0C:  075D  A$vibes_lab_radio_protocol$882   
       0C:  075E  A$vibes_lab_radio_protocol$885   
       0C:  075E  C$vibes_lab_radio_protocol.c$189$
       0C:  0761  A$vibes_lab_radio_protocol$886   
       0C:  0762  A$vibes_lab_radio_protocol$887   
       0C:  0763  A$vibes_lab_radio_protocol$890   
       0C:  0763  C$vibes_lab_radio_protocol.c$202$
       0C:  0766  A$vibes_lab_radio_protocol$891   
       0C:  0768  A$vibes_lab_radio_protocol$892   
       0C:  0769  A$vibes_lab_radio_protocol$895   
       0C:  0769  C$vibes_lab_radio_protocol.c$203$
       0C:  076C  A$vibes_lab_radio_protocol$896   
       0C:  076E  A$vibes_lab_radio_protocol$897   
       0C:  076F  A$vibes_lab_radio_protocol$900   
       0C:  076F  C$vibes_lab_radio_protocol.c$207$
       0C:  0772  A$vibes_lab_radio_protocol$901   
       0C:  0774  A$vibes_lab_radio_protocol$902   
       0C:  0775  A$vibes_lab_radio_protocol$905   
       0C:  0775  C$vibes_lab_radio_protocol.c$208$
ASxxxx Linker V02.00 + NoICE + sdld,  page 102.
Hexadecimal

Area                               Addr   Size   Decimal Bytes (Attributes)
--------------------------------   ----   ----   ------- ----- ------------
CSEG                               051D   157D =   5501. bytes (REL,CON,CODE)

      Value  Global                              Global Defined In Module
      -----  ---------------------------------   ------------------------
       0C:  0778  A$vibes_lab_radio_protocol$906   
       0C:  0779  A$vibes_lab_radio_protocol$907   
       0C:  077A  A$vibes_lab_radio_protocol$910   
       0C:  077A  C$vibes_lab_radio_protocol.c$214$
       0C:  077D  A$vibes_lab_radio_protocol$911   
       0C:  077F  A$vibes_lab_radio_protocol$912   
       0C:  0780  A$vibes_lab_radio_protocol$915   
       0C:  0780  C$vibes_lab_radio_protocol.c$215$
       0C:  0783  A$vibes_lab_radio_protocol$916   
       0C:  0785  A$vibes_lab_radio_protocol$917   
       0C:  0786  A$vibes_lab_radio_protocol$920   
       0C:  0786  C$vibes_lab_radio_protocol.c$222$
       0C:  0789  A$vibes_lab_radio_protocol$921   
       0C:  078B  A$vibes_lab_radio_protocol$922   
       0C:  078C  A$vibes_lab_radio_protocol$925   
       0C:  078C  C$vibes_lab_radio_protocol.c$227$
       0C:  078F  A$vibes_lab_radio_protocol$926   
       0C:  0791  A$vibes_lab_radio_protocol$927   
       0C:  0792  A$vibes_lab_radio_protocol$930   
       0C:  0792  C$vibes_lab_radio_protocol.c$228$
       0C:  0795  A$vibes_lab_radio_protocol$931   
       0C:  0797  A$vibes_lab_radio_protocol$932   
       0C:  0798  A$vibes_lab_radio_protocol$935   
       0C:  0798  C$vibes_lab_radio_protocol.c$232$
       0C:  079B  A$vibes_lab_radio_protocol$936   
       0C:  079D  A$vibes_lab_radio_protocol$937   
       0C:  079E  A$vibes_lab_radio_protocol$940   
       0C:  079E  C$vibes_lab_radio_protocol.c$233$
       0C:  07A1  A$vibes_lab_radio_protocol$941   
       0C:  07A3  A$vibes_lab_radio_protocol$942   
       0C:  07A4  A$vibes_lab_radio_protocol$945   
       0C:  07A4  C$vibes_lab_radio_protocol.c$239$
       0C:  07A7  A$vibes_lab_radio_protocol$946   
       0C:  07A9  A$vibes_lab_radio_protocol$947   
       0C:  07AA  A$vibes_lab_radio_protocol$950   
       0C:  07AA  C$vibes_lab_radio_protocol.c$240$
       0C:  07AD  A$vibes_lab_radio_protocol$951   
       0C:  07AE  A$vibes_lab_radio_protocol$952   
       0C:  07AF  A$vibes_lab_radio_protocol$955   
       0C:  07AF  C$vibes_lab_radio_protocol.c$241$
       0C:  07B2  A$vibes_lab_radio_protocol$956   
       0C:  07B4  A$vibes_lab_radio_protocol$957   
       0C:  07B5  A$vibes_lab_radio_protocol$960   
       0C:  07B5  C$vibes_lab_radio_protocol.c$244$
       0C:  07B8  A$vibes_lab_radio_protocol$961   
       0C:  07BA  A$vibes_lab_radio_protocol$962   
       0C:  07BB  A$vibes_lab_radio_protocol$965   
       0C:  07BB  C$vibes_lab_radio_protocol.c$245$
       0C:  07BE  A$vibes_lab_radio_protocol$966   
       0C:  07C0  A$vibes_lab_radio_protocol$967   
       0C:  07C1  A$vibes_lab_radio_protocol$970   
ASxxxx Linker V02.00 + NoICE + sdld,  page 103.
Hexadecimal

Area                               Addr   Size   Decimal Bytes (Attributes)
--------------------------------   ----   ----   ------- ----- ------------
CSEG                               051D   157D =   5501. bytes (REL,CON,CODE)

      Value  Global                              Global Defined In Module
      -----  ---------------------------------   ------------------------
       0C:  07C1  C$vibes_lab_radio_protocol.c$246$
       0C:  07C4  A$vibes_lab_radio_protocol$971   
       0C:  07C5  A$vibes_lab_radio_protocol$972   
       0C:  07C6  A$vibes_lab_radio_protocol$975   
       0C:  07C6  C$vibes_lab_radio_protocol.c$247$
       0C:  07C9  A$vibes_lab_radio_protocol$976   
       0C:  07CB  A$vibes_lab_radio_protocol$977   
       0C:  07CC  A$vibes_lab_radio_protocol$980   
       0C:  07CC  C$vibes_lab_radio_protocol.c$251$
       0C:  07CF  A$vibes_lab_radio_protocol$981   
       0C:  07D1  A$vibes_lab_radio_protocol$982   
       0C:  07D2  A$vibes_lab_radio_protocol$985   
       0C:  07D2  C$vibes_lab_radio_protocol.c$252$
       0C:  07D5  A$vibes_lab_radio_protocol$986   
       0C:  07D7  A$vibes_lab_radio_protocol$987   
       0C:  07D8  A$vibes_lab_radio_protocol$990   
       0C:  07D8  C$vibes_lab_radio_protocol.c$253$
       0C:  07DB  A$vibes_lab_radio_protocol$991   
       0C:  07DD  A$vibes_lab_radio_protocol$992   
       0C:  07DE  A$vibes_lab_radio_protocol$995   
       0C:  07DE  C$vibes_lab_radio_protocol.c$256$
       0C:  07E1  A$vibes_lab_radio_protocol$996   
       0C:  07E3  A$vibes_lab_radio_protocol$997   
       0C:  07E4  A$vibes_lab_radio_protocol$1000  
       0C:  07E4  C$vibes_lab_radio_protocol.c$257$
       0C:  07E7  A$vibes_lab_radio_protocol$1001  
       0C:  07E9  A$vibes_lab_radio_protocol$1002  
       0C:  07EA  A$vibes_lab_radio_protocol$1005  
       0C:  07EA  C$vibes_lab_radio_protocol.c$260$
       0C:  07ED  A$vibes_lab_radio_protocol$1006  
       0C:  07EF  A$vibes_lab_radio_protocol$1007  
       0C:  07F0  A$vibes_lab_radio_protocol$1010  
       0C:  07F0  C$vibes_lab_radio_protocol.c$261$
       0C:  07F3  A$vibes_lab_radio_protocol$1011  
       0C:  07F4  A$vibes_lab_radio_protocol$1012  
       0C:  07F5  A$vibes_lab_radio_protocol$1015  
       0C:  07F5  C$vibes_lab_radio_protocol.c$262$
       0C:  07F8  A$vibes_lab_radio_protocol$1016  
       0C:  07FA  A$vibes_lab_radio_protocol$1017  
       0C:  07FB  A$vibes_lab_radio_protocol$1020  
       0C:  07FB  C$vibes_lab_radio_protocol.c$264$
       0C:  07FE  A$vibes_lab_radio_protocol$1023  
       0C:  07FE  C$vibes_lab_radio_protocol.c$265$
       0C:  0801  A$vibes_lab_radio_protocol$1026  
       0C:  0801  C$vibes_lab_radio_protocol.c$268$
       0C:  0804  A$vibes_lab_radio_protocol$1029  
       0C:  0804  C$vibes_lab_radio_protocol.c$269$
       0C:  0806  A$vibes_lab_radio_protocol$1030  
       0C:  0809  A$vibes_lab_radio_protocol$1033  
       0C:  0809  C$vibes_lab_radio_protocol.c$272$
       0C:  080C  A$vibes_lab_radio_protocol$1036  
ASxxxx Linker V02.00 + NoICE + sdld,  page 104.
Hexadecimal

Area                               Addr   Size   Decimal Bytes (Attributes)
--------------------------------   ----   ----   ------- ----- ------------
CSEG                               051D   157D =   5501. bytes (REL,CON,CODE)

      Value  Global                              Global Defined In Module
      -----  ---------------------------------   ------------------------
       0C:  080C  C$vibes_lab_radio_protocol.c$273$
       0C:  080F  A$vibes_lab_radio_protocol$1039  
       0C:  080F  C$vibes_lab_radio_protocol.c$275$
       0C:  0811  A$vibes_lab_radio_protocol$1042  
       0C:  0811  C$vibes_lab_radio_protocol.c$278$
       0C:  0814  A$vibes_lab_radio_protocol$1045  
       0C:  0814  C$vibes_lab_radio_protocol.c$280$
       0C:  0816  A$vibes_lab_radio_protocol$1046  
       0C:  0818  A$vibes_lab_radio_protocol$1047  
       0C:  0819  A$vibes_lab_radio_protocol$1050  
       0C:  0819  C$vibes_lab_radio_protocol.c$282$
       0C:  081C  A$vibes_lab_radio_protocol$1053  
       0C:  081C  C$vibes_lab_radio_protocol.c$284$
       0C:  081C  XG$radioInit$0$0                 
       0C:  081F  A$vibes_lab_radio_protocol$1055  
       0C:  0820  A$vibes_lab_radio_protocol$1069  
       0C:  0820  C$vibes_lab_radio_protocol.c$291$
       0C:  0820  C$vibes_lab_radio_protocol.c$293$
       0C:  0820  G$radioTxAvailable$0$0           
       0C:  0820  _radioTxAvailable                
       0C:  0823  A$vibes_lab_radio_protocol$1072  
       0C:  0823  C$vibes_lab_radio_protocol.c$297$
       0C:  0825  A$vibes_lab_radio_protocol$1073  
       0C:  0826  A$vibes_lab_radio_protocol$1074  
       0C:  0827  A$vibes_lab_radio_protocol$1078  
       0C:  0827  C$vibes_lab_radio_protocol.c$300$
       0C:  0828  A$vibes_lab_radio_protocol$1081  
       0C:  0828  C$vibes_lab_radio_protocol.c$301$
       0C:  0828  XG$radioTxAvailable$0$0          
       0C:  0829  A$vibes_lab_radio_protocol$1095  
       0C:  0829  C$vibes_lab_radio_protocol.c$303$
       0C:  0829  C$vibes_lab_radio_protocol.c$308$
       0C:  0829  G$radioTxCurrentPacket$0$0       
       0C:  0829  _radioTxCurrentPacket            
       0C:  082C  A$vibes_lab_radio_protocol$1096  
       0C:  082E  A$vibes_lab_radio_protocol$1097  
       0C:  0830  A$vibes_lab_radio_protocol$1101  
       0C:  0830  C$vibes_lab_radio_protocol.c$310$
       0C:  0833  A$vibes_lab_radio_protocol$1102  
       0C:  0834  A$vibes_lab_radio_protocol$1106  
       0C:  0834  C$vibes_lab_radio_protocol.c$313$
       0C:  0836  A$vibes_lab_radio_protocol$1107  
       0C:  0839  A$vibes_lab_radio_protocol$1108  
       0C:  083A  A$vibes_lab_radio_protocol$1109  
       0C:  083C  A$vibes_lab_radio_protocol$1110  
       0C:  083D  A$vibes_lab_radio_protocol$1111  
       0C:  083F  A$vibes_lab_radio_protocol$1112  
       0C:  0841  A$vibes_lab_radio_protocol$1115  
       0C:  0841  C$vibes_lab_radio_protocol.c$314$
       0C:  0841  XG$radioTxCurrentPacket$0$0      
       0C:  0843  A$vibes_lab_radio_protocol$1116  
ASxxxx Linker V02.00 + NoICE + sdld,  page 105.
Hexadecimal

Area                               Addr   Size   Decimal Bytes (Attributes)
--------------------------------   ----   ----   ------- ----- ------------
CSEG                               051D   157D =   5501. bytes (REL,CON,CODE)

      Value  Global                              Global Defined In Module
      -----  ---------------------------------   ------------------------
       0C:  0845  A$vibes_lab_radio_protocol$1117  
       0C:  0846  A$vibes_lab_radio_protocol$1131  
       0C:  0846  C$vibes_lab_radio_protocol.c$316$
       0C:  0846  C$vibes_lab_radio_protocol.c$320$
       0C:  0846  G$radioTxSendPacket$0$0          
       0C:  0846  _radioTxSendPacket               
       0C:  0849  A$vibes_lab_radio_protocol$1132  
       0C:  084A  A$vibes_lab_radio_protocol$1134  
       0C:  084D  A$vibes_lab_radio_protocol$1135  
       0C:  084E  A$vibes_lab_radio_protocol$1139  
       0C:  084E  C$vibes_lab_radio_protocol.c$322$
       0C:  0850  A$vibes_lab_radio_protocol$1142  
       0C:  0850  C$vibes_lab_radio_protocol.c$324$
       0C:  0853  A$vibes_lab_radio_protocol$1145  
       0C:  0853  C$vibes_lab_radio_protocol.c$327$
       0C:  0855  A$vibes_lab_radio_protocol$1146  
       0C:  0858  A$vibes_lab_radio_protocol$1147  
       0C:  0859  A$vibes_lab_radio_protocol$1148  
       0C:  085B  A$vibes_lab_radio_protocol$1149  
       0C:  085C  A$vibes_lab_radio_protocol$1150  
       0C:  085E  A$vibes_lab_radio_protocol$1151  
       0C:  0860  A$vibes_lab_radio_protocol$1152  
       0C:  0861  A$vibes_lab_radio_protocol$1153  
       0C:  0863  A$vibes_lab_radio_protocol$1154  
       0C:  0865  A$vibes_lab_radio_protocol$1155  
       0C:  0866  A$vibes_lab_radio_protocol$1156  
       0C:  0867  A$vibes_lab_radio_protocol$1157  
       0C:  0868  A$vibes_lab_radio_protocol$1158  
       0C:  086A  A$vibes_lab_radio_protocol$1159  
       0C:  086C  A$vibes_lab_radio_protocol$1160  
       0C:  086D  A$vibes_lab_radio_protocol$1161  
       0C:  086E  A$vibes_lab_radio_protocol$1164  
       0C:  086E  C$vibes_lab_radio_protocol.c$330$
       0C:  0870  A$vibes_lab_radio_protocol$1165  
       0C:  0873  A$vibes_lab_radio_protocol$1166  
       0C:  0874  A$vibes_lab_radio_protocol$1167  
       0C:  0876  A$vibes_lab_radio_protocol$1168  
       0C:  0877  A$vibes_lab_radio_protocol$1169  
       0C:  0879  A$vibes_lab_radio_protocol$1170  
       0C:  087B  A$vibes_lab_radio_protocol$1171  
       0C:  087C  A$vibes_lab_radio_protocol$1172  
       0C:  087E  A$vibes_lab_radio_protocol$1173  
       0C:  0881  A$vibes_lab_radio_protocol$1174  
       0C:  0882  A$vibes_lab_radio_protocol$1175  
       0C:  0884  A$vibes_lab_radio_protocol$1176  
       0C:  0886  A$vibes_lab_radio_protocol$1177  
       0C:  0888  A$vibes_lab_radio_protocol$1178  
       0C:  088A  A$vibes_lab_radio_protocol$1179  
       0C:  088C  A$vibes_lab_radio_protocol$1180  
       0C:  088D  A$vibes_lab_radio_protocol$1181  
       0C:  088E  A$vibes_lab_radio_protocol$1182  
ASxxxx Linker V02.00 + NoICE + sdld,  page 106.
Hexadecimal

Area                               Addr   Size   Decimal Bytes (Attributes)
--------------------------------   ----   ----   ------- ----- ------------
CSEG                               051D   157D =   5501. bytes (REL,CON,CODE)

      Value  Global                              Global Defined In Module
      -----  ---------------------------------   ------------------------
       0C:  088F  A$vibes_lab_radio_protocol$1183  
       0C:  0891  A$vibes_lab_radio_protocol$1184  
       0C:  0892  A$vibes_lab_radio_protocol$1185  
       0C:  0893  A$vibes_lab_radio_protocol$1186  
       0C:  0895  A$vibes_lab_radio_protocol$1187  
       0C:  0897  A$vibes_lab_radio_protocol$1188  
       0C:  0898  A$vibes_lab_radio_protocol$1189  
       0C:  0899  A$vibes_lab_radio_protocol$1195  
       0C:  0899  C$vibes_lab_radio_protocol.c$335$
       0C:  0899  C$vibes_lab_radio_protocol.c$336$
       0C:  089B  A$vibes_lab_radio_protocol$1196  
       0C:  089E  A$vibes_lab_radio_protocol$1197  
       0C:  089F  A$vibes_lab_radio_protocol$1198  
       0C:  08A1  A$vibes_lab_radio_protocol$1199  
       0C:  08A3  A$vibes_lab_radio_protocol$1200  
       0C:  08A5  A$vibes_lab_radio_protocol$1201  
       0C:  08A6  A$vibes_lab_radio_protocol$1202  
       0C:  08A9  A$vibes_lab_radio_protocol$1203  
       0C:  08AA  A$vibes_lab_radio_protocol$1204  
       0C:  08AB  A$vibes_lab_radio_protocol$1209  
       0C:  08AB  C$vibes_lab_radio_protocol.c$337$
       0C:  08AB  C$vibes_lab_radio_protocol.c$338$
       0C:  08AD  A$vibes_lab_radio_protocol$1210  
       0C:  08B0  A$vibes_lab_radio_protocol$1211  
       0C:  08B1  A$vibes_lab_radio_protocol$1212  
       0C:  08B3  A$vibes_lab_radio_protocol$1213  
       0C:  08B4  A$vibes_lab_radio_protocol$1214  
       0C:  08B6  A$vibes_lab_radio_protocol$1215  
       0C:  08B8  A$vibes_lab_radio_protocol$1216  
       0C:  08BB  A$vibes_lab_radio_protocol$1217  
       0C:  08BC  A$vibes_lab_radio_protocol$1218  
       0C:  08BD  A$vibes_lab_radio_protocol$1221  
       0C:  08BD  C$vibes_lab_radio_protocol.c$339$
       0C:  08BF  A$vibes_lab_radio_protocol$1222  
       0C:  08C1  A$vibes_lab_radio_protocol$1223  
       0C:  08C3  A$vibes_lab_radio_protocol$1224  
       0C:  08C4  A$vibes_lab_radio_protocol$1225  
       0C:  08C5  A$vibes_lab_radio_protocol$1226  
       0C:  08C8  A$vibes_lab_radio_protocol$1227  
       0C:  08C9  A$vibes_lab_radio_protocol$1228  
       0C:  08CA  A$vibes_lab_radio_protocol$1231  
       0C:  08CA  C$vibes_lab_radio_protocol.c$340$
       0C:  08CC  A$vibes_lab_radio_protocol$1232  
       0C:  08CF  A$vibes_lab_radio_protocol$1233  
       0C:  08D0  A$vibes_lab_radio_protocol$1234  
       0C:  08D1  A$vibes_lab_radio_protocol$1237  
       0C:  08D1  C$vibes_lab_radio_protocol.c$341$
       0C:  08D4  A$vibes_lab_radio_protocol$1238  
       0C:  08D6  A$vibes_lab_radio_protocol$1239  
       0C:  08D7  A$vibes_lab_radio_protocol$1242  
       0C:  08D7  C$vibes_lab_radio_protocol.c$342$
ASxxxx Linker V02.00 + NoICE + sdld,  page 107.
Hexadecimal

Area                               Addr   Size   Decimal Bytes (Attributes)
--------------------------------   ----   ----   ------- ----- ------------
CSEG                               051D   157D =   5501. bytes (REL,CON,CODE)

      Value  Global                              Global Defined In Module
      -----  ---------------------------------   ------------------------
       0C:  08DA  A$vibes_lab_radio_protocol$1243  
       0C:  08DC  A$vibes_lab_radio_protocol$1244  
       0C:  08DD  A$vibes_lab_radio_protocol$1247  
       0C:  08DD  C$vibes_lab_radio_protocol.c$343$
       0C:  08E0  A$vibes_lab_radio_protocol$1248  
       0C:  08E2  A$vibes_lab_radio_protocol$1249  
       0C:  08E3  A$vibes_lab_radio_protocol$1252  
       0C:  08E3  C$vibes_lab_radio_protocol.c$344$
       0C:  08E6  A$vibes_lab_radio_protocol$1253  
       0C:  08E8  A$vibes_lab_radio_protocol$1254  
       0C:  08E9  A$vibes_lab_radio_protocol$1257  
       0C:  08E9  C$vibes_lab_radio_protocol.c$347$
       0C:  08EC  A$vibes_lab_radio_protocol$1260  
       0C:  08EC  C$vibes_lab_radio_protocol.c$350$
       0C:  08EF  A$vibes_lab_radio_protocol$1263  
       0C:  08EF  C$vibes_lab_radio_protocol.c$352$
       0C:  08EF  XG$radioTxSendPacket$0$0         
       0C:  08F0  A$vibes_lab_radio_protocol$1277  
       0C:  08F0  C$vibes_lab_radio_protocol.c$354$
       0C:  08F0  C$vibes_lab_radio_protocol.c$356$
       0C:  08F0  G$radioTxDoneWithPacket$0$0      
       0C:  08F0  _radioTxDoneWithPacket           
       0C:  08F3  A$vibes_lab_radio_protocol$1280  
       0C:  08F3  C$vibes_lab_radio_protocol.c$359$
       0C:  08F5  A$vibes_lab_radio_protocol$1281  
       0C:  08F8  A$vibes_lab_radio_protocol$1284  
       0C:  08F8  C$vibes_lab_radio_protocol.c$361$
       0C:  08FB  A$vibes_lab_radio_protocol$1285  
       0C:  08FD  A$vibes_lab_radio_protocol$1289  
       0C:  08FD  C$vibes_lab_radio_protocol.c$365$
       0C:  08FF  A$vibes_lab_radio_protocol$1293  
       0C:  08FF  C$vibes_lab_radio_protocol.c$369$
       0C:  0901  A$vibes_lab_radio_protocol$1297  
       0C:  0901  C$vibes_lab_radio_protocol.c$371$
       0C:  0901  XG$radioTxDoneWithPacket$0$0     
       0C:  0902  A$vibes_lab_radio_protocol$1311  
       0C:  0902  C$vibes_lab_radio_protocol.c$378$
       0C:  0902  C$vibes_lab_radio_protocol.c$383$
       0C:  0902  G$radioRxCurrentPacket$0$0       
       0C:  0902  _radioRxCurrentPacket            
       0C:  0905  A$vibes_lab_radio_protocol$1312  
       0C:  0907  A$vibes_lab_radio_protocol$1313  
       0C:  090A  A$vibes_lab_radio_protocol$1317  
       0C:  090A  C$vibes_lab_radio_protocol.c$385$
       0C:  090D  A$vibes_lab_radio_protocol$1318  
       0C:  090E  A$vibes_lab_radio_protocol$1322  
       0C:  090E  C$vibes_lab_radio_protocol.c$388$
       0C:  0910  A$vibes_lab_radio_protocol$1323  
       0C:  0913  A$vibes_lab_radio_protocol$1324  
       0C:  0914  A$vibes_lab_radio_protocol$1325  
       0C:  0916  A$vibes_lab_radio_protocol$1326  
ASxxxx Linker V02.00 + NoICE + sdld,  page 108.
Hexadecimal

Area                               Addr   Size   Decimal Bytes (Attributes)
--------------------------------   ----   ----   ------- ----- ------------
CSEG                               051D   157D =   5501. bytes (REL,CON,CODE)

      Value  Global                              Global Defined In Module
      -----  ---------------------------------   ------------------------
       0C:  0917  A$vibes_lab_radio_protocol$1327  
       0C:  0919  A$vibes_lab_radio_protocol$1328  
       0C:  091B  A$vibes_lab_radio_protocol$1331  
       0C:  091B  C$vibes_lab_radio_protocol.c$389$
       0C:  091B  XG$radioRxCurrentPacket$0$0      
       0C:  091D  A$vibes_lab_radio_protocol$1332  
       0C:  091F  A$vibes_lab_radio_protocol$1333  
       0C:  0920  A$vibes_lab_radio_protocol$1345  
       0C:  0920  C$vibes_lab_radio_protocol.c$391$
       0C:  0920  G$radioRxCheckRxBuffer$0$0       
       0C:  0920  _radioRxCheckRxBuffer            
       0C:  0922  A$vibes_lab_radio_protocol$1348  
       0C:  0922  C$vibes_lab_radio_protocol.c$395$
       0C:  0925  A$vibes_lab_radio_protocol$1349  
       0C:  0927  A$vibes_lab_radio_protocol$1350  
       0C:  0929  A$vibes_lab_radio_protocol$1351  
       0C:  092B  A$vibes_lab_radio_protocol$1352  
       0C:  092C  A$vibes_lab_radio_protocol$1353  
       0C:  092D  A$vibes_lab_radio_protocol$1354  
       0C:  092E  A$vibes_lab_radio_protocol$1355  
       0C:  092F  A$vibes_lab_radio_protocol$1356  
       0C:  0930  A$vibes_lab_radio_protocol$1357  
       0C:  0931  A$vibes_lab_radio_protocol$1358  
       0C:  0933  A$vibes_lab_radio_protocol$1359  
       0C:  0934  A$vibes_lab_radio_protocol$1360  
       0C:  0935  A$vibes_lab_radio_protocol$1361  
       0C:  0936  A$vibes_lab_radio_protocol$1362  
       0C:  0937  A$vibes_lab_radio_protocol$1363  
       0C:  0939  A$vibes_lab_radio_protocol$1364  
       0C:  093B  A$vibes_lab_radio_protocol$1365  
       0C:  093E  A$vibes_lab_radio_protocol$1366  
       0C:  0940  A$vibes_lab_radio_protocol$1367  
       0C:  0942  A$vibes_lab_radio_protocol$1370  
       0C:  0942  C$vibes_lab_radio_protocol.c$397$
       0C:  0943  A$vibes_lab_radio_protocol$1371  
       0C:  0944  A$vibes_lab_radio_protocol$1375  
       0C:  0944  C$vibes_lab_radio_protocol.c$400$
       0C:  0945  A$vibes_lab_radio_protocol$1378  
       0C:  0945  C$vibes_lab_radio_protocol.c$401$
       0C:  0945  XG$radioRxCheckRxBuffer$0$0      
       0C:  0946  A$vibes_lab_radio_protocol$1392  
       0C:  0946  C$vibes_lab_radio_protocol.c$403$
       0C:  0946  C$vibes_lab_radio_protocol.c$405$
       0C:  0946  G$radioRxDoneWithPacket$0$0      
       0C:  0946  _radioRxDoneWithPacket           
       0C:  0949  A$vibes_lab_radio_protocol$1395  
       0C:  0949  C$vibes_lab_radio_protocol.c$408$
       0C:  094B  A$vibes_lab_radio_protocol$1396  
       0C:  094E  A$vibes_lab_radio_protocol$1399  
       0C:  094E  C$vibes_lab_radio_protocol.c$410$
       0C:  0951  A$vibes_lab_radio_protocol$1400  
ASxxxx Linker V02.00 + NoICE + sdld,  page 109.
Hexadecimal

Area                               Addr   Size   Decimal Bytes (Attributes)
--------------------------------   ----   ----   ------- ----- ------------
CSEG                               051D   157D =   5501. bytes (REL,CON,CODE)

      Value  Global                              Global Defined In Module
      -----  ---------------------------------   ------------------------
       0C:  0953  A$vibes_lab_radio_protocol$1404  
       0C:  0953  C$vibes_lab_radio_protocol.c$414$
       0C:  0955  A$vibes_lab_radio_protocol$1408  
       0C:  0955  C$vibes_lab_radio_protocol.c$419$
       0C:  0957  A$vibes_lab_radio_protocol$1412  
       0C:  0957  C$vibes_lab_radio_protocol.c$421$
       0C:  0957  XG$radioRxDoneWithPacket$0$0     
       0C:  0958  A$vibes_lab_radio_protocol$1424  
       0C:  0958  C$vibes_lab_radio_protocol.c$434$
       0C:  0958  Fvibes_lab_radio_protocol$radioTx
       0C:  095A  A$vibes_lab_radio_protocol$1427  
       0C:  095A  C$vibes_lab_radio_protocol.c$437$
       0C:  095D  A$vibes_lab_radio_protocol$1428  
       0C:  095F  A$vibes_lab_radio_protocol$1429  
       0C:  0960  A$vibes_lab_radio_protocol$1432  
       0C:  0960  C$vibes_lab_radio_protocol.c$438$
       0C:  0963  A$vibes_lab_radio_protocol$1433  
       0C:  0964  A$vibes_lab_radio_protocol$1434  
       0C:  0965  A$vibes_lab_radio_protocol$1437  
       0C:  0965  C$vibes_lab_radio_protocol.c$441$
       0C:  0967  A$vibes_lab_radio_protocol$1438  
       0C:  0969  A$vibes_lab_radio_protocol$1439  
       0C:  096B  A$vibes_lab_radio_protocol$1440  
       0C:  096E  A$vibes_lab_radio_protocol$1441  
       0C:  096F  A$vibes_lab_radio_protocol$1442  
       0C:  0970  A$vibes_lab_radio_protocol$1445  
       0C:  0970  C$vibes_lab_radio_protocol.c$442$
       0C:  0972  A$vibes_lab_radio_protocol$1446  
       0C:  0974  A$vibes_lab_radio_protocol$1447  
       0C:  0977  A$vibes_lab_radio_protocol$1448  
       0C:  0978  A$vibes_lab_radio_protocol$1449  
       0C:  0979  A$vibes_lab_radio_protocol$1452  
       0C:  0979  C$vibes_lab_radio_protocol.c$443$
       0C:  097B  A$vibes_lab_radio_protocol$1453  
       0C:  097D  A$vibes_lab_radio_protocol$1454  
       0C:  097F  A$vibes_lab_radio_protocol$1455  
       0C:  0980  A$vibes_lab_radio_protocol$1456  
       0C:  0981  A$vibes_lab_radio_protocol$1457  
       0C:  0984  A$vibes_lab_radio_protocol$1458  
       0C:  0985  A$vibes_lab_radio_protocol$1459  
       0C:  0986  A$vibes_lab_radio_protocol$1462  
       0C:  0986  C$vibes_lab_radio_protocol.c$444$
       0C:  0988  A$vibes_lab_radio_protocol$1463  
       0C:  098B  A$vibes_lab_radio_protocol$1464  
       0C:  098C  A$vibes_lab_radio_protocol$1465  
       0C:  098D  A$vibes_lab_radio_protocol$1468  
       0C:  098D  C$vibes_lab_radio_protocol.c$445$
       0C:  0990  A$vibes_lab_radio_protocol$1469  
       0C:  0992  A$vibes_lab_radio_protocol$1470  
       0C:  0993  A$vibes_lab_radio_protocol$1473  
       0C:  0993  C$vibes_lab_radio_protocol.c$446$
ASxxxx Linker V02.00 + NoICE + sdld,  page 110.
Hexadecimal

Area                               Addr   Size   Decimal Bytes (Attributes)
--------------------------------   ----   ----   ------- ----- ------------
CSEG                               051D   157D =   5501. bytes (REL,CON,CODE)

      Value  Global                              Global Defined In Module
      -----  ---------------------------------   ------------------------
       0C:  0996  A$vibes_lab_radio_protocol$1474  
       0C:  0998  A$vibes_lab_radio_protocol$1475  
       0C:  0999  A$vibes_lab_radio_protocol$1478  
       0C:  0999  C$vibes_lab_radio_protocol.c$447$
       0C:  099C  A$vibes_lab_radio_protocol$1479  
       0C:  099E  A$vibes_lab_radio_protocol$1480  
       0C:  099F  A$vibes_lab_radio_protocol$1483  
       0C:  099F  C$vibes_lab_radio_protocol.c$448$
       0C:  09A2  A$vibes_lab_radio_protocol$1484  
       0C:  09A4  A$vibes_lab_radio_protocol$1485  
       0C:  09A5  A$vibes_lab_radio_protocol$1488  
       0C:  09A5  C$vibes_lab_radio_protocol.c$451$
       0C:  09A8  A$vibes_lab_radio_protocol$1491  
       0C:  09A8  C$vibes_lab_radio_protocol.c$454$
       0C:  09AB  A$vibes_lab_radio_protocol$1494  
       0C:  09AB  C$vibes_lab_radio_protocol.c$455$
       0C:  09AB  XFvibes_lab_radio_protocol$radioT
       0C:  09AC  A$vibes_lab_radio_protocol$1508  
       0C:  09AC  C$vibes_lab_radio_protocol.c$463$
       0C:  09AC  C$vibes_lab_radio_protocol.c$468$
       0C:  09AC  Fvibes_lab_radio_protocol$radioRx
       0C:  09AE  A$vibes_lab_radio_protocol$1509  
       0C:  09AF  A$vibes_lab_radio_protocol$1510  
       0C:  09B1  A$vibes_lab_radio_protocol$1513  
       0C:  09B1  C$vibes_lab_radio_protocol.c$470$
       0C:  09B4  A$vibes_lab_radio_protocol$1514  
       0C:  09B5  A$vibes_lab_radio_protocol$1515  
       0C:  09B6  A$vibes_lab_radio_protocol$1518  
       0C:  09B6  C$vibes_lab_radio_protocol.c$471$
       0C:  09B9  A$vibes_lab_radio_protocol$1521  
       0C:  09B9  C$vibes_lab_radio_protocol.c$472$
       0C:  09BB  A$vibes_lab_radio_protocol$1524  
       0C:  09BB  C$vibes_lab_radio_protocol.c$473$
       0C:  09BE  A$vibes_lab_radio_protocol$1525  
       0C:  09C0  A$vibes_lab_radio_protocol$1529  
       0C:  09C0  C$vibes_lab_radio_protocol.c$477$
       0C:  09C3  A$vibes_lab_radio_protocol$1530  
       0C:  09C5  A$vibes_lab_radio_protocol$1531  
       0C:  09C6  A$vibes_lab_radio_protocol$1535  
       0C:  09C6  C$vibes_lab_radio_protocol.c$480$
       0C:  09C8  A$vibes_lab_radio_protocol$1536  
       0C:  09CA  A$vibes_lab_radio_protocol$1537  
       0C:  09CC  A$vibes_lab_radio_protocol$1538  
       0C:  09CD  A$vibes_lab_radio_protocol$1539  
       0C:  09CE  A$vibes_lab_radio_protocol$1540  
       0C:  09D1  A$vibes_lab_radio_protocol$1541  
       0C:  09D2  A$vibes_lab_radio_protocol$1542  
       0C:  09D3  A$vibes_lab_radio_protocol$1545  
       0C:  09D3  C$vibes_lab_radio_protocol.c$481$
       0C:  09D5  A$vibes_lab_radio_protocol$1546  
       0C:  09D8  A$vibes_lab_radio_protocol$1547  
ASxxxx Linker V02.00 + NoICE + sdld,  page 111.
Hexadecimal

Area                               Addr   Size   Decimal Bytes (Attributes)
--------------------------------   ----   ----   ------- ----- ------------
CSEG                               051D   157D =   5501. bytes (REL,CON,CODE)

      Value  Global                              Global Defined In Module
      -----  ---------------------------------   ------------------------
       0C:  09D9  A$vibes_lab_radio_protocol$1548  
       0C:  09DA  A$vibes_lab_radio_protocol$1551  
       0C:  09DA  C$vibes_lab_radio_protocol.c$482$
       0C:  09DC  A$vibes_lab_radio_protocol$1552  
       0C:  09DE  A$vibes_lab_radio_protocol$1553  
       0C:  09E0  A$vibes_lab_radio_protocol$1554  
       0C:  09E3  A$vibes_lab_radio_protocol$1555  
       0C:  09E4  A$vibes_lab_radio_protocol$1556  
       0C:  09E5  A$vibes_lab_radio_protocol$1559  
       0C:  09E5  C$vibes_lab_radio_protocol.c$483$
       0C:  09E7  A$vibes_lab_radio_protocol$1560  
       0C:  09E9  A$vibes_lab_radio_protocol$1561  
       0C:  09EC  A$vibes_lab_radio_protocol$1562  
       0C:  09ED  A$vibes_lab_radio_protocol$1563  
       0C:  09EE  A$vibes_lab_radio_protocol$1566  
       0C:  09EE  C$vibes_lab_radio_protocol.c$484$
       0C:  09F1  A$vibes_lab_radio_protocol$1567  
       0C:  09F3  A$vibes_lab_radio_protocol$1568  
       0C:  09F4  A$vibes_lab_radio_protocol$1571  
       0C:  09F4  C$vibes_lab_radio_protocol.c$485$
       0C:  09F7  A$vibes_lab_radio_protocol$1572  
       0C:  09F9  A$vibes_lab_radio_protocol$1573  
       0C:  09FA  A$vibes_lab_radio_protocol$1576  
       0C:  09FA  C$vibes_lab_radio_protocol.c$486$
       0C:  09FD  A$vibes_lab_radio_protocol$1577  
       0C:  09FF  A$vibes_lab_radio_protocol$1578  
       0C:  0A00  A$vibes_lab_radio_protocol$1581  
       0C:  0A00  C$vibes_lab_radio_protocol.c$487$
       0C:  0A03  A$vibes_lab_radio_protocol$1582  
       0C:  0A05  A$vibes_lab_radio_protocol$1583  
       0C:  0A06  A$vibes_lab_radio_protocol$1586  
       0C:  0A06  C$vibes_lab_radio_protocol.c$490$
       0C:  0A09  A$vibes_lab_radio_protocol$1589  
       0C:  0A09  C$vibes_lab_radio_protocol.c$493$
       0C:  0A0C  A$vibes_lab_radio_protocol$1592  
       0C:  0A0C  C$vibes_lab_radio_protocol.c$494$
       0C:  0A0C  XFvibes_lab_radio_protocol$radioR
       0C:  0A0D  A$vibes_lab_radio_protocol$1606  
       0C:  0A0D  C$vibes_lab_radio_protocol.c$505$
       0C:  0A0D  C$vibes_lab_radio_protocol.c$508$
       0C:  0A0D  Fvibes_lab_radio_protocol$radioRx
       0C:  0A0F  A$vibes_lab_radio_protocol$1607  
       0C:  0A10  A$vibes_lab_radio_protocol$1608  
       0C:  0A12  A$vibes_lab_radio_protocol$1611  
       0C:  0A12  C$vibes_lab_radio_protocol.c$510$
       0C:  0A15  A$vibes_lab_radio_protocol$1612  
       0C:  0A16  A$vibes_lab_radio_protocol$1613  
       0C:  0A17  A$vibes_lab_radio_protocol$1616  
       0C:  0A17  C$vibes_lab_radio_protocol.c$511$
       0C:  0A1A  A$vibes_lab_radio_protocol$1619  
       0C:  0A1A  C$vibes_lab_radio_protocol.c$512$
ASxxxx Linker V02.00 + NoICE + sdld,  page 112.
Hexadecimal

Area                               Addr   Size   Decimal Bytes (Attributes)
--------------------------------   ----   ----   ------- ----- ------------
CSEG                               051D   157D =   5501. bytes (REL,CON,CODE)

      Value  Global                              Global Defined In Module
      -----  ---------------------------------   ------------------------
       0C:  0A1C  A$vibes_lab_radio_protocol$1622  
       0C:  0A1C  C$vibes_lab_radio_protocol.c$513$
       0C:  0A1F  A$vibes_lab_radio_protocol$1623  
       0C:  0A21  A$vibes_lab_radio_protocol$1627  
       0C:  0A21  C$vibes_lab_radio_protocol.c$517$
       0C:  0A24  A$vibes_lab_radio_protocol$1628  
       0C:  0A26  A$vibes_lab_radio_protocol$1629  
       0C:  0A27  A$vibes_lab_radio_protocol$1633  
       0C:  0A27  C$vibes_lab_radio_protocol.c$520$
       0C:  0A29  A$vibes_lab_radio_protocol$1634  
       0C:  0A2B  A$vibes_lab_radio_protocol$1635  
       0C:  0A2D  A$vibes_lab_radio_protocol$1636  
       0C:  0A2E  A$vibes_lab_radio_protocol$1637  
       0C:  0A2F  A$vibes_lab_radio_protocol$1638  
       0C:  0A32  A$vibes_lab_radio_protocol$1639  
       0C:  0A33  A$vibes_lab_radio_protocol$1640  
       0C:  0A34  A$vibes_lab_radio_protocol$1643  
       0C:  0A34  C$vibes_lab_radio_protocol.c$521$
       0C:  0A36  A$vibes_lab_radio_protocol$1644  
       0C:  0A39  A$vibes_lab_radio_protocol$1645  
       0C:  0A3A  A$vibes_lab_radio_protocol$1646  
       0C:  0A3B  A$vibes_lab_radio_protocol$1651  
       0C:  0A3B  C$vibes_lab_radio_protocol.c$522$
       0C:  0A3B  C$vibes_lab_radio_protocol.c$523$
       0C:  0A3D  A$vibes_lab_radio_protocol$1652  
       0C:  0A40  A$vibes_lab_radio_protocol$1653  
       0C:  0A41  A$vibes_lab_radio_protocol$1654  
       0C:  0A43  A$vibes_lab_radio_protocol$1655  
       0C:  0A45  A$vibes_lab_radio_protocol$1656  
       0C:  0A47  A$vibes_lab_radio_protocol$1657  
       0C:  0A48  A$vibes_lab_radio_protocol$1658  
       0C:  0A4B  A$vibes_lab_radio_protocol$1659  
       0C:  0A4C  A$vibes_lab_radio_protocol$1660  
       0C:  0A4D  A$vibes_lab_radio_protocol$1665  
       0C:  0A4D  C$vibes_lab_radio_protocol.c$524$
       0C:  0A4D  C$vibes_lab_radio_protocol.c$525$
       0C:  0A4F  A$vibes_lab_radio_protocol$1666  
       0C:  0A52  A$vibes_lab_radio_protocol$1667  
       0C:  0A53  A$vibes_lab_radio_protocol$1668  
       0C:  0A55  A$vibes_lab_radio_protocol$1669  
       0C:  0A56  A$vibes_lab_radio_protocol$1670  
       0C:  0A58  A$vibes_lab_radio_protocol$1671  
       0C:  0A5A  A$vibes_lab_radio_protocol$1672  
       0C:  0A5D  A$vibes_lab_radio_protocol$1673  
       0C:  0A5E  A$vibes_lab_radio_protocol$1674  
       0C:  0A5F  A$vibes_lab_radio_protocol$1677  
       0C:  0A5F  C$vibes_lab_radio_protocol.c$526$
       0C:  0A62  A$vibes_lab_radio_protocol$1678  
       0C:  0A64  A$vibes_lab_radio_protocol$1679  
       0C:  0A65  A$vibes_lab_radio_protocol$1682  
       0C:  0A65  C$vibes_lab_radio_protocol.c$527$
ASxxxx Linker V02.00 + NoICE + sdld,  page 113.
Hexadecimal

Area                               Addr   Size   Decimal Bytes (Attributes)
--------------------------------   ----   ----   ------- ----- ------------
CSEG                               051D   157D =   5501. bytes (REL,CON,CODE)

      Value  Global                              Global Defined In Module
      -----  ---------------------------------   ------------------------
       0C:  0A68  A$vibes_lab_radio_protocol$1683  
       0C:  0A6A  A$vibes_lab_radio_protocol$1684  
       0C:  0A6B  A$vibes_lab_radio_protocol$1687  
       0C:  0A6B  C$vibes_lab_radio_protocol.c$528$
       0C:  0A6E  A$vibes_lab_radio_protocol$1688  
       0C:  0A70  A$vibes_lab_radio_protocol$1689  
       0C:  0A71  A$vibes_lab_radio_protocol$1692  
       0C:  0A71  C$vibes_lab_radio_protocol.c$529$
       0C:  0A74  A$vibes_lab_radio_protocol$1693  
       0C:  0A76  A$vibes_lab_radio_protocol$1694  
       0C:  0A77  A$vibes_lab_radio_protocol$1697  
       0C:  0A77  C$vibes_lab_radio_protocol.c$532$
       0C:  0A7A  A$vibes_lab_radio_protocol$1700  
       0C:  0A7A  C$vibes_lab_radio_protocol.c$535$
       0C:  0A7D  A$vibes_lab_radio_protocol$1703  
       0C:  0A7D  C$vibes_lab_radio_protocol.c$536$
       0C:  0A7D  XFvibes_lab_radio_protocol$radioR
       0C:  0A7E  A$vibes_lab_radio_protocol$1723  
       0C:  0A7E  C$vibes_lab_radio_protocol.c$538$
       0C:  0A7E  G$ISR_RF$0$0                     
       0C:  0A7E  _ISR_RF                          
       0C:  0A80  A$vibes_lab_radio_protocol$1724  
       0C:  0A82  A$vibes_lab_radio_protocol$1725  
       0C:  0A84  A$vibes_lab_radio_protocol$1726  
       0C:  0A86  A$vibes_lab_radio_protocol$1727  
       0C:  0A88  A$vibes_lab_radio_protocol$1728  
       0C:  0A8A  A$vibes_lab_radio_protocol$1729  
       0C:  0A8C  A$vibes_lab_radio_protocol$1730  
       0C:  0A8E  A$vibes_lab_radio_protocol$1731  
       0C:  0A90  A$vibes_lab_radio_protocol$1732  
       0C:  0A92  A$vibes_lab_radio_protocol$1733  
       0C:  0A94  A$vibes_lab_radio_protocol$1734  
       0C:  0A96  A$vibes_lab_radio_protocol$1735  
       0C:  0A98  A$vibes_lab_radio_protocol$1736  
       0C:  0A9A  A$vibes_lab_radio_protocol$1737  
       0C:  0A9D  A$vibes_lab_radio_protocol$1740  
       0C:  0A9D  C$vibes_lab_radio_protocol.c$540$
       0C:  0AA0  A$vibes_lab_radio_protocol$1743  
       0C:  0AA0  C$vibes_lab_radio_protocol.c$543$
       0C:  0AA3  A$vibes_lab_radio_protocol$1746  
       0C:  0AA3  C$vibes_lab_radio_protocol.c$544$
       0C:  0AA6  A$vibes_lab_radio_protocol$1749  
       0C:  0AA6  C$vibes_lab_radio_protocol.c$546$
       0C:  0AA8  A$vibes_lab_radio_protocol$1750  
       0C:  0AAB  A$vibes_lab_radio_protocol$1751  
       0C:  0AAE  A$vibes_lab_radio_protocol$1755  
       0C:  0AAE  C$vibes_lab_radio_protocol.c$548$
       0C:  0AB1  A$vibes_lab_radio_protocol$1758  
       0C:  0AB1  C$vibes_lab_radio_protocol.c$550$
       0C:  0AB3  A$vibes_lab_radio_protocol$1759  
       0C:  0AB6  A$vibes_lab_radio_protocol$1762  
ASxxxx Linker V02.00 + NoICE + sdld,  page 114.
Hexadecimal

Area                               Addr   Size   Decimal Bytes (Attributes)
--------------------------------   ----   ----   ------- ----- ------------
CSEG                               051D   157D =   5501. bytes (REL,CON,CODE)

      Value  Global                              Global Defined In Module
      -----  ---------------------------------   ------------------------
       0C:  0AB6  C$vibes_lab_radio_protocol.c$552$
       0C:  0AB9  A$vibes_lab_radio_protocol$1765  
       0C:  0AB9  C$vibes_lab_radio_protocol.c$555$
       0C:  0ABC  A$vibes_lab_radio_protocol$1768  
       0C:  0ABC  C$vibes_lab_radio_protocol.c$556$
       0C:  0ABF  A$vibes_lab_radio_protocol$1771  
       0C:  0ABF  C$vibes_lab_radio_protocol.c$564$
       0C:  0AC2  A$vibes_lab_radio_protocol$1774  
       0C:  0AC2  C$vibes_lab_radio_protocol.c$566$
       0C:  0AC4  A$vibes_lab_radio_protocol$1777  
       0C:  0AC4  C$vibes_lab_radio_protocol.c$568$
       0C:  0AC6  A$vibes_lab_radio_protocol$1780  
       0C:  0AC6  C$vibes_lab_radio_protocol.c$569$
       0C:  0AC8  A$vibes_lab_radio_protocol$1783  
       0C:  0AC8  C$vibes_lab_radio_protocol.c$570$
       0C:  0ACB  A$vibes_lab_radio_protocol$1784  
       0C:  0ACE  A$vibes_lab_radio_protocol$1785  
       0C:  0AD1  A$vibes_lab_radio_protocol$1786  
       0C:  0AD4  A$vibes_lab_radio_protocol$1790  
       0C:  0AD4  C$vibes_lab_radio_protocol.c$578$
       0C:  0AD6  A$vibes_lab_radio_protocol$1793  
       0C:  0AD6  C$vibes_lab_radio_protocol.c$579$
       0C:  0AD8  A$vibes_lab_radio_protocol$1796  
       0C:  0AD8  C$vibes_lab_radio_protocol.c$580$
       0C:  0ADA  A$vibes_lab_radio_protocol$1799  
       0C:  0ADA  C$vibes_lab_radio_protocol.c$582$
       0C:  0ADD  A$vibes_lab_radio_protocol$1800  
       0C:  0AE0  A$vibes_lab_radio_protocol$1801  
       0C:  0AE3  A$vibes_lab_radio_protocol$1802  
       0C:  0AE6  A$vibes_lab_radio_protocol$1803  
       0C:  0AE9  A$vibes_lab_radio_protocol$1807  
       0C:  0AE9  C$vibes_lab_radio_protocol.c$585$
       0C:  0AEB  A$vibes_lab_radio_protocol$1808  
       0C:  0AEE  A$vibes_lab_radio_protocol$1811  
       0C:  0AEE  C$vibes_lab_radio_protocol.c$587$
       0C:  0AF1  A$vibes_lab_radio_protocol$1814  
       0C:  0AF1  C$vibes_lab_radio_protocol.c$590$
       0C:  0AF4  A$vibes_lab_radio_protocol$1817  
       0C:  0AF4  C$vibes_lab_radio_protocol.c$591$
       0C:  0AF7  A$vibes_lab_radio_protocol$1820  
       0C:  0AF7  C$vibes_lab_radio_protocol.c$597$
       0C:  0AFA  A$vibes_lab_radio_protocol$1823  
       0C:  0AFA  C$vibes_lab_radio_protocol.c$599$
       0C:  0AFC  A$vibes_lab_radio_protocol$1826  
       0C:  0AFC  C$vibes_lab_radio_protocol.c$600$
       0C:  0AFE  A$vibes_lab_radio_protocol$1829  
       0C:  0AFE  C$vibes_lab_radio_protocol.c$601$
       0C:  0B00  A$vibes_lab_radio_protocol$1832  
       0C:  0B00  C$vibes_lab_radio_protocol.c$603$
       0C:  0B03  A$vibes_lab_radio_protocol$1833  
       0C:  0B06  A$vibes_lab_radio_protocol$1834  
ASxxxx Linker V02.00 + NoICE + sdld,  page 115.
Hexadecimal

Area                               Addr   Size   Decimal Bytes (Attributes)
--------------------------------   ----   ----   ------- ----- ------------
CSEG                               051D   157D =   5501. bytes (REL,CON,CODE)

      Value  Global                              Global Defined In Module
      -----  ---------------------------------   ------------------------
       0C:  0B09  A$vibes_lab_radio_protocol$1835  
       0C:  0B0C  A$vibes_lab_radio_protocol$1836  
       0C:  0B0F  A$vibes_lab_radio_protocol$1840  
       0C:  0B0F  C$vibes_lab_radio_protocol.c$611$
       0C:  0B11  A$vibes_lab_radio_protocol$1843  
       0C:  0B11  C$vibes_lab_radio_protocol.c$613$
       0C:  0B13  A$vibes_lab_radio_protocol$1846  
       0C:  0B13  C$vibes_lab_radio_protocol.c$614$
       0C:  0B15  A$vibes_lab_radio_protocol$1849  
       0C:  0B15  C$vibes_lab_radio_protocol.c$615$
       0C:  0B18  A$vibes_lab_radio_protocol$1850  
       0C:  0B1B  A$vibes_lab_radio_protocol$1851  
       0C:  0B1E  A$vibes_lab_radio_protocol$1852  
       0C:  0B21  A$vibes_lab_radio_protocol$1856  
       0C:  0B21  C$vibes_lab_radio_protocol.c$620$
       0C:  0B24  A$vibes_lab_radio_protocol$1859  
       0C:  0B24  C$vibes_lab_radio_protocol.c$622$
       0C:  0B27  A$vibes_lab_radio_protocol$1862  
       0C:  0B27  C$vibes_lab_radio_protocol.c$624$
       0C:  0B29  A$vibes_lab_radio_protocol$1865  
       0C:  0B29  C$vibes_lab_radio_protocol.c$626$
       0C:  0B2C  A$vibes_lab_radio_protocol$1866  
       0C:  0B2D  A$vibes_lab_radio_protocol$1867  
       0C:  0B2E  A$vibes_lab_radio_protocol$1870  
       0C:  0B2E  C$vibes_lab_radio_protocol.c$627$
       0C:  0B31  A$vibes_lab_radio_protocol$1871  
       0C:  0B34  A$vibes_lab_radio_protocol$1872  
       0C:  0B37  A$vibes_lab_radio_protocol$1873  
       0C:  0B3A  A$vibes_lab_radio_protocol$1874  
       0C:  0B3D  A$vibes_lab_radio_protocol$1878  
       0C:  0B3D  C$vibes_lab_radio_protocol.c$631$
       0C:  0B3F  A$vibes_lab_radio_protocol$1881  
       0C:  0B3F  C$vibes_lab_radio_protocol.c$635$
       0C:  0B42  A$vibes_lab_radio_protocol$1882  
       0C:  0B43  A$vibes_lab_radio_protocol$1883  
       0C:  0B44  A$vibes_lab_radio_protocol$1884  
       0C:  0B47  A$vibes_lab_radio_protocol$1885  
       0C:  0B48  A$vibes_lab_radio_protocol$1886  
       0C:  0B49  A$vibes_lab_radio_protocol$1887  
       0C:  0B4A  A$vibes_lab_radio_protocol$1888  
       0C:  0B4B  A$vibes_lab_radio_protocol$1889  
       0C:  0B4E  A$vibes_lab_radio_protocol$1892  
       0C:  0B4E  C$vibes_lab_radio_protocol.c$638$
       0C:  0B50  A$vibes_lab_radio_protocol$1893  
       0C:  0B53  A$vibes_lab_radio_protocol$1896  
       0C:  0B53  C$vibes_lab_radio_protocol.c$640$
       0C:  0B56  A$vibes_lab_radio_protocol$1897  
       0C:  0B58  A$vibes_lab_radio_protocol$1901  
       0C:  0B58  C$vibes_lab_radio_protocol.c$644$
       0C:  0B5A  A$vibes_lab_radio_protocol$1905  
       0C:  0B5A  C$vibes_lab_radio_protocol.c$648$
ASxxxx Linker V02.00 + NoICE + sdld,  page 116.
Hexadecimal

Area                               Addr   Size   Decimal Bytes (Attributes)
--------------------------------   ----   ----   ------- ----- ------------
CSEG                               051D   157D =   5501. bytes (REL,CON,CODE)

      Value  Global                              Global Defined In Module
      -----  ---------------------------------   ------------------------
       0C:  0B5C  A$vibes_lab_radio_protocol$1906  
       0C:  0B5D  A$vibes_lab_radio_protocol$1907  
       0C:  0B5F  A$vibes_lab_radio_protocol$1908  
       0C:  0B60  A$vibes_lab_radio_protocol$1911  
       0C:  0B60  C$vibes_lab_radio_protocol.c$652$
       0C:  0B62  A$vibes_lab_radio_protocol$1914  
       0C:  0B62  C$vibes_lab_radio_protocol.c$655$
       0C:  0B64  A$vibes_lab_radio_protocol$1917  
       0C:  0B64  C$vibes_lab_radio_protocol.c$657$
       0C:  0B66  A$vibes_lab_radio_protocol$1920  
       0C:  0B66  C$vibes_lab_radio_protocol.c$658$
       0C:  0B68  A$vibes_lab_radio_protocol$1921  
       0C:  0B6B  A$vibes_lab_radio_protocol$1925  
       0C:  0B6B  C$vibes_lab_radio_protocol.c$669$
       0C:  0B6D  A$vibes_lab_radio_protocol$1928  
       0C:  0B6D  C$vibes_lab_radio_protocol.c$670$
       0C:  0B6F  A$vibes_lab_radio_protocol$1931  
       0C:  0B6F  C$vibes_lab_radio_protocol.c$671$
       0C:  0B72  A$vibes_lab_radio_protocol$1932  
       0C:  0B75  A$vibes_lab_radio_protocol$1933  
       0C:  0B78  A$vibes_lab_radio_protocol$1934  
       0C:  0B7B  A$vibes_lab_radio_protocol$1938  
       0C:  0B7B  C$vibes_lab_radio_protocol.c$677$
       0C:  0B7E  A$vibes_lab_radio_protocol$1941  
       0C:  0B7E  C$vibes_lab_radio_protocol.c$679$
       0C:  0B80  A$vibes_lab_radio_protocol$1944  
       0C:  0B80  C$vibes_lab_radio_protocol.c$681$
       0C:  0B83  A$vibes_lab_radio_protocol$1945  
       0C:  0B84  A$vibes_lab_radio_protocol$1946  
       0C:  0B85  A$vibes_lab_radio_protocol$1947  
       0C:  0B88  A$vibes_lab_radio_protocol$1950  
       0C:  0B88  C$vibes_lab_radio_protocol.c$684$
       0C:  0B8A  A$vibes_lab_radio_protocol$1953  
       0C:  0B8A  C$vibes_lab_radio_protocol.c$685$
       0C:  0B8D  A$vibes_lab_radio_protocol$1954  
       0C:  0B8E  A$vibes_lab_radio_protocol$1955  
       0C:  0B8F  A$vibes_lab_radio_protocol$1956  
       0C:  0B91  A$vibes_lab_radio_protocol$1957  
       0C:  0B94  A$vibes_lab_radio_protocol$1958  
       0C:  0B97  A$vibes_lab_radio_protocol$1959  
       0C:  0B9A  A$vibes_lab_radio_protocol$1960  
       0C:  0B9D  A$vibes_lab_radio_protocol$1964  
       0C:  0B9D  C$vibes_lab_radio_protocol.c$690$
       0C:  0B9F  A$vibes_lab_radio_protocol$1967  
       0C:  0B9F  C$vibes_lab_radio_protocol.c$691$
       0C:  0BA2  A$vibes_lab_radio_protocol$1968  
       0C:  0BA3  A$vibes_lab_radio_protocol$1969  
       0C:  0BA4  A$vibes_lab_radio_protocol$1970  
       0C:  0BA6  A$vibes_lab_radio_protocol$1971  
       0C:  0BA9  A$vibes_lab_radio_protocol$1972  
       0C:  0BAC  A$vibes_lab_radio_protocol$1973  
ASxxxx Linker V02.00 + NoICE + sdld,  page 117.
Hexadecimal

Area                               Addr   Size   Decimal Bytes (Attributes)
--------------------------------   ----   ----   ------- ----- ------------
CSEG                               051D   157D =   5501. bytes (REL,CON,CODE)

      Value  Global                              Global Defined In Module
      -----  ---------------------------------   ------------------------
       0C:  0BAF  A$vibes_lab_radio_protocol$1974  
       0C:  0BB2  A$vibes_lab_radio_protocol$1978  
       0C:  0BB2  C$vibes_lab_radio_protocol.c$696$
       0C:  0BB4  A$vibes_lab_radio_protocol$1983  
       0C:  0BB4  C$vibes_lab_radio_protocol.c$700$
       0C:  0BB4  C$vibes_lab_radio_protocol.c$702$
       0C:  0BB7  A$vibes_lab_radio_protocol$1984  
       0C:  0BBA  A$vibes_lab_radio_protocol$1988  
       0C:  0BBA  C$vibes_lab_radio_protocol.c$707$
       0C:  0BBC  A$vibes_lab_radio_protocol$1989  
       0C:  0BBF  A$vibes_lab_radio_protocol$1990  
       0C:  0BC0  A$vibes_lab_radio_protocol$1991  
       0C:  0BC2  A$vibes_lab_radio_protocol$1992  
       0C:  0BC3  A$vibes_lab_radio_protocol$1993  
       0C:  0BC5  A$vibes_lab_radio_protocol$1994  
       0C:  0BC7  A$vibes_lab_radio_protocol$1995  
       0C:  0BC8  A$vibes_lab_radio_protocol$1996  
       0C:  0BCA  A$vibes_lab_radio_protocol$1997  
       0C:  0BCD  A$vibes_lab_radio_protocol$1998  
       0C:  0BCE  A$vibes_lab_radio_protocol$1999  
       0C:  0BD0  A$vibes_lab_radio_protocol$2000  
       0C:  0BD2  A$vibes_lab_radio_protocol$2001  
       0C:  0BD4  A$vibes_lab_radio_protocol$2002  
       0C:  0BD6  A$vibes_lab_radio_protocol$2003  
       0C:  0BD8  A$vibes_lab_radio_protocol$2004  
       0C:  0BD9  A$vibes_lab_radio_protocol$2005  
       0C:  0BDA  A$vibes_lab_radio_protocol$2006  
       0C:  0BDB  A$vibes_lab_radio_protocol$2007  
       0C:  0BDD  A$vibes_lab_radio_protocol$2008  
       0C:  0BDE  A$vibes_lab_radio_protocol$2009  
       0C:  0BDF  A$vibes_lab_radio_protocol$2010  
       0C:  0BE1  A$vibes_lab_radio_protocol$2011  
       0C:  0BE2  A$vibes_lab_radio_protocol$2012  
       0C:  0BE3  A$vibes_lab_radio_protocol$2013  
       0C:  0BE5  A$vibes_lab_radio_protocol$2014  
       0C:  0BE6  A$vibes_lab_radio_protocol$2015  
       0C:  0BE9  A$vibes_lab_radio_protocol$2016  
       0C:  0BEB  A$vibes_lab_radio_protocol$2020  
       0C:  0BEB  C$vibes_lab_radio_protocol.c$712$
       0C:  0BED  A$vibes_lab_radio_protocol$2021  
       0C:  0BF0  A$vibes_lab_radio_protocol$2022  
       0C:  0BF1  A$vibes_lab_radio_protocol$2023  
       0C:  0BF3  A$vibes_lab_radio_protocol$2024  
       0C:  0BF4  A$vibes_lab_radio_protocol$2025  
       0C:  0BF6  A$vibes_lab_radio_protocol$2026  
       0C:  0BF8  A$vibes_lab_radio_protocol$2027  
       0C:  0BF9  A$vibes_lab_radio_protocol$2028  
       0C:  0BFB  A$vibes_lab_radio_protocol$2029  
       0C:  0BFE  A$vibes_lab_radio_protocol$2030  
       0C:  0BFF  A$vibes_lab_radio_protocol$2031  
       0C:  0C01  A$vibes_lab_radio_protocol$2032  
ASxxxx Linker V02.00 + NoICE + sdld,  page 118.
Hexadecimal

Area                               Addr   Size   Decimal Bytes (Attributes)
--------------------------------   ----   ----   ------- ----- ------------
CSEG                               051D   157D =   5501. bytes (REL,CON,CODE)

      Value  Global                              Global Defined In Module
      -----  ---------------------------------   ------------------------
       0C:  0C03  A$vibes_lab_radio_protocol$2033  
       0C:  0C05  A$vibes_lab_radio_protocol$2034  
       0C:  0C07  A$vibes_lab_radio_protocol$2035  
       0C:  0C09  A$vibes_lab_radio_protocol$2036  
       0C:  0C0A  A$vibes_lab_radio_protocol$2037  
       0C:  0C0B  A$vibes_lab_radio_protocol$2038  
       0C:  0C0D  A$vibes_lab_radio_protocol$2039  
       0C:  0C0E  A$vibes_lab_radio_protocol$2040  
       0C:  0C0F  A$vibes_lab_radio_protocol$2041  
       0C:  0C11  A$vibes_lab_radio_protocol$2042  
       0C:  0C12  A$vibes_lab_radio_protocol$2043  
       0C:  0C14  A$vibes_lab_radio_protocol$2044  
       0C:  0C15  A$vibes_lab_radio_protocol$2047  
       0C:  0C15  C$vibes_lab_radio_protocol.c$716$
       0C:  0C17  A$vibes_lab_radio_protocol$2048  
       0C:  0C1A  A$vibes_lab_radio_protocol$2049  
       0C:  0C1B  A$vibes_lab_radio_protocol$2050  
       0C:  0C1D  A$vibes_lab_radio_protocol$2051  
       0C:  0C1E  A$vibes_lab_radio_protocol$2052  
       0C:  0C20  A$vibes_lab_radio_protocol$2053  
       0C:  0C22  A$vibes_lab_radio_protocol$2054  
       0C:  0C23  A$vibes_lab_radio_protocol$2055  
       0C:  0C25  A$vibes_lab_radio_protocol$2056  
       0C:  0C27  A$vibes_lab_radio_protocol$2057  
       0C:  0C28  A$vibes_lab_radio_protocol$2058  
       0C:  0C29  A$vibes_lab_radio_protocol$2059  
       0C:  0C2A  A$vibes_lab_radio_protocol$2060  
       0C:  0C2C  A$vibes_lab_radio_protocol$2061  
       0C:  0C2E  A$vibes_lab_radio_protocol$2062  
       0C:  0C2F  A$vibes_lab_radio_protocol$2063  
       0C:  0C30  A$vibes_lab_radio_protocol$2066  
       0C:  0C30  C$vibes_lab_radio_protocol.c$719$
       0C:  0C32  A$vibes_lab_radio_protocol$2067  
       0C:  0C35  A$vibes_lab_radio_protocol$2070  
       0C:  0C35  C$vibes_lab_radio_protocol.c$721$
       0C:  0C38  A$vibes_lab_radio_protocol$2071  
       0C:  0C3A  A$vibes_lab_radio_protocol$2075  
       0C:  0C3A  C$vibes_lab_radio_protocol.c$725$
       0C:  0C3C  A$vibes_lab_radio_protocol$2079  
       0C:  0C3C  C$vibes_lab_radio_protocol.c$730$
       0C:  0C3E  A$vibes_lab_radio_protocol$2082  
       0C:  0C3E  C$vibes_lab_radio_protocol.c$733$
       0C:  0C40  A$vibes_lab_radio_protocol$2086  
       0C:  0C40  C$vibes_lab_radio_protocol.c$737$
       0C:  0C43  A$vibes_lab_radio_protocol$2087  
       0C:  0C46  A$vibes_lab_radio_protocol$2088  
       0C:  0C49  A$vibes_lab_radio_protocol$2089  
       0C:  0C4C  A$vibes_lab_radio_protocol$2090  
       0C:  0C4E  A$vibes_lab_radio_protocol$2094  
       0C:  0C4E  C$vibes_lab_radio_protocol.c$744$
       0C:  0C50  A$vibes_lab_radio_protocol$2097  
ASxxxx Linker V02.00 + NoICE + sdld,  page 119.
Hexadecimal

Area                               Addr   Size   Decimal Bytes (Attributes)
--------------------------------   ----   ----   ------- ----- ------------
CSEG                               051D   157D =   5501. bytes (REL,CON,CODE)

      Value  Global                              Global Defined In Module
      -----  ---------------------------------   ------------------------
       0C:  0C50  C$vibes_lab_radio_protocol.c$749$
       0C:  0C53  A$vibes_lab_radio_protocol$2098  
       0C:  0C56  A$vibes_lab_radio_protocol$2099  
       0C:  0C59  A$vibes_lab_radio_protocol$2100  
       0C:  0C5C  A$vibes_lab_radio_protocol$2101  
       0C:  0C5E  A$vibes_lab_radio_protocol$2105  
       0C:  0C5E  C$vibes_lab_radio_protocol.c$755$
       0C:  0C60  A$vibes_lab_radio_protocol$2106  
       0C:  0C63  A$vibes_lab_radio_protocol$2109  
       0C:  0C63  C$vibes_lab_radio_protocol.c$757$
       0C:  0C66  A$vibes_lab_radio_protocol$2112  
       0C:  0C66  C$vibes_lab_radio_protocol.c$762$
       0C:  0C69  A$vibes_lab_radio_protocol$2115  
       0C:  0C69  C$vibes_lab_radio_protocol.c$764$
       0C:  0C6B  A$vibes_lab_radio_protocol$2118  
       0C:  0C6B  C$vibes_lab_radio_protocol.c$765$
       0C:  0C6D  A$vibes_lab_radio_protocol$2121  
       0C:  0C6D  C$vibes_lab_radio_protocol.c$766$
       0C:  0C6F  A$vibes_lab_radio_protocol$2124  
       0C:  0C6F  C$vibes_lab_radio_protocol.c$769$
       0C:  0C72  A$vibes_lab_radio_protocol$2125  
       0C:  0C75  A$vibes_lab_radio_protocol$2126  
       0C:  0C78  A$vibes_lab_radio_protocol$2127  
       0C:  0C7B  A$vibes_lab_radio_protocol$2128  
       0C:  0C7D  A$vibes_lab_radio_protocol$2132  
       0C:  0C7D  C$vibes_lab_radio_protocol.c$777$
       0C:  0C7F  A$vibes_lab_radio_protocol$2135  
       0C:  0C7F  C$vibes_lab_radio_protocol.c$779$
       0C:  0C81  A$vibes_lab_radio_protocol$2138  
       0C:  0C81  C$vibes_lab_radio_protocol.c$780$
       0C:  0C83  A$vibes_lab_radio_protocol$2141  
       0C:  0C83  C$vibes_lab_radio_protocol.c$781$
       0C:  0C86  A$vibes_lab_radio_protocol$2142  
       0C:  0C89  A$vibes_lab_radio_protocol$2143  
       0C:  0C8C  A$vibes_lab_radio_protocol$2145  
       0C:  0C8E  A$vibes_lab_radio_protocol$2146  
       0C:  0C90  A$vibes_lab_radio_protocol$2147  
       0C:  0C92  A$vibes_lab_radio_protocol$2148  
       0C:  0C94  A$vibes_lab_radio_protocol$2149  
       0C:  0C96  A$vibes_lab_radio_protocol$2150  
       0C:  0C98  A$vibes_lab_radio_protocol$2151  
       0C:  0C9A  A$vibes_lab_radio_protocol$2152  
       0C:  0C9C  A$vibes_lab_radio_protocol$2153  
       0C:  0C9E  A$vibes_lab_radio_protocol$2154  
       0C:  0CA0  A$vibes_lab_radio_protocol$2155  
       0C:  0CA2  A$vibes_lab_radio_protocol$2156  
       0C:  0CA4  A$vibes_lab_radio_protocol$2157  
       0C:  0CA6  A$vibes_lab_radio_protocol$2158  
       0C:  0CA8  A$vibes_lab_radio_protocol$2161  
       0C:  0CA8  C$vibes_lab_radio_protocol.c$784$
       0C:  0CA8  XG$ISR_RF$0$0                    
ASxxxx Linker V02.00 + NoICE + sdld,  page 120.
Hexadecimal

Area                               Addr   Size   Decimal Bytes (Attributes)
--------------------------------   ----   ----   ------- ----- ------------
CSEG                               051D   157D =   5501. bytes (REL,CON,CODE)

      Value  Global                              Global Defined In Module
      -----  ---------------------------------   ------------------------
       0C:  0CA9  A$time$758                       
       0C:  0CA9  C$time.c$22$0$0                  
       0C:  0CA9  C$time.c$24$1$0                  
       0C:  0CA9  G$getMs$0$0                      
       0C:  0CA9  _getMs                           
       0C:  0CAB  A$time$759                       
       0C:  0CAC  A$time$760                       
       0C:  0CAD  A$time$761                       
       0C:  0CAE  A$time$764                       
       0C:  0CAE  C$time.c$26$1$1                  
       0C:  0CB0  A$time$767                       
       0C:  0CB0  C$time.c$27$1$1                  
       0C:  0CB2  A$time$768                       
       0C:  0CB3  A$time$769                       
       0C:  0CB4  A$time$770                       
       0C:  0CB5  A$time$771                       
       0C:  0CB6  A$time$772                       
       0C:  0CB7  A$time$773                       
       0C:  0CB8  A$time$774                       
       0C:  0CB9  A$time$775                       
       0C:  0CBA  A$time$776                       
       0C:  0CBB  A$time$777                       
       0C:  0CBC  A$time$778                       
       0C:  0CBD  A$time$781                       
       0C:  0CBD  C$time.c$28$1$1                  
       0C:  0CBE  A$time$782                       
       0C:  0CC0  A$time$783                       
       0C:  0CC2  A$time$786                       
       0C:  0CC2  C$time.c$29$1$1                  
       0C:  0CC4  A$time$787                       
       0C:  0CC6  A$time$788                       
       0C:  0CC8  A$time$789                       
       0C:  0CC9  A$time$792                       
       0C:  0CC9  C$time.c$30$1$1                  
       0C:  0CC9  XG$getMs$0$0                     
       0C:  0CCA  A$time$812                       
       0C:  0CCA  C$time.c$32$1$1                  
       0C:  0CCA  G$ISR_T4$0$0                     
       0C:  0CCA  _ISR_T4                          
       0C:  0CCC  A$time$813                       
       0C:  0CCE  A$time$814                       
       0C:  0CD1  A$time$817                       
       0C:  0CD1  C$time.c$34$1$1                  
       0C:  0CD3  A$time$818                       
       0C:  0CD4  A$time$819                       
       0C:  0CD6  A$time$820                       
       0C:  0CD7  A$time$821                       
       0C:  0CD8  A$time$822                       
       0C:  0CD9  A$time$823                       
       0C:  0CDB  A$time$824                       
       0C:  0CDC  A$time$825                       
ASxxxx Linker V02.00 + NoICE + sdld,  page 121.
Hexadecimal

Area                               Addr   Size   Decimal Bytes (Attributes)
--------------------------------   ----   ----   ------- ----- ------------
CSEG                               051D   157D =   5501. bytes (REL,CON,CODE)

      Value  Global                              Global Defined In Module
      -----  ---------------------------------   ------------------------
       0C:  0CDD  A$time$826                       
       0C:  0CDE  A$time$827                       
       0C:  0CE0  A$time$828                       
       0C:  0CE1  A$time$829                       
       0C:  0CE2  A$time$830                       
       0C:  0CE3  A$time$831                       
       0C:  0CE5  A$time$832                       
       0C:  0CE6  A$time$835                       
       0C:  0CE6  C$time.c$37$1$1                  
       0C:  0CE9  A$time$836                       
       0C:  0CEB  A$time$837                       
       0C:  0CED  A$time$840                       
       0C:  0CED  C$time.c$38$1$1                  
       0C:  0CED  XG$ISR_T4$0$0                    
       0C:  0CEE  A$time$863                       
       0C:  0CEE  C$time.c$46$1$1                  
       0C:  0CEE  G$delayMs$0$0                    
       0C:  0CEE  _delayMs                         
       0C:  0CF0  A$time$864                       
       0C:  0CF2  A$time$868                       
       0C:  0CF2  C$time.c$52$1$1                  
       0C:  0CF4  A$time$869                       
       0C:  0CF6  A$time$870                       
       0C:  0CF7  A$time$871                       
       0C:  0CFA  A$time$872                       
       0C:  0CFB  A$time$874                       
       0C:  0CFC  A$time$875                       
       0C:  0CFD  A$time$876                       
       0C:  0CFF  A$time$879                       
       0C:  0CFF  C$time.c$54$2$2                  
       0C:  0D02  A$time$880                       
       0C:  0D04  A$time$881                       
       0C:  0D06  A$time$882                       
       0C:  0D09  A$time$885                       
       0C:  0D09  C$time.c$55$2$2                  
       0C:  0D0C  A$time$886                       
       0C:  0D0F  A$time$889                       
       0C:  0D0F  C$time.c$56$2$2                  
       0C:  0D12  A$time$890                       
       0C:  0D15  A$time$893                       
       0C:  0D15  C$time.c$57$2$2                  
       0C:  0D18  A$time$894                       
       0C:  0D1B  A$time$895                       
       0C:  0D1D  A$time$896                       
       0C:  0D1F  A$time$897                       
       0C:  0D21  A$time$901                       
       0C:  0D21  C$time.c$59$1$1                  
       0C:  0D21  XG$delayMs$0$0                   
       0C:  0D22  A$time$915                       
       0C:  0D22  C$time.c$67$1$1                  
       0C:  0D22  C$time.c$70$1$1                  
ASxxxx Linker V02.00 + NoICE + sdld,  page 122.
Hexadecimal

Area                               Addr   Size   Decimal Bytes (Attributes)
--------------------------------   ----   ----   ------- ----- ------------
CSEG                               051D   157D =   5501. bytes (REL,CON,CODE)

      Value  Global                              Global Defined In Module
      -----  ---------------------------------   ------------------------
       0C:  0D22  G$timeInit$0$0                   
       0C:  0D22  _timeInit                        
       0C:  0D25  A$time$918                       
       0C:  0D25  C$time.c$72$1$1                  
       0C:  0D27  A$time$921                       
       0C:  0D27  C$time.c$79$1$1                  
       0C:  0D2A  A$time$924                       
       0C:  0D2A  C$time.c$81$1$1                  
       0C:  0D2C  A$time$927                       
       0C:  0D2C  C$time.c$82$1$1                  
       0C:  0D2C  XG$timeInit$0$0                  
       0C:  0D2D  A$time$941                       
       0C:  0D2D  C$time.c$84$1$1                  
       0C:  0D2D  C$time.c$87$1$1                  
       0C:  0D2D  G$isrTimerInit$0$0               
       0C:  0D2D  _isrTimerInit                    
       0C:  0D30  A$time$944                       
       0C:  0D30  C$time.c$89$1$1                  
       0C:  0D32  A$time$947                       
       0C:  0D32  C$time.c$96$1$1                  
       0C:  0D35  A$time$950                       
       0C:  0D35  C$time.c$99$1$1                  
       0C:  0D38  A$time$953                       
       0C:  0D38  C$time.c$100$1$1                 
       0C:  0D3B  A$time$956                       
       0C:  0D3B  C$time.c$101$1$1                 
       0C:  0D3B  XG$isrTimerInit$0$0              
       0C:  0D3C  A$adc$737                        
       0C:  0D3C  C$adc.c$5$0$0                    
       0C:  0D3C  C$adc.c$8$1$1                    
       0C:  0D3C  G$adcInit$0$0                    
       0C:  0D3C  _adcInit                         
       0C:  0D3E  A$adc$740                        
       0C:  0D3E  C$adc.c$9$1$1                    
       0C:  0D40  A$adc$743                        
       0C:  0D40  C$adc.c$12$1$1                   
       0C:  0D43  A$adc$746                        
       0C:  0D43  C$adc.c$15$1$1                   
       0C:  0D45  A$adc$749                        
       0C:  0D45  C$adc.c$16$1$1                   
       0C:  0D45  XG$adcInit$0$0                   
       0C:  0D46  A$adc$762                        
       0C:  0D46  C$adc.c$18$1$1                   
       0C:  0D46  G$adcRead$0$0                    
       0C:  0D46  _adcRead                         
       0C:  0D48  A$adc$765                        
       0C:  0D48  C$adc.c$28$1$1                   
       0C:  0D4A  A$adc$768                        
       0C:  0D4A  C$adc.c$29$1$1                   
       0C:  0D4C  A$adc$769                        
       0C:  0D4D  A$adc$770                        
ASxxxx Linker V02.00 + NoICE + sdld,  page 123.
Hexadecimal

Area                               Addr   Size   Decimal Bytes (Attributes)
--------------------------------   ----   ----   ------- ----- ------------
CSEG                               051D   157D =   5501. bytes (REL,CON,CODE)

      Value  Global                              Global Defined In Module
      -----  ---------------------------------   ------------------------
       0C:  0D4F  A$adc$774                        
       0C:  0D4F  C$adc.c$30$1$1                   
       0C:  0D52  A$adc$777                        
       0C:  0D52  C$adc.c$32$1$1                   
       0C:  0D54  A$adc$778                        
       0C:  0D57  A$adc$781                        
       0C:  0D57  C$adc.c$35$2$3                   
       0C:  0D5A  A$adc$782                        
       0C:  0D5B  A$adc$786                        
       0C:  0D5B  C$adc.c$42$2$4                   
       0C:  0D5E  A$adc$787                        
       0C:  0D60  A$adc$788                        
       0C:  0D61  A$adc$789                        
       0C:  0D63  A$adc$790                        
       0C:  0D64  A$adc$791                        
       0C:  0D66  A$adc$792                        
       0C:  0D68  A$adc$793                        
       0C:  0D6A  A$adc$794                        
       0C:  0D6C  A$adc$795                        
       0C:  0D6E  A$adc$796                        
       0C:  0D70  A$adc$797                        
       0C:  0D72  A$adc$798                        
       0C:  0D74  A$adc$801                        
       0C:  0D74  C$adc.c$44$1$1                   
       0C:  0D74  XG$adcRead$0$0                   
       0C:  0D84  _delayMicroseconds               
       0C:  0D8C  A$board$764                      
       0C:  0D8C  C$board.c$29$0$0                 
       0C:  0D8C  C$board.c$31$1$1                 
       0C:  0D8C  G$systemInit$0$0                 
       0C:  0D8C  _systemInit                      
       0C:  0D8F  A$board$767                      
       0C:  0D8F  C$board.c$32$1$1                 
       0C:  0D92  A$board$770                      
       0C:  0D92  C$board.c$33$1$1                 
       0C:  0D95  A$board$775                      
       0C:  0D95  C$board.c$34$1$1                 
       0C:  0D95  C$board.c$35$1$1                 
       0C:  0D95  XG$systemInit$0$0                
       0C:  0D98  A$board$791                      
       0C:  0D98  C$board.c$37$1$1                 
       0C:  0D98  C$board.c$39$1$1                 
       0C:  0D98  C$board.c$40$1$1                 
       0C:  0D98  G$boardService$0$0               
       0C:  0D98  XG$boardService$0$0              
       0C:  0D98  _boardService                    
       0C:  0D9B  A$board$805                      
       0C:  0D9B  C$board.c$45$1$1                 
       0C:  0D9B  C$board.c$48$1$1                 
       0C:  0D9B  G$boardClockInit$0$0             
       0C:  0D9B  _boardClockInit                  
ASxxxx Linker V02.00 + NoICE + sdld,  page 124.
Hexadecimal

Area                               Addr   Size   Decimal Bytes (Attributes)
--------------------------------   ----   ----   ------- ----- ------------
CSEG                               051D   157D =   5501. bytes (REL,CON,CODE)

      Value  Global                              Global Defined In Module
      -----  ---------------------------------   ------------------------
       0C:  0D9E  A$board$809                      
       0C:  0D9E  C$board.c$53$1$1                 
       0C:  0DA0  A$board$810                      
       0C:  0DA3  A$board$813                      
       0C:  0DA3  C$board.c$60$1$1                 
       0C:  0DA6  A$board$816                      
       0C:  0DA6  C$board.c$64$1$1                 
       0C:  0DA9  A$board$819                      
       0C:  0DA9  C$board.c$68$1$1                 
       0C:  0DAC  A$board$822                      
       0C:  0DAC  C$board.c$69$1$1                 
       0C:  0DAC  XG$boardClockInit$0$0            
       0C:  0DAD  A$board$836                      
       0C:  0DAD  C$board.c$71$1$1                 
       0C:  0DAD  C$board.c$73$1$1                 
       0C:  0DAD  G$boardIoInit$0$0                
       0C:  0DAD  _boardIoInit                     
       0C:  0DB0  A$board$839                      
       0C:  0DB0  C$board.c$74$1$1                 
       0C:  0DB3  A$board$842                      
       0C:  0DB3  C$board.c$77$1$1                 
       0C:  0DB6  A$board$845                      
       0C:  0DB6  C$board.c$78$1$1                 
       0C:  0DB6  XG$boardIoInit$0$0               
       0C:  0DB7  A$board$859                      
       0C:  0DB7  C$board.c$84$1$1                 
       0C:  0DB7  C$board.c$87$1$1                 
       0C:  0DB7  Fboard$boardDetectVbus$0$0       
       0C:  0DBA  A$board$860                      
       0C:  0DBC  A$board$861                      
       0C:  0DBE  A$board$862                      
       0C:  0DC0  A$board$863                      
       0C:  0DC1  A$board$864                      
       0C:  0DC3  A$board$865                      
       0C:  0DC4  A$board$866                      
       0C:  0DC5  A$board$867                      
       0C:  0DC6  A$board$868                      
       0C:  0DC7  A$board$869                      
       0C:  0DC8  A$board$870                      
       0C:  0DCA  A$board$871                      
       0C:  0DCD  A$board$873                      
       0C:  0DCF  A$board$876                      
       0C:  0DCF  C$board.c$89$2$1                 
       0C:  0DD1  A$board$877                      
       0C:  0DD3  A$board$880                      
       0C:  0DD3  C$board.c$90$2$2                 
       0C:  0DD5  A$board$881                      
       0C:  0DD7  A$board$884                      
       0C:  0DD7  C$board.c$92$3$3                 
       0C:  0DDA  A$board$887                      
       0C:  0DDA  C$board.c$93$3$3                 
ASxxxx Linker V02.00 + NoICE + sdld,  page 125.
Hexadecimal

Area                               Addr   Size   Decimal Bytes (Attributes)
--------------------------------   ----   ----   ------- ----- ------------
CSEG                               051D   157D =   5501. bytes (REL,CON,CODE)

      Value  Global                              Global Defined In Module
      -----  ---------------------------------   ------------------------
       0C:  0DDD  A$board$888                      
       0C:  0DE0  A$board$892                      
       0C:  0DE0  C$board.c$95$2$2                 
       0C:  0DE3  A$board$895                      
       0C:  0DE3  C$board.c$96$2$2                 
       0C:  0DE6  A$board$898                      
       0C:  0DE6  C$board.c$97$2$2                 
       0C:  0DE9  A$board$899                      
       0C:  0DEC  A$board$902                      
       0C:  0DEC  C$board.c$99$2$2                 
       0C:  0DEE  A$board$903                      
       0C:  0DF0  A$board$906                      
       0C:  0DF0  C$board.c$101$2$2                
       0C:  0DF3  A$board$909                      
       0C:  0DF3  C$board.c$102$2$2                
       0C:  0DF6  A$board$912                      
       0C:  0DF6  C$board.c$104$3$4                
       0C:  0DF9  A$board$916                      
       0C:  0DF9  C$board.c$107$2$2                
       0C:  0DFC  A$board$917                      
       0C:  0DFE  A$board$918                      
       0C:  0E00  A$board$919                      
       0C:  0E02  A$board$920                      
       0C:  0E03  A$board$921                      
       0C:  0E05  A$board$922                      
       0C:  0E06  A$board$923                      
       0C:  0E07  A$board$927                      
       0C:  0E07  C$board.c$109$2$1                
       0C:  0E07  XFboard$boardDetectVbus$0$0      
       0C:  0E08  A$board$941                      
       0C:  0E08  C$board.c$111$2$1                
       0C:  0E08  C$board.c$113$1$1                
       0C:  0E08  G$boardStartBootloader$0$0       
       0C:  0E08  _boardStartBootloader            
       0C:  0E0A  A$board$944                      
       0C:  0E0A  C$board.c$115$1$1                
       0C:  0E0D  A$board$947                      
       0C:  0E0D  C$board.c$117$1$1                
       0C:  0E10  A$board$948                      
       0C:  0E13  A$board$951                      
       0C:  0E13  C$board.c$119$1$1                
       0C:  0E16  A$board$954                      
       0C:  0E16  C$board.c$120$1$1                
       0C:  0E19  A$board$957                      
       0C:  0E19  C$board.c$121$1$1                
       0C:  0E1C  A$board$960                      
       0C:  0E1C  C$board.c$124$1$1                
       0C:  0E1F  A$board$961                      
       0C:  0E22  A$board$964                      
       0C:  0E22  C$board.c$125$1$1                
       0C:  0E25  A$board$967                      
ASxxxx Linker V02.00 + NoICE + sdld,  page 126.
Hexadecimal

Area                               Addr   Size   Decimal Bytes (Attributes)
--------------------------------   ----   ----   ------- ----- ------------
CSEG                               051D   157D =   5501. bytes (REL,CON,CODE)

      Value  Global                              Global Defined In Module
      -----  ---------------------------------   ------------------------
       0C:  0E25  C$board.c$126$1$1                
       0C:  0E25  XG$boardStartBootloader$0$0      
       0C:  0E26  A$board$981                      
       0C:  0E26  C$board.c$128$1$1                
       0C:  0E26  C$board.c$130$1$1                
       0C:  0E26  G$boardStartBootloaderIfNeeded$0$
       0C:  0E26  _boardStartBootloaderIfNeeded    
       0C:  0E28  A$board$982                      
       0C:  0E2B  A$board$985                      
       0C:  0E2B  C$board.c$132$2$2                
       0C:  0E2E  A$board$986                      
       0C:  0E31  A$board$989                      
       0C:  0E31  C$board.c$133$2$2                
       0C:  0E34  A$board$994                      
       0C:  0E34  C$board.c$135$3$3                
       0C:  0E34  C$board.c$138$1$1                
       0C:  0E34  XG$boardStartBootloaderIfNeeded$0
       0C:  0E37  A$board$996                      
       0C:  0E38  A$board$1010                     
       0C:  0E38  C$board.c$140$1$1                
       0C:  0E38  C$board.c$142$1$1                
       0C:  0E38  G$usbPowerPresent$0$0            
       0C:  0E38  _usbPowerPresent                 
       0C:  0E3B  A$board$1013                     
       0C:  0E3B  C$board.c$143$1$1                
       0C:  0E3D  A$board$1016                     
       0C:  0E3D  C$board.c$144$1$1                
       0C:  0E3D  XG$usbPowerPresent$0$0           
       0C:  0E3E  A$board$1030                     
       0C:  0E3E  C$board.c$146$1$1                
       0C:  0E3E  C$board.c$148$1$1                
       0C:  0E3E  G$vinPowerPresent$0$0            
       0C:  0E3E  _vinPowerPresent                 
       0C:  0E40  A$board$1033                     
       0C:  0E40  C$board.c$149$1$1                
       0C:  0E40  XG$vinPowerPresent$0$0           
       0C:  0E41  A$board$1047                     
       0C:  0E41  C$board.c$151$1$1                
       0C:  0E41  C$board.c$153$1$1                
       0C:  0E41  G$disableUsbPullup$0$0           
       0C:  0E41  _disableUsbPullup                
       0C:  0E44  A$board$1050                     
       0C:  0E44  C$board.c$154$1$1                
       0C:  0E44  XG$disableUsbPullup$0$0          
       0C:  0E45  A$board$1064                     
       0C:  0E45  C$board.c$156$1$1                
       0C:  0E45  C$board.c$158$1$1                
       0C:  0E45  G$enableUsbPullup$0$0            
       0C:  0E45  _enableUsbPullup                 
       0C:  0E47  A$board$1067                     
       0C:  0E47  C$board.c$159$1$1                
ASxxxx Linker V02.00 + NoICE + sdld,  page 127.
Hexadecimal

Area                               Addr   Size   Decimal Bytes (Attributes)
--------------------------------   ----   ----   ------- ----- ------------
CSEG                               051D   157D =   5501. bytes (REL,CON,CODE)

      Value  Global                              Global Defined In Module
      -----  ---------------------------------   ------------------------
       0C:  0E4A  A$board$1070                     
       0C:  0E4A  C$board.c$160$1$1                
       0C:  0E4A  XG$enableUsbPullup$0$0           
       0C:  0E4B  A$usb_cdc_acm$833                
       0C:  0E4B  C$usb_cdc_acm.c$234$0$0          
       0C:  0E4B  C$usb_cdc_acm.c$236$1$1          
       0C:  0E4B  G$usbCallbackInitEndpoints$0$0   
       0C:  0E4B  _usbCallbackInitEndpoints        
       0C:  0E4D  A$usb_cdc_acm$834                
       0C:  0E4F  A$usb_cdc_acm$835                
       0C:  0E50  A$usb_cdc_acm$836                
       0C:  0E53  A$usb_cdc_acm$837                
       0C:  0E56  A$usb_cdc_acm$840                
       0C:  0E56  C$usb_cdc_acm.c$237$1$1          
       0C:  0E58  A$usb_cdc_acm$841                
       0C:  0E5A  A$usb_cdc_acm$842                
       0C:  0E5B  A$usb_cdc_acm$843                
       0C:  0E5E  A$usb_cdc_acm$844                
       0C:  0E61  A$usb_cdc_acm$847                
       0C:  0E61  C$usb_cdc_acm.c$238$1$1          
       0C:  0E63  A$usb_cdc_acm$848                
       0C:  0E65  A$usb_cdc_acm$849                
       0C:  0E66  A$usb_cdc_acm$850                
       0C:  0E69  A$usb_cdc_acm$851                
       0C:  0E6C  A$usb_cdc_acm$854                
       0C:  0E6C  C$usb_cdc_acm.c$241$1$1          
       0C:  0E6E  A$usb_cdc_acm$855                
       0C:  0E70  A$usb_cdc_acm$856                
       0C:  0E71  A$usb_cdc_acm$859                
       0C:  0E71  C$usb_cdc_acm.c$242$1$1          
       0C:  0E71  XG$usbCallbackInitEndpoints$0$0  
       0C:  0E72  A$usb_cdc_acm$873                
       0C:  0E72  C$usb_cdc_acm.c$246$1$1          
       0C:  0E72  C$usb_cdc_acm.c$248$1$1          
       0C:  0E72  G$usbCallbackSetupHandler$0$0    
       0C:  0E72  _usbCallbackSetupHandler         
       0C:  0E75  A$usb_cdc_acm$874                
       0C:  0E76  A$usb_cdc_acm$875                
       0C:  0E77  A$usb_cdc_acm$876                
       0C:  0E7A  A$usb_cdc_acm$879                
       0C:  0E7A  C$usb_cdc_acm.c$249$1$1          
       0C:  0E7D  A$usb_cdc_acm$882                
       0C:  0E7D  C$usb_cdc_acm.c$251$1$1          
       0C:  0E80  A$usb_cdc_acm$883                
       0C:  0E81  A$usb_cdc_acm$884                
       0C:  0E82  A$usb_cdc_acm$885                
       0C:  0E83  A$usb_cdc_acm$886                
       0C:  0E84  A$usb_cdc_acm$887                
       0C:  0E85  A$usb_cdc_acm$888                
       0C:  0E86  A$usb_cdc_acm$889                
       0C:  0E88  A$usb_cdc_acm$892                
ASxxxx Linker V02.00 + NoICE + sdld,  page 128.
Hexadecimal

Area                               Addr   Size   Decimal Bytes (Attributes)
--------------------------------   ----   ----   ------- ----- ------------
CSEG                               051D   157D =   5501. bytes (REL,CON,CODE)

      Value  Global                              Global Defined In Module
      -----  ---------------------------------   ------------------------
       0C:  0E88  C$usb_cdc_acm.c$252$1$1          
       0C:  0E8B  A$usb_cdc_acm$893                
       0C:  0E8E  A$usb_cdc_acm$897                
       0C:  0E8E  C$usb_cdc_acm.c$254$1$1          
       0C:  0E91  A$usb_cdc_acm$898                
       0C:  0E92  A$usb_cdc_acm$899                
       0C:  0E93  A$usb_cdc_acm$900                
       0C:  0E96  A$usb_cdc_acm$901                
       0C:  0E98  A$usb_cdc_acm$903                
       0C:  0E9B  A$usb_cdc_acm$904                
       0C:  0E9D  A$usb_cdc_acm$908                
       0C:  0E9D  C$usb_cdc_acm.c$256$2$2          
       0C:  0EA0  A$usb_cdc_acm$909                
       0C:  0EA2  A$usb_cdc_acm$913                
       0C:  0EA2  C$usb_cdc_acm.c$257$2$2          
       0C:  0EA4  A$usb_cdc_acm$914                
       0C:  0EA6  A$usb_cdc_acm$915                
       0C:  0EA7  A$usb_cdc_acm$916                
       0C:  0EA8  A$usb_cdc_acm$917                
       0C:  0EAA  A$usb_cdc_acm$918                
       0C:  0EAB  A$usb_cdc_acm$919                
       0C:  0EAE  A$usb_cdc_acm$924                
       0C:  0EAE  C$usb_cdc_acm.c$258$2$2          
       0C:  0EAE  C$usb_cdc_acm.c$260$2$2          
       0C:  0EB1  A$usb_cdc_acm$928                
       0C:  0EB1  C$usb_cdc_acm.c$261$2$2          
       0C:  0EB3  A$usb_cdc_acm$929                
       0C:  0EB5  A$usb_cdc_acm$930                
       0C:  0EB6  A$usb_cdc_acm$931                
       0C:  0EB7  A$usb_cdc_acm$932                
       0C:  0EB9  A$usb_cdc_acm$933                
       0C:  0EBA  A$usb_cdc_acm$934                
       0C:  0EBD  A$usb_cdc_acm$939                
       0C:  0EBD  C$usb_cdc_acm.c$262$2$2          
       0C:  0EBD  C$usb_cdc_acm.c$264$2$2          
       0C:  0EC0  A$usb_cdc_acm$943                
       0C:  0EC0  C$usb_cdc_acm.c$265$2$2          
       0C:  0EC3  A$usb_cdc_acm$944                
       0C:  0EC4  A$usb_cdc_acm$945                
       0C:  0EC5  A$usb_cdc_acm$946                
       0C:  0EC6  A$usb_cdc_acm$947                
       0C:  0EC7  A$usb_cdc_acm$948                
       0C:  0EC9  A$usb_cdc_acm$949                
       0C:  0ECA  A$usb_cdc_acm$950                
       0C:  0ECB  A$usb_cdc_acm$957                
       0C:  0ECB  C$usb_cdc_acm.c$266$2$2          
       0C:  0ECB  C$usb_cdc_acm.c$268$1$1          
       0C:  0ECB  C$usb_cdc_acm.c$269$1$1          
       0C:  0ECB  XG$usbCallbackSetupHandler$0$0   
       0C:  0ECE  A$usb_cdc_acm$959                
       0C:  0ECF  A$usb_cdc_acm$975                
ASxxxx Linker V02.00 + NoICE + sdld,  page 129.
Hexadecimal

Area                               Addr   Size   Decimal Bytes (Attributes)
--------------------------------   ----   ----   ------- ----- ------------
CSEG                               051D   157D =   5501. bytes (REL,CON,CODE)

      Value  Global                              Global Defined In Module
      -----  ---------------------------------   ------------------------
       0C:  0ECF  C$usb_cdc_acm.c$271$1$1          
       0C:  0ECF  C$usb_cdc_acm.c$274$1$1          
       0C:  0ECF  G$usbCallbackClassDescriptorHandl
       0C:  0ECF  XG$usbCallbackClassDescriptorHand
       0C:  0ECF  _usbCallbackClassDescriptorHandle
       0C:  0ED0  A$usb_cdc_acm$991                
       0C:  0ED0  C$usb_cdc_acm.c$276$1$1          
       0C:  0ED0  C$usb_cdc_acm.c$279$1$1          
       0C:  0ED0  Fusb_cdc_acm$doNothing$0$0       
       0C:  0ED0  XFusb_cdc_acm$doNothing$0$0      
       0C:  0ED1  A$usb_cdc_acm$1005               
       0C:  0ED1  C$usb_cdc_acm.c$281$1$1          
       0C:  0ED1  C$usb_cdc_acm.c$283$1$1          
       0C:  0ED1  G$usbCallbackControlWriteHandler$
       0C:  0ED1  _usbCallbackControlWriteHandler  
       0C:  0ED3  A$usb_cdc_acm$1006               
       0C:  0ED4  A$usb_cdc_acm$1007               
       0C:  0ED6  A$usb_cdc_acm$1008               
       0C:  0ED7  A$usb_cdc_acm$1009               
       0C:  0ED8  A$usb_cdc_acm$1010               
       0C:  0EDA  A$usb_cdc_acm$1011               
       0C:  0EDD  A$usb_cdc_acm$1014               
       0C:  0EDD  C$usb_cdc_acm.c$285$1$1          
       0C:  0EE0  A$usb_cdc_acm$1015               
       0C:  0EE1  A$usb_cdc_acm$1016               
       0C:  0EE2  A$usb_cdc_acm$1017               
       0C:  0EE3  A$usb_cdc_acm$1018               
       0C:  0EE4  A$usb_cdc_acm$1019               
       0C:  0EE5  A$usb_cdc_acm$1020               
       0C:  0EE6  A$usb_cdc_acm$1021               
       0C:  0EE7  A$usb_cdc_acm$1022               
       0C:  0EE8  A$usb_cdc_acm$1023               
       0C:  0EE9  A$usb_cdc_acm$1024               
       0C:  0EEA  A$usb_cdc_acm$1025               
       0C:  0EEB  A$usb_cdc_acm$1026               
       0C:  0EEE  A$usb_cdc_acm$1027               
       0C:  0EF1  A$usb_cdc_acm$1028               
       0C:  0EF4  A$usb_cdc_acm$1029               
       0C:  0EF7  A$usb_cdc_acm$1030               
       0C:  0EFA  A$usb_cdc_acm$1033               
       0C:  0EFA  C$usb_cdc_acm.c$290$2$2          
       0C:  0EFC  A$usb_cdc_acm$1036               
       0C:  0EFC  C$usb_cdc_acm.c$291$2$2          
       0C:  0EFF  A$usb_cdc_acm$1037               
       0C:  0F01  A$usb_cdc_acm$1038               
       0C:  0F03  A$usb_cdc_acm$1039               
       0C:  0F05  A$usb_cdc_acm$1040               
       0C:  0F06  A$usb_cdc_acm$1041               
       0C:  0F09  A$usb_cdc_acm$1042               
       0C:  0F0A  A$usb_cdc_acm$1043               
       0C:  0F0B  A$usb_cdc_acm$1047               
ASxxxx Linker V02.00 + NoICE + sdld,  page 130.
Hexadecimal

Area                               Addr   Size   Decimal Bytes (Attributes)
--------------------------------   ----   ----   ------- ----- ------------
CSEG                               051D   157D =   5501. bytes (REL,CON,CODE)

      Value  Global                              Global Defined In Module
      -----  ---------------------------------   ------------------------
       0C:  0F0B  C$usb_cdc_acm.c$293$2$1          
       0C:  0F0B  XG$usbCallbackControlWriteHandler
       0C:  0F0C  A$usb_cdc_acm$1061               
       0C:  0F0C  C$usb_cdc_acm.c$299$2$1          
       0C:  0F0C  C$usb_cdc_acm.c$301$1$1          
       0C:  0F0C  G$usbComRxAvailable$0$0          
       0C:  0F0C  _usbComRxAvailable               
       0C:  0F0F  A$usb_cdc_acm$1062               
       0C:  0F10  A$usb_cdc_acm$1063               
       0C:  0F11  A$usb_cdc_acm$1064               
       0C:  0F14  A$usb_cdc_acm$1065               
       0C:  0F16  A$usb_cdc_acm$1069               
       0C:  0F16  C$usb_cdc_acm.c$304$2$2          
       0C:  0F19  A$usb_cdc_acm$1070               
       0C:  0F1A  A$usb_cdc_acm$1074               
       0C:  0F1A  C$usb_cdc_acm.c$307$1$1          
       0C:  0F1D  A$usb_cdc_acm$1075               
       0C:  0F1F  A$usb_cdc_acm$1076               
       0C:  0F20  A$usb_cdc_acm$1079               
       0C:  0F20  C$usb_cdc_acm.c$308$1$1          
       0C:  0F23  A$usb_cdc_acm$1080               
       0C:  0F24  A$usb_cdc_acm$1081               
       0C:  0F25  A$usb_cdc_acm$1082               
       0C:  0F28  A$usb_cdc_acm$1085               
       0C:  0F28  C$usb_cdc_acm.c$312$2$3          
       0C:  0F2B  A$usb_cdc_acm$1086               
       0C:  0F2C  A$usb_cdc_acm$1087               
       0C:  0F2E  A$usb_cdc_acm$1092               
       0C:  0F2E  C$usb_cdc_acm.c$316$2$4          
       0C:  0F2E  C$usb_cdc_acm.c$318$1$1          
       0C:  0F2E  XG$usbComRxAvailable$0$0         
       0C:  0F2F  A$usb_cdc_acm$1094               
       0C:  0F32  A$usb_cdc_acm$1095               
       0C:  0F33  A$usb_cdc_acm$1109               
       0C:  0F33  C$usb_cdc_acm.c$325$1$1          
       0C:  0F33  C$usb_cdc_acm.c$329$1$1          
       0C:  0F33  G$usbComRxReceiveByte$0$0        
       0C:  0F33  _usbComRxReceiveByte             
       0C:  0F36  A$usb_cdc_acm$1110               
       0C:  0F38  A$usb_cdc_acm$1111               
       0C:  0F39  A$usb_cdc_acm$1114               
       0C:  0F39  C$usb_cdc_acm.c$330$1$1          
       0C:  0F3C  A$usb_cdc_acm$1115               
       0C:  0F3D  A$usb_cdc_acm$1116               
       0C:  0F3E  A$usb_cdc_acm$1119               
       0C:  0F3E  C$usb_cdc_acm.c$332$1$1          
       0C:  0F41  A$usb_cdc_acm$1120               
       0C:  0F42  A$usb_cdc_acm$1121               
       0C:  0F43  A$usb_cdc_acm$1122               
       0C:  0F45  A$usb_cdc_acm$1125               
       0C:  0F45  C$usb_cdc_acm.c$334$2$2          
ASxxxx Linker V02.00 + NoICE + sdld,  page 131.
Hexadecimal

Area                               Addr   Size   Decimal Bytes (Attributes)
--------------------------------   ----   ----   ------- ----- ------------
CSEG                               051D   157D =   5501. bytes (REL,CON,CODE)

      Value  Global                              Global Defined In Module
      -----  ---------------------------------   ------------------------
       0C:  0F48  A$usb_cdc_acm$1126               
       0C:  0F49  A$usb_cdc_acm$1127               
       0C:  0F4A  A$usb_cdc_acm$1128               
       0C:  0F4C  A$usb_cdc_acm$1129               
       0C:  0F4D  A$usb_cdc_acm$1133               
       0C:  0F4D  C$usb_cdc_acm.c$337$1$1          
       0C:  0F4F  A$usb_cdc_acm$1136               
       0C:  0F4F  C$usb_cdc_acm.c$338$1$1          
       0C:  0F51  A$usb_cdc_acm$1139               
       0C:  0F51  C$usb_cdc_acm.c$339$1$1          
       0C:  0F51  XG$usbComRxReceiveByte$0$0       
       0C:  0F52  A$usb_cdc_acm$1151               
       0C:  0F52  C$usb_cdc_acm.c$343$1$1          
       0C:  0F52  G$usbComRxReceive$0$0            
       0C:  0F52  _usbComRxReceive                 
       0C:  0F54  A$usb_cdc_acm$1152               
       0C:  0F56  A$usb_cdc_acm$1155               
       0C:  0F56  C$usb_cdc_acm.c$345$1$1          
       0C:  0F58  A$usb_cdc_acm$1156               
       0C:  0F5A  A$usb_cdc_acm$1157               
       0C:  0F5B  A$usb_cdc_acm$1158               
       0C:  0F5C  A$usb_cdc_acm$1159               
       0C:  0F5E  A$usb_cdc_acm$1160               
       0C:  0F5F  A$usb_cdc_acm$1161               
       0C:  0F60  A$usb_cdc_acm$1162               
       0C:  0F61  A$usb_cdc_acm$1163               
       0C:  0F62  A$usb_cdc_acm$1164               
       0C:  0F63  A$usb_cdc_acm$1165               
       0C:  0F66  A$usb_cdc_acm$1166               
       0C:  0F69  A$usb_cdc_acm$1169               
       0C:  0F69  C$usb_cdc_acm.c$347$1$1          
       0C:  0F6C  A$usb_cdc_acm$1170               
       0C:  0F6D  A$usb_cdc_acm$1171               
       0C:  0F6E  A$usb_cdc_acm$1172               
       0C:  0F70  A$usb_cdc_acm$1175               
       0C:  0F70  C$usb_cdc_acm.c$349$2$2          
       0C:  0F73  A$usb_cdc_acm$1176               
       0C:  0F74  A$usb_cdc_acm$1177               
       0C:  0F75  A$usb_cdc_acm$1178               
       0C:  0F77  A$usb_cdc_acm$1179               
       0C:  0F78  A$usb_cdc_acm$1183               
       0C:  0F78  C$usb_cdc_acm.c$351$2$1          
       0C:  0F78  XG$usbComRxReceive$0$0           
       0C:  0F79  A$usb_cdc_acm$1197               
       0C:  0F79  C$usb_cdc_acm.c$358$2$1          
       0C:  0F79  C$usb_cdc_acm.c$360$1$1          
       0C:  0F79  Fusb_cdc_acm$sendPacketNow$0$0   
       0C:  0F7C  A$usb_cdc_acm$1198               
       0C:  0F7E  A$usb_cdc_acm$1199               
       0C:  0F7F  A$usb_cdc_acm$1202               
       0C:  0F7F  C$usb_cdc_acm.c$361$1$1          
ASxxxx Linker V02.00 + NoICE + sdld,  page 132.
Hexadecimal

Area                               Addr   Size   Decimal Bytes (Attributes)
--------------------------------   ----   ----   ------- ----- ------------
CSEG                               051D   157D =   5501. bytes (REL,CON,CODE)

      Value  Global                              Global Defined In Module
      -----  ---------------------------------   ------------------------
       0C:  0F82  A$usb_cdc_acm$1203               
       0C:  0F83  A$usb_cdc_acm$1204               
       0C:  0F84  A$usb_cdc_acm$1205               
       0C:  0F86  A$usb_cdc_acm$1206               
       0C:  0F87  A$usb_cdc_acm$1209               
       0C:  0F87  C$usb_cdc_acm.c$364$1$1          
       0C:  0F89  A$usb_cdc_acm$1210               
       0C:  0F8C  A$usb_cdc_acm$1211               
       0C:  0F8D  A$usb_cdc_acm$1212               
       0C:  0F8F  A$usb_cdc_acm$1214               
       0C:  0F90  A$usb_cdc_acm$1216               
       0C:  0F92  A$usb_cdc_acm$1219               
       0C:  0F92  C$usb_cdc_acm.c$367$1$1          
       0C:  0F95  A$usb_cdc_acm$1222               
       0C:  0F95  C$usb_cdc_acm.c$370$1$1          
       0C:  0F97  A$usb_cdc_acm$1225               
       0C:  0F97  C$usb_cdc_acm.c$371$1$1          
       0C:  0F97  XFusb_cdc_acm$sendPacketNow$0$0  
       0C:  0F98  A$usb_cdc_acm$1239               
       0C:  0F98  C$usb_cdc_acm.c$373$1$1          
       0C:  0F98  C$usb_cdc_acm.c$375$1$1          
       0C:  0F98  G$usbComService$0$0              
       0C:  0F98  _usbComService                   
       0C:  0F9B  A$usb_cdc_acm$1242               
       0C:  0F9B  C$usb_cdc_acm.c$378$1$1          
       0C:  0F9E  A$usb_cdc_acm$1243               
       0C:  0FA1  A$usb_cdc_acm$1244               
       0C:  0FA3  A$usb_cdc_acm$1245               
       0C:  0FA5  A$usb_cdc_acm$1246               
       0C:  0FA6  A$usb_cdc_acm$1247               
       0C:  0FA9  A$usb_cdc_acm$1248               
       0C:  0FAA  A$usb_cdc_acm$1249               
       0C:  0FAB  A$usb_cdc_acm$1250               
       0C:  0FAC  A$usb_cdc_acm$1251               
       0C:  0FAD  A$usb_cdc_acm$1252               
       0C:  0FAE  A$usb_cdc_acm$1253               
       0C:  0FAF  A$usb_cdc_acm$1254               
       0C:  0FB1  A$usb_cdc_acm$1255               
       0C:  0FB4  A$usb_cdc_acm$1257               
       0C:  0FB6  A$usb_cdc_acm$1260               
       0C:  0FB6  C$usb_cdc_acm.c$388$2$2          
       0C:  0FB9  A$usb_cdc_acm$1264               
       0C:  0FB9  C$usb_cdc_acm.c$391$1$1          
       0C:  0FBC  A$usb_cdc_acm$1265               
       0C:  0FBD  A$usb_cdc_acm$1266               
       0C:  0FBE  A$usb_cdc_acm$1267               
       0C:  0FC1  A$usb_cdc_acm$1268               
       0C:  0FC3  A$usb_cdc_acm$1272               
       0C:  0FC3  C$usb_cdc_acm.c$394$2$3          
       0C:  0FC4  A$usb_cdc_acm$1276               
       0C:  0FC4  C$usb_cdc_acm.c$402$1$1          
ASxxxx Linker V02.00 + NoICE + sdld,  page 133.
Hexadecimal

Area                               Addr   Size   Decimal Bytes (Attributes)
--------------------------------   ----   ----   ------- ----- ------------
CSEG                               051D   157D =   5501. bytes (REL,CON,CODE)

      Value  Global                              Global Defined In Module
      -----  ---------------------------------   ------------------------
       0C:  0FC7  A$usb_cdc_acm$1277               
       0C:  0FC9  A$usb_cdc_acm$1278               
       0C:  0FCA  A$usb_cdc_acm$1281               
       0C:  0FCA  C$usb_cdc_acm.c$403$1$1          
       0C:  0FCC  A$usb_cdc_acm$1282               
       0C:  0FCE  A$usb_cdc_acm$1283               
       0C:  0FD1  A$usb_cdc_acm$1284               
       0C:  0FD4  A$usb_cdc_acm$1285               
       0C:  0FD5  A$usb_cdc_acm$1286               
       0C:  0FD6  A$usb_cdc_acm$1287               
       0C:  0FD9  A$usb_cdc_acm$1291               
       0C:  0FD9  C$usb_cdc_acm.c$405$2$4          
       0C:  0FDC  A$usb_cdc_acm$1295               
       0C:  0FDC  C$usb_cdc_acm.c$409$1$1          
       0C:  0FDF  A$usb_cdc_acm$1296               
       0C:  0FE1  A$usb_cdc_acm$1297               
       0C:  0FE2  A$usb_cdc_acm$1300               
       0C:  0FE2  C$usb_cdc_acm.c$410$1$1          
       0C:  0FE4  A$usb_cdc_acm$1301               
       0C:  0FE6  A$usb_cdc_acm$1302               
       0C:  0FE7  A$usb_cdc_acm$1303               
       0C:  0FE9  A$usb_cdc_acm$1304               
       0C:  0FEA  A$usb_cdc_acm$1305               
       0C:  0FED  A$usb_cdc_acm$1306               
       0C:  0FEE  A$usb_cdc_acm$1308               
       0C:  0FF1  A$usb_cdc_acm$1309               
       0C:  0FF2  A$usb_cdc_acm$1310               
       0C:  0FF3  A$usb_cdc_acm$1311               
       0C:  0FF6  A$usb_cdc_acm$1320               
       0C:  0FF6  C$usb_cdc_acm.c$416$2$5          
       0C:  0FF6  C$usb_cdc_acm.c$417$2$5          
       0C:  0FF6  C$usb_cdc_acm.c$420$2$5          
       0C:  0FF6  C$usb_cdc_acm.c$421$2$5          
       0C:  0FF9  A$usb_cdc_acm$1321               
       0C:  0FFB  A$usb_cdc_acm$1322               
       0C:  0FFC  A$usb_cdc_acm$1323               
       0C:  0FFE  A$usb_cdc_acm$1324               
       0C:  0FFF  A$usb_cdc_acm$1325               
       0C:  1000  A$usb_cdc_acm$1326               
       0C:  1001  A$usb_cdc_acm$1335               
       0C:  1001  C$usb_cdc_acm.c$424$2$5          
       0C:  1001  C$usb_cdc_acm.c$425$2$5          
       0C:  1001  C$usb_cdc_acm.c$428$2$5          
       0C:  1001  C$usb_cdc_acm.c$429$2$5          
       0C:  1002  A$usb_cdc_acm$1336               
       0C:  1003  A$usb_cdc_acm$1337               
       0C:  1006  A$usb_cdc_acm$1338               
       0C:  1007  A$usb_cdc_acm$1339               
       0C:  1008  A$usb_cdc_acm$1340               
       0C:  1009  A$usb_cdc_acm$1341               
       0C:  100B  A$usb_cdc_acm$1342               
ASxxxx Linker V02.00 + NoICE + sdld,  page 134.
Hexadecimal

Area                               Addr   Size   Decimal Bytes (Attributes)
--------------------------------   ----   ----   ------- ----- ------------
CSEG                               051D   157D =   5501. bytes (REL,CON,CODE)

      Value  Global                              Global Defined In Module
      -----  ---------------------------------   ------------------------
       0C:  100C  A$usb_cdc_acm$1343               
       0C:  100D  A$usb_cdc_acm$1344               
       0C:  100E  A$usb_cdc_acm$1347               
       0C:  100E  C$usb_cdc_acm.c$432$2$5          
       0C:  1010  A$usb_cdc_acm$1348               
       0C:  1013  A$usb_cdc_acm$1349               
       0C:  1014  A$usb_cdc_acm$1350               
       0C:  1015  A$usb_cdc_acm$1353               
       0C:  1015  C$usb_cdc_acm.c$433$2$5          
       0C:  1018  A$usb_cdc_acm$1354               
       0C:  1019  A$usb_cdc_acm$1355               
       0C:  101A  A$usb_cdc_acm$1358               
       0C:  101A  C$usb_cdc_acm.c$435$2$5          
       0C:  101D  A$usb_cdc_acm$1359               
       0C:  101E  A$usb_cdc_acm$1360               
       0C:  1020  A$usb_cdc_acm$1361               
       0C:  1021  A$usb_cdc_acm$1364               
       0C:  1021  C$usb_cdc_acm.c$438$2$5          
       0C:  1023  A$usb_cdc_acm$1365               
       0C:  1024  A$usb_cdc_acm$1366               
       0C:  1026  A$usb_cdc_acm$1367               
       0C:  1027  A$usb_cdc_acm$1370               
       0C:  1027  C$usb_cdc_acm.c$440$2$5          
       0C:  1029  A$usb_cdc_acm$1371               
       0C:  102A  A$usb_cdc_acm$1372               
       0C:  102B  A$usb_cdc_acm$1373               
       0C:  102D  A$usb_cdc_acm$1374               
       0C:  102E  A$usb_cdc_acm$1377               
       0C:  102E  C$usb_cdc_acm.c$443$2$5          
       0C:  1030  A$usb_cdc_acm$1381               
       0C:  1030  C$usb_cdc_acm.c$445$2$1          
       0C:  1030  XG$usbComService$0$0             
       0C:  1031  A$usb_cdc_acm$1395               
       0C:  1031  C$usb_cdc_acm.c$449$2$1          
       0C:  1031  C$usb_cdc_acm.c$453$1$1          
       0C:  1031  G$usbComTxAvailable$0$0          
       0C:  1031  _usbComTxAvailable               
       0C:  1034  A$usb_cdc_acm$1396               
       0C:  1035  A$usb_cdc_acm$1397               
       0C:  1036  A$usb_cdc_acm$1398               
       0C:  1039  A$usb_cdc_acm$1399               
       0C:  103B  A$usb_cdc_acm$1403               
       0C:  103B  C$usb_cdc_acm.c$456$2$2          
       0C:  103E  A$usb_cdc_acm$1404               
       0C:  103F  A$usb_cdc_acm$1408               
       0C:  103F  C$usb_cdc_acm.c$459$1$1          
       0C:  1042  A$usb_cdc_acm$1409               
       0C:  1044  A$usb_cdc_acm$1410               
       0C:  1045  A$usb_cdc_acm$1413               
       0C:  1045  C$usb_cdc_acm.c$460$1$1          
       0C:  1048  A$usb_cdc_acm$1414               
ASxxxx Linker V02.00 + NoICE + sdld,  page 135.
Hexadecimal

Area                               Addr   Size   Decimal Bytes (Attributes)
--------------------------------   ----   ----   ------- ----- ------------
CSEG                               051D   157D =   5501. bytes (REL,CON,CODE)

      Value  Global                              Global Defined In Module
      -----  ---------------------------------   ------------------------
       0C:  1049  A$usb_cdc_acm$1417               
       0C:  1049  C$usb_cdc_acm.c$461$1$1          
       0C:  104A  A$usb_cdc_acm$1418               
       0C:  104D  A$usb_cdc_acm$1421               
       0C:  104D  C$usb_cdc_acm.c$463$2$3          
       0C:  104E  A$usb_cdc_acm$1422               
       0C:  1051  A$usb_cdc_acm$1425               
       0C:  1051  C$usb_cdc_acm.c$465$3$4          
       0C:  1054  A$usb_cdc_acm$1426               
       0C:  1055  A$usb_cdc_acm$1430               
       0C:  1055  C$usb_cdc_acm.c$467$2$3          
       0C:  1057  A$usb_cdc_acm$1431               
       0C:  1058  A$usb_cdc_acm$1432               
       0C:  105A  A$usb_cdc_acm$1433               
       0C:  105C  A$usb_cdc_acm$1434               
       0C:  105D  A$usb_cdc_acm$1438               
       0C:  105D  C$usb_cdc_acm.c$471$2$5          
       0C:  105F  A$usb_cdc_acm$1439               
       0C:  1060  A$usb_cdc_acm$1440               
       0C:  1062  A$usb_cdc_acm$1441               
       0C:  1064  A$usb_cdc_acm$1444               
       0C:  1064  C$usb_cdc_acm.c$473$1$1          
       0C:  1064  XG$usbComTxAvailable$0$0         
       0C:  1065  A$usb_cdc_acm$1456               
       0C:  1065  C$usb_cdc_acm.c$477$1$1          
       0C:  1065  G$usbComTxSend$0$0               
       0C:  1065  _usbComTxSend                    
       0C:  1067  A$usb_cdc_acm$1457               
       0C:  1069  A$usb_cdc_acm$1461               
       0C:  1069  C$usb_cdc_acm.c$480$1$1          
       0C:  106B  A$usb_cdc_acm$1462               
       0C:  106C  A$usb_cdc_acm$1463               
       0C:  106E  A$usb_cdc_acm$1466               
       0C:  106E  C$usb_cdc_acm.c$482$2$2          
       0C:  1070  A$usb_cdc_acm$1467               
       0C:  1071  A$usb_cdc_acm$1468               
       0C:  1073  A$usb_cdc_acm$1469               
       0C:  1074  A$usb_cdc_acm$1472               
       0C:  1074  C$usb_cdc_acm.c$483$2$2          
       0C:  1076  A$usb_cdc_acm$1473               
       0C:  1077  A$usb_cdc_acm$1474               
       0C:  107A  A$usb_cdc_acm$1476               
       0C:  107C  A$usb_cdc_acm$1477               
       0C:  107E  A$usb_cdc_acm$1478               
       0C:  107F  A$usb_cdc_acm$1479               
       0C:  1080  A$usb_cdc_acm$1483               
       0C:  1080  C$usb_cdc_acm.c$485$2$2          
       0C:  1082  A$usb_cdc_acm$1484               
       0C:  1083  A$usb_cdc_acm$1485               
       0C:  1084  A$usb_cdc_acm$1486               
       0C:  1086  A$usb_cdc_acm$1487               
ASxxxx Linker V02.00 + NoICE + sdld,  page 136.
Hexadecimal

Area                               Addr   Size   Decimal Bytes (Attributes)
--------------------------------   ----   ----   ------- ----- ------------
CSEG                               051D   157D =   5501. bytes (REL,CON,CODE)

      Value  Global                              Global Defined In Module
      -----  ---------------------------------   ------------------------
       0C:  1087  A$usb_cdc_acm$1488               
       0C:  1088  A$usb_cdc_acm$1489               
       0C:  1089  A$usb_cdc_acm$1490               
       0C:  108A  A$usb_cdc_acm$1491               
       0C:  108B  A$usb_cdc_acm$1492               
       0C:  108E  A$usb_cdc_acm$1493               
       0C:  1090  A$usb_cdc_acm$1494               
       0C:  1092  A$usb_cdc_acm$1495               
       0C:  1094  A$usb_cdc_acm$1496               
       0C:  1097  A$usb_cdc_acm$1497               
       0C:  1099  A$usb_cdc_acm$1498               
       0C:  109B  A$usb_cdc_acm$1499               
       0C:  109D  A$usb_cdc_acm$1502               
       0C:  109D  C$usb_cdc_acm.c$487$2$2          
       0C:  109E  A$usb_cdc_acm$1503               
       0C:  109F  A$usb_cdc_acm$1504               
       0C:  10A0  A$usb_cdc_acm$1505               
       0C:  10A1  A$usb_cdc_acm$1506               
       0C:  10A2  A$usb_cdc_acm$1507               
       0C:  10A3  A$usb_cdc_acm$1510               
       0C:  10A3  C$usb_cdc_acm.c$488$2$2          
       0C:  10A5  A$usb_cdc_acm$1511               
       0C:  10A6  A$usb_cdc_acm$1512               
       0C:  10A7  A$usb_cdc_acm$1513               
       0C:  10A8  A$usb_cdc_acm$1514               
       0C:  10A9  A$usb_cdc_acm$1517               
       0C:  10A9  C$usb_cdc_acm.c$489$2$2          
       0C:  10AA  A$usb_cdc_acm$1518               
       0C:  10AC  A$usb_cdc_acm$1519               
       0C:  10AE  A$usb_cdc_acm$1522               
       0C:  10AE  C$usb_cdc_acm.c$491$2$2          
       0C:  10B0  A$usb_cdc_acm$1523               
       0C:  10B3  A$usb_cdc_acm$1526               
       0C:  10B3  C$usb_cdc_acm.c$493$3$4          
       0C:  10B5  A$usb_cdc_acm$1527               
       0C:  10B7  A$usb_cdc_acm$1528               
       0C:  10BA  A$usb_cdc_acm$1529               
       0C:  10BC  A$usb_cdc_acm$1530               
       0C:  10BE  A$usb_cdc_acm$1531               
       0C:  10C0  A$usb_cdc_acm$1535               
       0C:  10C0  C$usb_cdc_acm.c$496$1$1          
       0C:  10C0  XG$usbComTxSend$0$0              
       0C:  10C1  A$usb_cdc_acm$1547               
       0C:  10C1  C$usb_cdc_acm.c$498$1$1          
       0C:  10C1  G$usbComTxSendByte$0$0           
       0C:  10C1  _usbComTxSendByte                
       0C:  10C3  A$usb_cdc_acm$1548               
       0C:  10C6  A$usb_cdc_acm$1549               
       0C:  10C7  A$usb_cdc_acm$1552               
       0C:  10C7  C$usb_cdc_acm.c$503$1$1          
       0C:  10C9  A$usb_cdc_acm$1555               
ASxxxx Linker V02.00 + NoICE + sdld,  page 137.
Hexadecimal

Area                               Addr   Size   Decimal Bytes (Attributes)
--------------------------------   ----   ----   ------- ----- ------------
CSEG                               051D   157D =   5501. bytes (REL,CON,CODE)

      Value  Global                              Global Defined In Module
      -----  ---------------------------------   ------------------------
       0C:  10C9  C$usb_cdc_acm.c$505$1$1          
       0C:  10CB  A$usb_cdc_acm$1556               
       0C:  10CE  A$usb_cdc_acm$1561               
       0C:  10CE  C$usb_cdc_acm.c$507$2$2          
       0C:  10CE  C$usb_cdc_acm.c$511$2$1          
       0C:  10CE  XG$usbComTxSendByte$0$0          
       0C:  10D1  A$usb_cdc_acm$1563               
       0C:  10D2  A$usb_cdc_acm$1577               
       0C:  10D2  C$usb_cdc_acm.c$515$2$1          
       0C:  10D2  C$usb_cdc_acm.c$517$1$1          
       0C:  10D2  G$usbComRxControlSignals$0$0     
       0C:  10D2  _usbComRxControlSignals          
       0C:  10D4  A$usb_cdc_acm$1578               
       0C:  10D5  A$usb_cdc_acm$1579               
       0C:  10D7  A$usb_cdc_acm$1582               
       0C:  10D7  C$usb_cdc_acm.c$518$1$1          
       0C:  10D7  XG$usbComRxControlSignals$0$0    
       0C:  10D8  A$usb_cdc_acm$1594               
       0C:  10D8  C$usb_cdc_acm.c$520$1$1          
       0C:  10D8  G$usbComTxControlSignals$0$0     
       0C:  10D8  _usbComTxControlSignals          
       0C:  10DA  A$usb_cdc_acm$1597               
       0C:  10DA  C$usb_cdc_acm.c$522$1$1          
       0C:  10DC  A$usb_cdc_acm$1598               
       0C:  10DD  A$usb_cdc_acm$1599               
       0C:  10DF  A$usb_cdc_acm$1600               
       0C:  10E0  A$usb_cdc_acm$1601               
       0C:  10E2  A$usb_cdc_acm$1602               
       0C:  10E3  A$usb_cdc_acm$1605               
       0C:  10E3  C$usb_cdc_acm.c$523$1$1          
       0C:  10E3  XG$usbComTxControlSignals$0$0    
       0C:  10E4  A$usb_cdc_acm$1617               
       0C:  10E4  C$usb_cdc_acm.c$525$1$1          
       0C:  10E4  G$usbComTxControlSignalEvents$0$0
       0C:  10E4  _usbComTxControlSignalEvents     
       0C:  10E6  A$usb_cdc_acm$1620               
       0C:  10E6  C$usb_cdc_acm.c$527$1$1          
       0C:  10E8  A$usb_cdc_acm$1621               
       0C:  10E9  A$usb_cdc_acm$1622               
       0C:  10EA  A$usb_cdc_acm$1623               
       0C:  10EB  A$usb_cdc_acm$1626               
       0C:  10EB  C$usb_cdc_acm.c$528$1$1          
       0C:  10EB  XG$usbComTxControlSignalEvents$0$
       0C:  10EC  A$dma$740                        
       0C:  10EC  C$dma.c$7$0$0                    
       0C:  10EC  C$dma.c$9$1$1                    
       0C:  10EC  G$dmaInit$0$0                    
       0C:  10EC  _dmaInit                         
       0C:  10EF  A$dma$741                        
       0C:  10F2  A$dma$744                        
       0C:  10F2  C$dma.c$10$1$1                   
ASxxxx Linker V02.00 + NoICE + sdld,  page 138.
Hexadecimal

Area                               Addr   Size   Decimal Bytes (Attributes)
--------------------------------   ----   ----   ------- ----- ------------
CSEG                               051D   157D =   5501. bytes (REL,CON,CODE)

      Value  Global                              Global Defined In Module
      -----  ---------------------------------   ------------------------
       0C:  10F2  XG$dmaInit$0$0                   
       0C:  10F3  A$usb$824                        
       0C:  10F3  C$usb.c$29$0$0                   
       0C:  10F3  C$usb.c$31$0$0                   
       0C:  10F3  G$usbInit$0$0                    
       0C:  10F3  XG$usbInit$0$0                   
       0C:  10F3  _usbInit                         
       0C:  10F4  A$usb$836                        
       0C:  10F4  C$usb.c$34$0$0                   
       0C:  10F4  G$usbReadFifo$0$0                
       0C:  10F4  _usbReadFifo                     
       0C:  10F6  A$usb$839                        
       0C:  10F6  C$usb.c$36$1$1                   
       0C:  10F7  A$usb$840                        
       0C:  10F8  A$usb$841                        
       0C:  10FA  A$usb$842                        
       0C:  10FB  A$usb$843                        
       0C:  10FC  A$usb$844                        
       0C:  10FD  A$usb$845                        
       0C:  10FF  A$usb$846                        
       0C:  1100  A$usb$847                        
       0C:  1101  A$usb$848                        
       0C:  1103  A$usb$849                        
       0C:  1104  A$usb$850                        
       0C:  1105  A$usb$853                        
       0C:  1105  C$usb.c$37$1$1                   
       0C:  1107  A$usb$854                        
       0C:  1108  A$usb$855                        
       0C:  1109  A$usb$856                        
       0C:  110B  A$usb$857                        
       0C:  110C  A$usb$858                        
       0C:  110D  A$usb$859                        
       0C:  110E  A$usb$860                        
       0C:  110F  A$usb$861                        
       0C:  1110  A$usb$863                        
       0C:  1111  A$usb$864                        
       0C:  1113  A$usb$867                        
       0C:  1113  C$usb.c$39$2$2                   
       0C:  1114  A$usb$870                        
       0C:  1114  C$usb.c$40$2$2                   
       0C:  1116  A$usb$871                        
       0C:  1118  A$usb$872                        
       0C:  1119  A$usb$873                        
       0C:  111A  A$usb$874                        
       0C:  111C  A$usb$875                        
       0C:  111E  A$usb$876                        
       0C:  111F  A$usb$877                        
       0C:  1120  A$usb$878                        
       0C:  1122  A$usb$879                        
       0C:  1124  A$usb$880                        
       0C:  1126  A$usb$884                        
ASxxxx Linker V02.00 + NoICE + sdld,  page 139.
Hexadecimal

Area                               Addr   Size   Decimal Bytes (Attributes)
--------------------------------   ----   ----   ------- ----- ------------
CSEG                               051D   157D =   5501. bytes (REL,CON,CODE)

      Value  Global                              Global Defined In Module
      -----  ---------------------------------   ------------------------
       0C:  1126  C$usb.c$43$1$1                   
       0C:  1128  A$usb$887                        
       0C:  1128  C$usb.c$44$1$1                   
       0C:  1128  XG$usbReadFifo$0$0               
       0C:  1129  A$usb$899                        
       0C:  1129  C$usb.c$46$1$1                   
       0C:  1129  G$usbWriteFifo$0$0               
       0C:  1129  _usbWriteFifo                    
       0C:  112B  A$usb$902                        
       0C:  112B  C$usb.c$48$1$1                   
       0C:  112C  A$usb$903                        
       0C:  112D  A$usb$904                        
       0C:  112F  A$usb$905                        
       0C:  1130  A$usb$906                        
       0C:  1131  A$usb$907                        
       0C:  1132  A$usb$908                        
       0C:  1134  A$usb$909                        
       0C:  1135  A$usb$910                        
       0C:  1136  A$usb$911                        
       0C:  1138  A$usb$912                        
       0C:  1139  A$usb$913                        
       0C:  113A  A$usb$916                        
       0C:  113A  C$usb.c$49$1$1                   
       0C:  113C  A$usb$917                        
       0C:  113D  A$usb$918                        
       0C:  113E  A$usb$919                        
       0C:  1140  A$usb$920                        
       0C:  1141  A$usb$921                        
       0C:  1142  A$usb$922                        
       0C:  1143  A$usb$923                        
       0C:  1144  A$usb$924                        
       0C:  1145  A$usb$926                        
       0C:  1146  A$usb$927                        
       0C:  1148  A$usb$930                        
       0C:  1148  C$usb.c$51$2$2                   
       0C:  1149  A$usb$933                        
       0C:  1149  C$usb.c$52$2$2                   
       0C:  114B  A$usb$934                        
       0C:  114D  A$usb$935                        
       0C:  114E  A$usb$936                        
       0C:  114F  A$usb$937                        
       0C:  1150  A$usb$938                        
       0C:  1152  A$usb$939                        
       0C:  1154  A$usb$940                        
       0C:  1156  A$usb$941                        
       0C:  1158  A$usb$942                        
       0C:  1159  A$usb$943                        
       0C:  115A  A$usb$944                        
       0C:  115C  A$usb$948                        
       0C:  115C  C$usb.c$57$1$1                   
       0C:  115C  XG$usbWriteFifo$0$0              
ASxxxx Linker V02.00 + NoICE + sdld,  page 140.
Hexadecimal

Area                               Addr   Size   Decimal Bytes (Attributes)
--------------------------------   ----   ----   ------- ----- ------------
CSEG                               051D   157D =   5501. bytes (REL,CON,CODE)

      Value  Global                              Global Defined In Module
      -----  ---------------------------------   ------------------------
       0C:  115D  A$usb$962                        
       0C:  115D  C$usb.c$61$1$1                   
       0C:  115D  C$usb.c$63$1$1                   
       0C:  115D  Fusb$basicUsbInit$0$0            
       0C:  115F  A$usb$965                        
       0C:  115F  C$usb.c$66$1$1                   
       0C:  1162  A$usb$966                        
       0C:  1164  A$usb$967                        
       0C:  1165  A$usb$970                        
       0C:  1165  C$usb.c$70$1$1                   
       0C:  1168  A$usb$971                        
       0C:  116A  A$usb$972                        
       0C:  116B  A$usb$975                        
       0C:  116B  C$usb.c$71$1$1                   
       0C:  116B  XFusb$basicUsbInit$0$0           
       0C:  116C  A$usb$989                        
       0C:  116C  C$usb.c$73$1$1                   
       0C:  116C  C$usb.c$79$1$1                   
       0C:  116C  G$usbPoll$0$0                    
       0C:  116C  _usbPoll                         
       0C:  116F  A$usb$990                        
       0C:  1171  A$usb$993                        
       0C:  1171  C$usb.c$84$2$2                   
       0C:  1174  A$usb$996                        
       0C:  1174  C$usb.c$86$2$2                   
       0C:  1177  A$usb$999                        
       0C:  1177  C$usb.c$87$2$2                   
       0C:  117A  A$usb$1000                       
       0C:  117B  A$usb$1001                       
       0C:  117C  A$usb$1004                       
       0C:  117C  C$usb.c$88$2$2                   
       0C:  117E  A$usb$1007                       
       0C:  117E  C$usb.c$89$2$2                   
       0C:  117F  A$usb$1011                       
       0C:  117F  C$usb.c$92$1$1                   
       0C:  1182  A$usb$1012                       
       0C:  1183  A$usb$1013                       
       0C:  1184  A$usb$1014                       
       0C:  1186  A$usb$1017                       
       0C:  1186  C$usb.c$94$2$3                   
       0C:  1189  A$usb$1020                       
       0C:  1189  C$usb.c$95$2$3                   
       0C:  118C  A$usb$1023                       
       0C:  118C  C$usb.c$96$2$3                   
       0C:  118D  A$usb$1026                       
       0C:  118D  C$usb.c$97$2$3                   
       0C:  118E  A$usb$1029                       
       0C:  118E  C$usb.c$98$2$3                   
       0C:  118F  A$usb$1032                       
       0C:  118F  C$usb.c$99$2$3                   
       0C:  1190  A$usb$1035                       
ASxxxx Linker V02.00 + NoICE + sdld,  page 141.
Hexadecimal

Area                               Addr   Size   Decimal Bytes (Attributes)
--------------------------------   ----   ----   ------- ----- ------------
CSEG                               051D   157D =   5501. bytes (REL,CON,CODE)

      Value  Global                              Global Defined In Module
      -----  ---------------------------------   ------------------------
       0C:  1190  C$usb.c$100$2$3                  
       0C:  1193  A$usb$1036                       
       0C:  1195  A$usb$1037                       
       0C:  1196  A$usb$1040                       
       0C:  1196  C$usb.c$102$2$3                  
       0C:  1199  A$usb$1044                       
       0C:  1199  C$usb.c$105$1$1                  
       0C:  119C  A$usb$1045                       
       0C:  119D  A$usb$1046                       
       0C:  119E  A$usb$1049                       
       0C:  119E  C$usb.c$106$1$1                  
       0C:  11A1  A$usb$1050                       
       0C:  11A2  A$usb$1051                       
       0C:  11A3  A$usb$1054                       
       0C:  11A3  C$usb.c$108$1$1                  
       0C:  11A4  A$usb$1055                       
       0C:  11A7  A$usb$1058                       
       0C:  11A7  C$usb.c$113$2$4                  
       0C:  11A9  A$usb$1062                       
       0C:  11A9  C$usb.c$116$1$1                  
       0C:  11AA  A$usb$1063                       
       0C:  11AD  A$usb$1066                       
       0C:  11AD  C$usb.c$119$2$5                  
       0C:  11B0  A$usb$1067                       
       0C:  11B2  A$usb$1068                       
       0C:  11B3  A$usb$1071                       
       0C:  11B3  C$usb.c$120$2$5                  
       0C:  11B6  A$usb$1072                       
       0C:  11B7  A$usb$1073                       
       0C:  11B8  A$usb$1076                       
       0C:  11B8  C$usb.c$122$2$5                  
       0C:  11BA  A$usb$1077                       
       0C:  11BC  A$usb$1078                       
       0C:  11BF  A$usb$1079                       
       0C:  11C1  A$usb$1080                       
       0C:  11C3  A$usb$1084                       
       0C:  11C3  C$usb.c$125$1$1                  
       0C:  11C4  A$usb$1085                       
       0C:  11C7  A$usb$1088                       
       0C:  11C7  C$usb.c$127$2$6                  
       0C:  11C9  A$usb$1092                       
       0C:  11C9  C$usb.c$130$1$1                  
       0C:  11CA  A$usb$1093                       
       0C:  11CD  A$usb$1094                       
       0C:  11CE  A$usb$1098                       
       0C:  11CE  C$usb.c$134$2$7                  
       0C:  11D1  A$usb$1099                       
       0C:  11D2  A$usb$1100                       
       0C:  11D3  A$usb$1103                       
       0C:  11D3  C$usb.c$135$2$7                  
       0C:  11D6  A$usb$1104                       
ASxxxx Linker V02.00 + NoICE + sdld,  page 142.
Hexadecimal

Area                               Addr   Size   Decimal Bytes (Attributes)
--------------------------------   ----   ----   ------- ----- ------------
CSEG                               051D   157D =   5501. bytes (REL,CON,CODE)

      Value  Global                              Global Defined In Module
      -----  ---------------------------------   ------------------------
       0C:  11D7  A$usb$1105                       
       0C:  11D8  A$usb$1108                       
       0C:  11D8  C$usb.c$137$2$7                  
       0C:  11DA  A$usb$1111                       
       0C:  11DA  C$usb.c$139$2$7                  
       0C:  11DB  A$usb$1112                       
       0C:  11DE  A$usb$1115                       
       0C:  11DE  C$usb.c$142$3$8                  
       0C:  11E1  A$usb$1116                       
       0C:  11E3  A$usb$1117                       
       0C:  11E4  A$usb$1120                       
       0C:  11E4  C$usb.c$143$3$8                  
       0C:  11E7  A$usb$1121                       
       0C:  11E8  A$usb$1122                       
       0C:  11E9  A$usb$1126                       
       0C:  11E9  C$usb.c$146$2$7                  
       0C:  11EA  A$usb$1127                       
       0C:  11ED  A$usb$1130                       
       0C:  11ED  C$usb.c$149$3$9                  
       0C:  11F0  A$usb$1133                       
       0C:  11F0  C$usb.c$150$3$9                  
       0C:  11F1  A$usb$1134                       
       0C:  11F2  A$usb$1135                       
       0C:  11F5  A$usb$1136                       
       0C:  11F6  A$usb$1140                       
       0C:  11F6  C$usb.c$153$2$7                  
       0C:  11F7  A$usb$1141                       
       0C:  11FA  A$usb$1142                       
       0C:  11FD  A$usb$1146                       
       0C:  11FD  C$usb.c$158$3$10                 
       0C:  1200  A$usb$1147                       
       0C:  1201  A$usb$1148                       
       0C:  1202  A$usb$1149                       
       0C:  1205  A$usb$1150                       
       0C:  1207  A$usb$1152                       
       0C:  120A  A$usb$1156                       
       0C:  120A  C$usb.c$161$4$10                 
       0C:  120D  A$usb$1157                       
       0C:  120E  A$usb$1158                       
       0C:  120F  A$usb$1161                       
       0C:  120F  C$usb.c$162$4$11                 
       0C:  1212  A$usb$1162                       
       0C:  1213  A$usb$1163                       
       0C:  1214  A$usb$1164                       
       0C:  1215  A$usb$1165                       
       0C:  1216  A$usb$1166                       
       0C:  1217  A$usb$1167                       
       0C:  1219  A$usb$1168                       
       0C:  121B  A$usb$1169                       
       0C:  121C  A$usb$1170                       
       0C:  121D  A$usb$1171                       
ASxxxx Linker V02.00 + NoICE + sdld,  page 143.
Hexadecimal

Area                               Addr   Size   Decimal Bytes (Attributes)
--------------------------------   ----   ----   ------- ----- ------------
CSEG                               051D   157D =   5501. bytes (REL,CON,CODE)

      Value  Global                              Global Defined In Module
      -----  ---------------------------------   ------------------------
       0C:  121E  A$usb$1172                       
       0C:  121F  A$usb$1173                       
       0C:  1220  A$usb$1174                       
       0C:  1222  A$usb$1177                       
       0C:  1222  C$usb.c$164$5$12                 
       0C:  1224  A$usb$1181                       
       0C:  1224  C$usb.c$166$4$11                 
       0C:  1226  A$usb$1182                       
       0C:  1227  A$usb$1183                       
       0C:  1228  A$usb$1184                       
       0C:  122A  A$usb$1185                       
       0C:  122C  A$usb$1186                       
       0C:  122D  A$usb$1187                       
       0C:  122E  A$usb$1188                       
       0C:  122F  A$usb$1189                       
       0C:  1230  A$usb$1190                       
       0C:  1231  A$usb$1191                       
       0C:  1232  A$usb$1192                       
       0C:  1235  A$usb$1193                       
       0C:  1237  A$usb$1194                       
       0C:  1239  A$usb$1195                       
       0C:  123C  A$usb$1196                       
       0C:  123E  A$usb$1197                       
       0C:  1240  A$usb$1200                       
       0C:  1240  C$usb.c$167$4$11                 
       0C:  1242  A$usb$1201                       
       0C:  1243  A$usb$1202                       
       0C:  1244  A$usb$1203                       
       0C:  1245  A$usb$1204                       
       0C:  1246  A$usb$1205                       
       0C:  1247  A$usb$1206                       
       0C:  1249  A$usb$1207                       
       0C:  124A  A$usb$1210                       
       0C:  124A  C$usb.c$168$4$11                 
       0C:  124C  A$usb$1211                       
       0C:  124F  A$usb$1212                       
       0C:  1250  A$usb$1213                       
       0C:  1251  A$usb$1214                       
       0C:  1252  A$usb$1215                       
       0C:  1253  A$usb$1216                       
       0C:  1254  A$usb$1217                       
       0C:  1257  A$usb$1218                       
       0C:  1258  A$usb$1219                       
       0C:  1259  A$usb$1220                       
       0C:  125A  A$usb$1221                       
       0C:  125B  A$usb$1222                       
       0C:  125C  A$usb$1223                       
       0C:  125D  A$usb$1224                       
       0C:  125E  A$usb$1225                       
       0C:  125F  A$usb$1228                       
       0C:  125F  C$usb.c$170$4$11                 
ASxxxx Linker V02.00 + NoICE + sdld,  page 144.
Hexadecimal

Area                               Addr   Size   Decimal Bytes (Attributes)
--------------------------------   ----   ----   ------- ----- ------------
CSEG                               051D   157D =   5501. bytes (REL,CON,CODE)

      Value  Global                              Global Defined In Module
      -----  ---------------------------------   ------------------------
       0C:  1262  A$usb$1229                       
       0C:  1263  A$usb$1230                       
       0C:  1264  A$usb$1231                       
       0C:  1265  A$usb$1232                       
       0C:  1266  A$usb$1233                       
       0C:  1267  A$usb$1234                       
       0C:  1268  A$usb$1235                       
       0C:  126A  A$usb$1238                       
       0C:  126A  C$usb.c$173$5$13                 
       0C:  126D  A$usb$1239                       
       0C:  126F  A$usb$1240                       
       0C:  1270  A$usb$1241                       
       0C:  1273  A$usb$1245                       
       0C:  1273  C$usb.c$179$5$14                 
       0C:  1276  A$usb$1246                       
       0C:  1277  A$usb$1247                       
       0C:  1279  A$usb$1248                       
       0C:  127B  A$usb$1251                       
       0C:  127B  C$usb.c$181$6$15                 
       0C:  127D  A$usb$1252                       
       0C:  1280  A$usb$1253                       
       0C:  1282  A$usb$1257                       
       0C:  1282  C$usb.c$184$5$14                 
       0C:  1285  A$usb$1258                       
       0C:  1286  A$usb$1259                       
       0C:  1287  A$usb$1262                       
       0C:  1287  C$usb.c$186$5$14                 
       0C:  128A  A$usb$1263                       
       0C:  128B  A$usb$1264                       
       0C:  128C  A$usb$1265                       
       0C:  128E  A$usb$1268                       
       0C:  128E  C$usb.c$189$6$16                 
       0C:  1291  A$usb$1269                       
       0C:  1293  A$usb$1270                       
       0C:  1294  A$usb$1271                       
       0C:  1297  A$usb$1275                       
       0C:  1297  C$usb.c$194$6$17                 
       0C:  129A  A$usb$1276                       
       0C:  129C  A$usb$1277                       
       0C:  129D  A$usb$1280                       
       0C:  129D  C$usb.c$195$6$17                 
       0C:  12A0  A$usb$1281                       
       0C:  12A1  A$usb$1282                       
       0C:  12A2  A$usb$1283                       
       0C:  12A5  A$usb$1287                       
       0C:  12A5  C$usb.c$199$3$10                 
       0C:  12A8  A$usb$1288                       
       0C:  12A9  A$usb$1289                       
       0C:  12AA  A$usb$1290                       
       0C:  12AD  A$usb$1293                       
       0C:  12AD  C$usb.c$204$4$18                 
ASxxxx Linker V02.00 + NoICE + sdld,  page 145.
Hexadecimal

Area                               Addr   Size   Decimal Bytes (Attributes)
--------------------------------   ----   ----   ------- ----- ------------
CSEG                               051D   157D =   5501. bytes (REL,CON,CODE)

      Value  Global                              Global Defined In Module
      -----  ---------------------------------   ------------------------
       0C:  12AF  A$usb$1294                       
       0C:  12B1  A$usb$1295                       
       0C:  12B2  A$usb$1296                       
       0C:  12B4  A$usb$1297                       
       0C:  12B6  A$usb$1298                       
       0C:  12B7  A$usb$1299                       
       0C:  12B8  A$usb$1300                       
       0C:  12BA  A$usb$1301                       
       0C:  12BB  A$usb$1302                       
       0C:  12BE  A$usb$1303                       
       0C:  12C0  A$usb$1304                       
       0C:  12C3  A$usb$1305                       
       0C:  12C5  A$usb$1308                       
       0C:  12C5  C$usb.c$207$4$18                 
       0C:  12C8  A$usb$1309                       
       0C:  12C9  A$usb$1310                       
       0C:  12CA  A$usb$1313                       
       0C:  12CA  C$usb.c$209$4$18                 
       0C:  12CD  A$usb$1314                       
       0C:  12CE  A$usb$1315                       
       0C:  12D0  A$usb$1316                       
       0C:  12D2  A$usb$1319                       
       0C:  12D2  C$usb.c$214$5$19                 
       0C:  12D4  A$usb$1320                       
       0C:  12D7  A$usb$1321                       
       0C:  12D9  A$usb$1322                       
       0C:  12DB  A$usb$1326                       
       0C:  12DB  C$usb.c$221$5$20                 
       0C:  12DD  A$usb$1327                       
       0C:  12E0  A$usb$1328                       
       0C:  12E2  A$usb$1332                       
       0C:  12E2  C$usb.c$224$4$18                 
       0C:  12E5  A$usb$1333                       
       0C:  12E6  A$usb$1334                       
       0C:  12E7  A$usb$1337                       
       0C:  12E7  C$usb.c$227$4$18                 
       0C:  12EA  A$usb$1338                       
       0C:  12EB  A$usb$1339                       
       0C:  12EC  A$usb$1340                       
       0C:  12EE  A$usb$1343                       
       0C:  12EE  C$usb.c$230$5$21                 
       0C:  12F1  A$usb$1344                       
       0C:  12F3  A$usb$1345                       
       0C:  12F4  A$usb$1346                       
       0C:  12F6  A$usb$1350                       
       0C:  12F6  C$usb.c$232$4$18                 
       0C:  12F9  A$usb$1353                       
       0C:  12F9  C$usb.c$234$5$22                 
       0C:  12FC  A$usb$1354                       
       0C:  12FD  A$usb$1355                       
       0C:  12FE  A$usb$1356                       
ASxxxx Linker V02.00 + NoICE + sdld,  page 146.
Hexadecimal

Area                               Addr   Size   Decimal Bytes (Attributes)
--------------------------------   ----   ----   ------- ----- ------------
CSEG                               051D   157D =   5501. bytes (REL,CON,CODE)

      Value  Global                              Global Defined In Module
      -----  ---------------------------------   ------------------------
       0C:  12FF  A$usb$1357                       
       0C:  1300  A$usb$1358                       
       0C:  1301  A$usb$1359                       
       0C:  1302  A$usb$1360                       
       0C:  1304  A$usb$1363                       
       0C:  1304  C$usb.c$237$6$23                 
       0C:  1307  A$usb$1364                       
       0C:  1309  A$usb$1365                       
       0C:  130A  A$usb$1366                       
       0C:  130C  A$usb$1370                       
       0C:  130C  C$usb.c$242$6$24                 
       0C:  130F  A$usb$1371                       
       0C:  1311  A$usb$1372                       
       0C:  1312  A$usb$1375                       
       0C:  1312  C$usb.c$243$6$24                 
       0C:  1315  A$usb$1376                       
       0C:  1316  A$usb$1377                       
       0C:  1317  A$usb$1378                       
       0C:  1319  A$usb$1382                       
       0C:  1319  C$usb.c$252$4$25                 
       0C:  131C  A$usb$1383                       
       0C:  131E  A$usb$1384                       
       0C:  131F  A$usb$1388                       
       0C:  131F  C$usb.c$256$2$7                  
       0C:  1320  A$usb$1389                       
       0C:  1323  A$usb$1390                       
       0C:  1326  A$usb$1391                       
       0C:  1327  A$usb$1392                       
       0C:  1328  A$usb$1393                       
       0C:  132B  A$usb$1396                       
       0C:  132B  C$usb.c$261$3$26                 
       0C:  132E  A$usb$1397                       
       0C:  132F  A$usb$1398                       
       0C:  1330  A$usb$1399                       
       0C:  1331  A$usb$1400                       
       0C:  1332  A$usb$1401                       
       0C:  1333  A$usb$1402                       
       0C:  1334  A$usb$1403                       
       0C:  1335  A$usb$1404                       
       0C:  1337  A$usb$1405                       
       0C:  1338  A$usb$1406                       
       0C:  133A  A$usb$1407                       
       0C:  133C  A$usb$1410                       
       0C:  133C  C$usb.c$264$4$27                 
       0C:  133E  A$usb$1415                       
       0C:  133E  C$usb.c$265$4$27                 
       0C:  133E  C$usb.c$266$4$27                 
       0C:  1341  A$usb$1416                       
       0C:  1342  A$usb$1417                       
       0C:  1343  A$usb$1418                       
       0C:  1345  A$usb$1422                       
ASxxxx Linker V02.00 + NoICE + sdld,  page 147.
Hexadecimal

Area                               Addr   Size   Decimal Bytes (Attributes)
--------------------------------   ----   ----   ------- ----- ------------
CSEG                               051D   157D =   5501. bytes (REL,CON,CODE)

      Value  Global                              Global Defined In Module
      -----  ---------------------------------   ------------------------
       0C:  1345  C$usb.c$271$4$28                 
       0C:  1347  A$usb$1425                       
       0C:  1347  C$usb.c$272$4$28                 
       0C:  1349  A$usb$1429                       
       0C:  1349  C$usb.c$276$3$26                 
       0C:  134B  A$usb$1430                       
       0C:  134C  A$usb$1431                       
       0C:  134D  A$usb$1432                       
       0C:  134F  A$usb$1433                       
       0C:  1351  A$usb$1434                       
       0C:  1352  A$usb$1435                       
       0C:  1353  A$usb$1436                       
       0C:  1354  A$usb$1437                       
       0C:  1355  A$usb$1438                       
       0C:  1356  A$usb$1439                       
       0C:  1357  A$usb$1440                       
       0C:  135A  A$usb$1441                       
       0C:  135C  A$usb$1442                       
       0C:  135E  A$usb$1443                       
       0C:  1361  A$usb$1444                       
       0C:  1363  A$usb$1445                       
       0C:  1365  A$usb$1448                       
       0C:  1365  C$usb.c$277$3$26                 
       0C:  1368  A$usb$1449                       
       0C:  1369  A$usb$1450                       
       0C:  136A  A$usb$1453                       
       0C:  136A  C$usb.c$280$3$26                 
       0C:  136C  A$usb$1454                       
       0C:  136D  A$usb$1455                       
       0C:  136E  A$usb$1456                       
       0C:  136F  A$usb$1457                       
       0C:  1370  A$usb$1458                       
       0C:  1371  A$usb$1459                       
       0C:  1373  A$usb$1460                       
       0C:  1374  A$usb$1463                       
       0C:  1374  C$usb.c$281$3$26                 
       0C:  1376  A$usb$1464                       
       0C:  1379  A$usb$1465                       
       0C:  137A  A$usb$1466                       
       0C:  137B  A$usb$1467                       
       0C:  137C  A$usb$1468                       
       0C:  137D  A$usb$1469                       
       0C:  137E  A$usb$1470                       
       0C:  1381  A$usb$1471                       
       0C:  1382  A$usb$1472                       
       0C:  1383  A$usb$1473                       
       0C:  1384  A$usb$1474                       
       0C:  1385  A$usb$1475                       
       0C:  1386  A$usb$1476                       
       0C:  1387  A$usb$1477                       
       0C:  1388  A$usb$1478                       
ASxxxx Linker V02.00 + NoICE + sdld,  page 148.
Hexadecimal

Area                               Addr   Size   Decimal Bytes (Attributes)
--------------------------------   ----   ----   ------- ----- ------------
CSEG                               051D   157D =   5501. bytes (REL,CON,CODE)

      Value  Global                              Global Defined In Module
      -----  ---------------------------------   ------------------------
       0C:  1389  A$usb$1482                       
       0C:  1389  C$usb.c$284$1$1                  
       0C:  1389  XG$usbPoll$0$0                   
       0C:  138A  A$usb$1497                       
       0C:  138A  C$usb.c$291$1$1                  
       0C:  138A  C$usb.c$295$1$1                  
       0C:  138A  Fusb$usbStandardDeviceRequestHand
       0C:  138A  _usbStandardDeviceRequestHandler 
       0C:  138D  A$usb$1500                       
       0C:  138D  C$usb.c$296$1$1                  
       0C:  138E  A$usb$1501                       
       0C:  138F  A$usb$1502                       
       0C:  1392  A$usb$1503                       
       0C:  1393  A$usb$1506                       
       0C:  1393  C$usb.c$309$1$1                  
       0C:  1396  A$usb$1507                       
       0C:  1397  A$usb$1508                       
       0C:  1398  A$usb$1509                       
       0C:  139A  A$usb$1510                       
       0C:  139D  A$usb$1512                       
       0C:  139F  A$usb$1513                       
       0C:  13A0  A$usb$1515                       
       0C:  13A1  A$usb$1516                       
       0C:  13A2  A$usb$1517                       
       0C:  13A3  A$usb$1518                       
       0C:  13A6  A$usb$1519                       
       0C:  13A7  A$usb$1521                       
       0C:  13AA  A$usb$1522                       
       0C:  13AD  A$usb$1523                       
       0C:  13B0  A$usb$1524                       
       0C:  13B3  A$usb$1525                       
       0C:  13B6  A$usb$1526                       
       0C:  13B9  A$usb$1527                       
       0C:  13BC  A$usb$1528                       
       0C:  13BF  A$usb$1529                       
       0C:  13C2  A$usb$1530                       
       0C:  13C5  A$usb$1531                       
       0C:  13C8  A$usb$1532                       
       0C:  13CB  A$usb$1533                       
       0C:  13CE  A$usb$1539                       
       0C:  13CE  C$usb.c$311$2$2                  
       0C:  13CE  C$usb.c$313$3$3                  
       0C:  13D1  A$usb$1540                       
       0C:  13D2  A$usb$1541                       
       0C:  13D3  A$usb$1542                       
       0C:  13D4  A$usb$1543                       
       0C:  13D5  A$usb$1544                       
       0C:  13D6  A$usb$1545                       
       0C:  13D7  A$usb$1546                       
       0C:  13D9  A$usb$1547                       
       0C:  13DC  A$usb$1548                       
ASxxxx Linker V02.00 + NoICE + sdld,  page 149.
Hexadecimal

Area                               Addr   Size   Decimal Bytes (Attributes)
--------------------------------   ----   ----   ------- ----- ------------
CSEG                               051D   157D =   5501. bytes (REL,CON,CODE)

      Value  Global                              Global Defined In Module
      -----  ---------------------------------   ------------------------
       0C:  13DF  A$usb$1549                       
       0C:  13E1  A$usb$1551                       
       0C:  13E4  A$usb$1552                       
       0C:  13E7  A$usb$1553                       
       0C:  13E9  A$usb$1555                       
       0C:  13EC  A$usb$1556                       
       0C:  13EF  A$usb$1557                       
       0C:  13F1  A$usb$1559                       
       0C:  13F4  A$usb$1565                       
       0C:  13F4  C$usb.c$315$4$4                  
       0C:  13F4  C$usb.c$317$5$5                  
       0C:  13F6  A$usb$1566                       
       0C:  13F8  A$usb$1567                       
       0C:  13F9  A$usb$1568                       
       0C:  13FA  A$usb$1569                       
       0C:  13FC  A$usb$1570                       
       0C:  13FD  A$usb$1573                       
       0C:  13FD  C$usb.c$318$5$5                  
       0C:  1400  A$usb$1574                       
       0C:  1402  A$usb$1575                       
       0C:  1403  A$usb$1576                       
       0C:  1404  A$usb$1577                       
       0C:  1405  A$usb$1578                       
       0C:  1406  A$usb$1581                       
       0C:  1406  C$usb.c$319$5$5                  
       0C:  1409  A$usb$1587                       
       0C:  1409  C$usb.c$321$4$4                  
       0C:  1409  C$usb.c$323$5$6                  
       0C:  140A  A$usb$1588                       
       0C:  140C  A$usb$1591                       
       0C:  140C  C$usb.c$326$6$7                  
       0C:  140D  A$usb$1595                       
       0C:  140D  C$usb.c$331$5$6                  
       0C:  140F  A$usb$1596                       
       0C:  1411  A$usb$1597                       
       0C:  1412  A$usb$1598                       
       0C:  1413  A$usb$1599                       
       0C:  1415  A$usb$1600                       
       0C:  1416  A$usb$1603                       
       0C:  1416  C$usb.c$332$5$6                  
       0C:  1419  A$usb$1604                       
       0C:  141A  A$usb$1605                       
       0C:  141B  A$usb$1606                       
       0C:  141C  A$usb$1607                       
       0C:  141D  A$usb$1608                       
       0C:  141E  A$usb$1609                       
       0C:  141F  A$usb$1610                       
       0C:  1420  A$usb$1611                       
       0C:  1423  A$usb$1612                       
       0C:  1424  A$usb$1613                       
       0C:  1425  A$usb$1614                       
ASxxxx Linker V02.00 + NoICE + sdld,  page 150.
Hexadecimal

Area                               Addr   Size   Decimal Bytes (Attributes)
--------------------------------   ----   ----   ------- ----- ------------
CSEG                               051D   157D =   5501. bytes (REL,CON,CODE)

      Value  Global                              Global Defined In Module
      -----  ---------------------------------   ------------------------
       0C:  1426  A$usb$1615                       
       0C:  1427  A$usb$1616                       
       0C:  1428  A$usb$1621                       
       0C:  1428  C$usb.c$333$5$6                  
       0C:  1428  C$usb.c$335$4$4                  
       0C:  142A  A$usb$1625                       
       0C:  142A  C$usb.c$337$5$8                  
       0C:  142C  A$usb$1626                       
       0C:  142E  A$usb$1627                       
       0C:  1431  A$usb$1628                       
       0C:  1432  A$usb$1629                       
       0C:  1433  A$usb$1630                       
       0C:  1434  A$usb$1631                       
       0C:  1436  A$usb$1632                       
       0C:  1437  A$usb$1633                       
       0C:  1438  A$usb$1634                       
       0C:  1439  A$usb$1635                       
       0C:  143A  A$usb$1636                       
       0C:  143B  A$usb$1637                       
       0C:  143D  A$usb$1640                       
       0C:  143D  C$usb.c$340$6$9                  
       0C:  143E  A$usb$1644                       
       0C:  143E  C$usb.c$343$5$8                  
       0C:  143F  A$usb$1645                       
       0C:  1440  A$usb$1646                       
       0C:  1442  A$usb$1647                       
       0C:  1443  A$usb$1648                       
       0C:  1444  A$usb$1649                       
       0C:  1445  A$usb$1650                       
       0C:  1446  A$usb$1651                       
       0C:  1448  A$usb$1652                       
       0C:  144A  A$usb$1653                       
       0C:  144B  A$usb$1654                       
       0C:  144D  A$usb$1655                       
       0C:  144F  A$usb$1656                       
       0C:  1450  A$usb$1657                       
       0C:  1451  A$usb$1658                       
       0C:  1452  A$usb$1659                       
       0C:  1453  A$usb$1660                       
       0C:  1454  A$usb$1661                       
       0C:  1455  A$usb$1662                       
       0C:  1456  A$usb$1663                       
       0C:  1458  A$usb$1664                       
       0C:  1459  A$usb$1665                       
       0C:  145A  A$usb$1666                       
       0C:  145B  A$usb$1667                       
       0C:  145C  A$usb$1668                       
       0C:  145D  A$usb$1671                       
       0C:  145D  C$usb.c$344$5$8                  
       0C:  145F  A$usb$1672                       
       0C:  1461  A$usb$1673                       
ASxxxx Linker V02.00 + NoICE + sdld,  page 151.
Hexadecimal

Area                               Addr   Size   Decimal Bytes (Attributes)
--------------------------------   ----   ----   ------- ----- ------------
CSEG                               051D   157D =   5501. bytes (REL,CON,CODE)

      Value  Global                              Global Defined In Module
      -----  ---------------------------------   ------------------------
       0C:  1462  A$usb$1674                       
       0C:  1463  A$usb$1675                       
       0C:  1466  A$usb$1676                       
       0C:  1467  A$usb$1677                       
       0C:  1468  A$usb$1678                       
       0C:  1469  A$usb$1679                       
       0C:  146A  A$usb$1684                       
       0C:  146A  C$usb.c$345$5$8                  
       0C:  146A  C$usb.c$347$4$4                  
       0C:  146C  A$usb$1688                       
       0C:  146C  C$usb.c$350$5$10                 
       0C:  146F  A$usb$1691                       
       0C:  146F  C$usb.c$352$5$10                 
       0C:  1472  A$usb$1692                       
       0C:  1473  A$usb$1693                       
       0C:  1474  A$usb$1694                       
       0C:  1476  A$usb$1697                       
       0C:  1476  C$usb.c$355$6$11                 
       0C:  1477  A$usb$1703                       
       0C:  1477  C$usb.c$359$3$3                  
       0C:  1477  C$usb.c$364$3$3                  
       0C:  147A  A$usb$1704                       
       0C:  147B  A$usb$1705                       
       0C:  147C  A$usb$1706                       
       0C:  147D  A$usb$1707                       
       0C:  147E  A$usb$1708                       
       0C:  147F  A$usb$1709                       
       0C:  1482  A$usb$1710                       
       0C:  1483  A$usb$1711                       
       0C:  1484  A$usb$1712                       
       0C:  1485  A$usb$1713                       
       0C:  1486  A$usb$1714                       
       0C:  1487  A$usb$1715                       
       0C:  1488  A$usb$1716                       
       0C:  1489  A$usb$1717                       
       0C:  148A  A$usb$1718                       
       0C:  148B  A$usb$1719                       
       0C:  148C  A$usb$1720                       
       0C:  148E  A$usb$1723                       
       0C:  148E  C$usb.c$366$4$12                 
       0C:  1491  A$usb$1724                       
       0C:  1492  A$usb$1725                       
       0C:  1493  A$usb$1726                       
       0C:  1494  A$usb$1727                       
       0C:  1495  A$usb$1728                       
       0C:  1496  A$usb$1732                       
       0C:  1496  C$usb.c$369$3$3                  
       0C:  1499  A$usb$1733                       
       0C:  149B  A$usb$1734                       
       0C:  149C  A$usb$1737                       
       0C:  149C  C$usb.c$370$3$3                  
ASxxxx Linker V02.00 + NoICE + sdld,  page 152.
Hexadecimal

Area                               Addr   Size   Decimal Bytes (Attributes)
--------------------------------   ----   ----   ------- ----- ------------
CSEG                               051D   157D =   5501. bytes (REL,CON,CODE)

      Value  Global                              Global Defined In Module
      -----  ---------------------------------   ------------------------
       0C:  149D  A$usb$1743                       
       0C:  149D  C$usb.c$372$2$2                  
       0C:  149D  C$usb.c$379$3$13                 
       0C:  14A0  A$usb$1744                       
       0C:  14A1  A$usb$1745                       
       0C:  14A2  A$usb$1746                       
       0C:  14A3  A$usb$1747                       
       0C:  14A4  A$usb$1748                       
       0C:  14A5  A$usb$1749                       
       0C:  14A8  A$usb$1750                       
       0C:  14A9  A$usb$1751                       
       0C:  14AA  A$usb$1754                       
       0C:  14AA  C$usb.c$380$3$13                 
       0C:  14AB  A$usb$1755                       
       0C:  14AD  A$usb$1756                       
       0C:  14AF  A$usb$1757                       
       0C:  14B1  A$usb$1759                       
       0C:  14B3  A$usb$1761                       
       0C:  14B6  A$usb$1762                       
       0C:  14B7  A$usb$1763                       
       0C:  14B8  A$usb$1768                       
       0C:  14B8  C$usb.c$383$3$13                 
       0C:  14B8  C$usb.c$384$3$13                 
       0C:  14BB  A$usb$1774                       
       0C:  14BB  C$usb.c$386$2$2                  
       0C:  14BB  C$usb.c$389$3$14                 
       0C:  14BE  A$usb$1775                       
       0C:  14BF  A$usb$1776                       
       0C:  14C0  A$usb$1777                       
       0C:  14C1  A$usb$1778                       
       0C:  14C2  A$usb$1779                       
       0C:  14C3  A$usb$1780                       
       0C:  14C6  A$usb$1781                       
       0C:  14C9  A$usb$1782                       
       0C:  14CB  A$usb$1786                       
       0C:  14CB  C$usb.c$391$4$15                 
       0C:  14CE  A$usb$1787                       
       0C:  14D1  A$usb$1788                       
       0C:  14D3  A$usb$1792                       
       0C:  14D3  C$usb.c$397$5$16                 
       0C:  14D6  A$usb$1793                       
       0C:  14D7  A$usb$1794                       
       0C:  14D8  A$usb$1795                       
       0C:  14DA  A$usb$1796                       
       0C:  14DD  A$usb$1798                       
       0C:  14DF  A$usb$1801                       
       0C:  14DF  C$usb.c$399$6$17                 
       0C:  14E2  A$usb$1802                       
       0C:  14E4  A$usb$1803                       
       0C:  14E5  A$usb$1808                       
       0C:  14E5  C$usb.c$401$5$16                 
ASxxxx Linker V02.00 + NoICE + sdld,  page 153.
Hexadecimal

Area                               Addr   Size   Decimal Bytes (Attributes)
--------------------------------   ----   ----   ------- ----- ------------
CSEG                               051D   157D =   5501. bytes (REL,CON,CODE)

      Value  Global                              Global Defined In Module
      -----  ---------------------------------   ------------------------
       0C:  14E5  C$usb.c$403$4$15                 
       0C:  14E7  A$usb$1812                       
       0C:  14E7  C$usb.c$408$5$18                 
       0C:  14EA  A$usb$1813                       
       0C:  14EC  A$usb$1814                       
       0C:  14ED  A$usb$1817                       
       0C:  14ED  C$usb.c$409$5$18                 
       0C:  14F0  A$usb$1822                       
       0C:  14F0  C$usb.c$410$5$18                 
       0C:  14F0  C$usb.c$412$4$15                 
       0C:  14F2  A$usb$1826                       
       0C:  14F2  C$usb.c$415$5$19                 
       0C:  14F3  A$usb$1834                       
       0C:  14F3  C$usb.c$417$3$14                 
       0C:  14F3  C$usb.c$420$3$14                 
       0C:  14F3  C$usb.c$421$3$14                 
       0C:  14F6  A$usb$1840                       
       0C:  14F6  C$usb.c$423$2$2                  
       0C:  14F6  C$usb.c$426$3$20                 
       0C:  14F9  A$usb$1841                       
       0C:  14FA  A$usb$1842                       
       0C:  14FB  A$usb$1843                       
       0C:  14FE  A$usb$1844                       
       0C:  1500  A$usb$1845                       
       0C:  1502  A$usb$1847                       
       0C:  1504  A$usb$1849                       
       0C:  1507  A$usb$1850                       
       0C:  1508  A$usb$1851                       
       0C:  1509  A$usb$1854                       
       0C:  1509  C$usb.c$427$3$20                 
       0C:  150B  A$usb$1855                       
       0C:  150D  A$usb$1856                       
       0C:  150E  A$usb$1857                       
       0C:  150F  A$usb$1858                       
       0C:  1511  A$usb$1859                       
       0C:  1512  A$usb$1860                       
       0C:  1515  A$usb$1863                       
       0C:  1515  C$usb.c$428$3$20                 
       0C:  1518  A$usb$1869                       
       0C:  1518  C$usb.c$430$2$2                  
       0C:  1518  C$usb.c$437$3$21                 
       0C:  151B  A$usb$1870                       
       0C:  151C  A$usb$1871                       
       0C:  151D  A$usb$1872                       
       0C:  1520  A$usb$1874                       
       0C:  1522  A$usb$1877                       
       0C:  1522  C$usb.c$440$4$22                 
       0C:  1523  A$usb$1881                       
       0C:  1523  C$usb.c$443$3$21                 
       0C:  1526  A$usb$1882                       
       0C:  1527  A$usb$1883                       
ASxxxx Linker V02.00 + NoICE + sdld,  page 154.
Hexadecimal

Area                               Addr   Size   Decimal Bytes (Attributes)
--------------------------------   ----   ----   ------- ----- ------------
CSEG                               051D   157D =   5501. bytes (REL,CON,CODE)

      Value  Global                              Global Defined In Module
      -----  ---------------------------------   ------------------------
       0C:  1528  A$usb$1884                       
       0C:  1529  A$usb$1885                       
       0C:  152A  A$usb$1886                       
       0C:  152B  A$usb$1887                       
       0C:  152D  A$usb$1888                       
       0C:  152F  A$usb$1889                       
       0C:  1531  A$usb$1890                       
       0C:  1533  A$usb$1891                       
       0C:  1534  A$usb$1892                       
       0C:  1535  A$usb$1893                       
       0C:  1536  A$usb$1894                       
       0C:  1537  A$usb$1895                       
       0C:  1538  A$usb$1896                       
       0C:  1539  A$usb$1897                       
       0C:  153A  A$usb$1898                       
       0C:  153C  A$usb$1899                       
       0C:  153D  A$usb$1900                       
       0C:  153E  A$usb$1901                       
       0C:  153F  A$usb$1902                       
       0C:  1540  A$usb$1903                       
       0C:  1541  A$usb$1904                       
       0C:  1543  A$usb$1907                       
       0C:  1543  C$usb.c$446$4$23                 
       0C:  1544  A$usb$1911                       
       0C:  1544  C$usb.c$451$3$21                 
       0C:  1546  A$usb$1912                       
       0C:  1548  A$usb$1913                       
       0C:  1549  A$usb$1914                       
       0C:  154A  A$usb$1915                       
       0C:  154C  A$usb$1916                       
       0C:  154D  A$usb$1917                       
       0C:  1550  A$usb$1920                       
       0C:  1550  C$usb.c$452$3$21                 
       0C:  1553  A$usb$1926                       
       0C:  1553  C$usb.c$454$2$2                  
       0C:  1553  C$usb.c$456$3$24                 
       0C:  1556  A$usb$1927                       
       0C:  1557  A$usb$1928                       
       0C:  1559  A$usb$1929                       
       0C:  155A  A$usb$1930                       
       0C:  155C  A$usb$1931                       
       0C:  155F  A$usb$1932                       
       0C:  1562  A$usb$1933                       
       0C:  1564  A$usb$1935                       
       0C:  1567  A$usb$1936                       
       0C:  156A  A$usb$1937                       
       0C:  156C  A$usb$1939                       
       0C:  156F  A$usb$1940                       
       0C:  1572  A$usb$1941                       
       0C:  1575  A$usb$1943                       
       0C:  1578  A$usb$1949                       
ASxxxx Linker V02.00 + NoICE + sdld,  page 155.
Hexadecimal

Area                               Addr   Size   Decimal Bytes (Attributes)
--------------------------------   ----   ----   ------- ----- ------------
CSEG                               051D   157D =   5501. bytes (REL,CON,CODE)

      Value  Global                              Global Defined In Module
      -----  ---------------------------------   ------------------------
       0C:  1578  C$usb.c$458$4$25                 
       0C:  1578  C$usb.c$461$5$26                 
       0C:  157B  A$usb$1950                       
       0C:  157D  A$usb$1951                       
       0C:  157F  A$usb$1952                       
       0C:  1581  A$usb$1954                       
       0C:  1583  A$usb$1956                       
       0C:  1586  A$usb$1957                       
       0C:  1587  A$usb$1958                       
       0C:  1588  A$usb$1961                       
       0C:  1588  C$usb.c$463$5$26                 
       0C:  158A  A$usb$1962                       
       0C:  158C  A$usb$1963                       
       0C:  158D  A$usb$1964                       
       0C:  158E  A$usb$1965                       
       0C:  1590  A$usb$1966                       
       0C:  1591  A$usb$1967                       
       0C:  1594  A$usb$1970                       
       0C:  1594  C$usb.c$464$5$26                 
       0C:  1597  A$usb$1976                       
       0C:  1597  C$usb.c$466$4$25                 
       0C:  1597  C$usb.c$468$5$27                 
       0C:  159A  A$usb$1977                       
       0C:  159B  A$usb$1978                       
       0C:  159C  A$usb$1979                       
       0C:  159F  A$usb$1981                       
       0C:  15A1  A$usb$1982                       
       0C:  15A4  A$usb$1983                       
       0C:  15A5  A$usb$1984                       
       0C:  15A6  A$usb$1985                       
       0C:  15A7  A$usb$1986                       
       0C:  15A8  A$usb$1987                       
       0C:  15A9  A$usb$1988                       
       0C:  15AA  A$usb$1989                       
       0C:  15AC  A$usb$1992                       
       0C:  15AC  C$usb.c$472$6$28                 
       0C:  15AD  A$usb$1996                       
       0C:  15AD  C$usb.c$475$5$27                 
       0C:  15B0  A$usb$1997                       
       0C:  15B1  A$usb$1998                       
       0C:  15B2  A$usb$1999                       
       0C:  15B3  A$usb$2000                       
       0C:  15B4  A$usb$2001                       
       0C:  15B5  A$usb$2002                       
       0C:  15B7  A$usb$2003                       
       0C:  15B9  A$usb$2004                       
       0C:  15BB  A$usb$2005                       
       0C:  15BD  A$usb$2006                       
       0C:  15BE  A$usb$2007                       
       0C:  15BF  A$usb$2008                       
       0C:  15C0  A$usb$2009                       
ASxxxx Linker V02.00 + NoICE + sdld,  page 156.
Hexadecimal

Area                               Addr   Size   Decimal Bytes (Attributes)
--------------------------------   ----   ----   ------- ----- ------------
CSEG                               051D   157D =   5501. bytes (REL,CON,CODE)

      Value  Global                              Global Defined In Module
      -----  ---------------------------------   ------------------------
       0C:  15C1  A$usb$2010                       
       0C:  15C2  A$usb$2011                       
       0C:  15C3  A$usb$2012                       
       0C:  15C4  A$usb$2013                       
       0C:  15C6  A$usb$2014                       
       0C:  15C7  A$usb$2015                       
       0C:  15C8  A$usb$2016                       
       0C:  15C9  A$usb$2017                       
       0C:  15CA  A$usb$2018                       
       0C:  15CB  A$usb$2019                       
       0C:  15CD  A$usb$2022                       
       0C:  15CD  C$usb.c$478$6$29                 
       0C:  15CE  A$usb$2026                       
       0C:  15CE  C$usb.c$483$5$27                 
       0C:  15D0  A$usb$2027                       
       0C:  15D2  A$usb$2028                       
       0C:  15D3  A$usb$2029                       
       0C:  15D4  A$usb$2030                       
       0C:  15D6  A$usb$2031                       
       0C:  15D7  A$usb$2032                       
       0C:  15DA  A$usb$2037                       
       0C:  15DA  C$usb.c$484$5$27                 
       0C:  15DA  C$usb.c$486$4$25                 
       0C:  15DD  A$usb$2041                       
       0C:  15DD  C$usb.c$488$5$30                 
       0C:  15E0  A$usb$2042                       
       0C:  15E1  A$usb$2043                       
       0C:  15E2  A$usb$2044                       
       0C:  15E3  A$usb$2045                       
       0C:  15E4  A$usb$2046                       
       0C:  15E5  A$usb$2047                       
       0C:  15E6  A$usb$2048                       
       0C:  15E8  A$usb$2049                       
       0C:  15EA  A$usb$2050                       
       0C:  15EC  A$usb$2054                       
       0C:  15EC  C$usb.c$492$6$31                 
       0C:  15ED  A$usb$2058                       
       0C:  15ED  C$usb.c$495$5$30                 
       0C:  15F0  A$usb$2059                       
       0C:  15F1  A$usb$2060                       
       0C:  15F2  A$usb$2061                       
       0C:  15F5  A$usb$2063                       
       0C:  15F7  A$usb$2066                       
       0C:  15F7  C$usb.c$499$6$32                 
       0C:  15F8  A$usb$2070                       
       0C:  15F8  C$usb.c$507$5$30                 
       0C:  15FA  A$usb$2071                       
       0C:  15FC  A$usb$2072                       
       0C:  15FD  A$usb$2073                       
       0C:  15FE  A$usb$2074                       
       0C:  1600  A$usb$2075                       
ASxxxx Linker V02.00 + NoICE + sdld,  page 157.
Hexadecimal

Area                               Addr   Size   Decimal Bytes (Attributes)
--------------------------------   ----   ----   ------- ----- ------------
CSEG                               051D   157D =   5501. bytes (REL,CON,CODE)

      Value  Global                              Global Defined In Module
      -----  ---------------------------------   ------------------------
       0C:  1601  A$usb$2076                       
       0C:  1604  A$usb$2081                       
       0C:  1604  C$usb.c$508$5$30                 
       0C:  1604  C$usb.c$510$3$24                 
       0C:  1607  A$usb$2087                       
       0C:  1607  C$usb.c$511$3$24                 
       0C:  1607  C$usb.c$519$2$2                  
       0C:  1608  A$usb$2098                       
       0C:  1608  C$usb.c$520$2$2                  
       0C:  1608  C$usb.c$523$3$33                 
       0C:  1608  C$usb.c$524$3$33                 
       0C:  1608  C$usb.c$526$2$2                  
       0C:  160B  A$usb$2102                       
       0C:  160B  C$usb.c$529$3$34                 
       0C:  160D  A$usb$2103                       
       0C:  160F  A$usb$2104                       
       0C:  1610  A$usb$2105                       
       0C:  1611  A$usb$2106                       
       0C:  1613  A$usb$2107                       
       0C:  1614  A$usb$2108                       
       0C:  1617  A$usb$2109                       
       0C:  161A  A$usb$2117                       
       0C:  161A  C$usb.c$530$3$34                 
       0C:  161A  C$usb.c$532$1$1                  
       0C:  161A  C$usb.c$533$1$1                  
       0C:  161A  XFusb$usbStandardDeviceRequestHan
       0C:  161B  A$usb$2131                       
       0C:  161B  C$usb.c$535$1$1                  
       0C:  161B  C$usb.c$537$1$1                  
       0C:  161B  G$usbSuspended$0$0               
       0C:  161B  _usbSuspended                    
       0C:  161D  A$usb$2134                       
       0C:  161D  C$usb.c$538$1$1                  
       0C:  161D  XG$usbSuspended$0$0              
       0C:  161E  A$usb$2148                       
       0C:  161E  C$usb.c$554$1$1                  
       0C:  161E  C$usb.c$556$1$1                  
       0C:  161E  G$usbSleep$0$0                   
       0C:  161E  _usbSleep                        
       0C:  1620  A$usb$2151                       
       0C:  1620  C$usb.c$557$1$1                  
       0C:  1622  A$usb$2152                       
       0C:  1624  A$usb$2155                       
       0C:  1624  C$usb.c$561$1$1                  
       0C:  1626  A$usb$2158                       
       0C:  1626  C$usb.c$562$1$1                  
       0C:  1629  A$usb$2161                       
       0C:  1629  C$usb.c$563$1$1                  
       0C:  162C  A$usb$2167                       
       0C:  162C  C$usb.c$565$1$1                  
       0C:  162C  C$usb.c$568$2$2                  
ASxxxx Linker V02.00 + NoICE + sdld,  page 158.
Hexadecimal

Area                               Addr   Size   Decimal Bytes (Attributes)
--------------------------------   ----   ----   ------- ----- ------------
CSEG                               051D   157D =   5501. bytes (REL,CON,CODE)

      Value  Global                              Global Defined In Module
      -----  ---------------------------------   ------------------------
       0C:  162F  A$usb$2170                       
       0C:  162F  C$usb.c$569$2$2                  
       0C:  1631  A$usb$2173                       
       0C:  1631  C$usb.c$571$2$2                  
       0C:  1633  A$usb$2176                       
       0C:  1633  C$usb.c$574$2$2                  
       0C:  1635  A$usb$2177                       
       0C:  1637  A$usb$2178                       
       0C:  1638  A$usb$2179                       
       0C:  163A  A$usb$2180                       
       0C:  163C  A$usb$2183                       
       0C:  163C  C$usb.c$575$2$2                  
       0C:  163D  A$usb$2184                       
       0C:  163E  A$usb$2185                       
       0C:  163F  A$usb$2188                       
       0C:  163F  C$usb.c$576$2$2                  
       0C:  1641  A$usb$2189                       
       0C:  1643  A$usb$2190                       
       0C:  1645  A$usb$2193                       
       0C:  1645  C$usb.c$578$3$3                  
       0C:  1647  A$usb$2196                       
       0C:  1647  C$usb.c$579$3$3                  
       0C:  164A  A$usb$2199                       
       0C:  164A  C$usb.c$580$3$3                  
       0C:  164C  A$usb$2203                       
       0C:  164C  C$usb.c$586$2$2                  
       0C:  164E  A$usb$2206                       
       0C:  164E  C$usb.c$592$2$2                  
       0C:  1650  A$usb$2207                       
       0C:  1653  A$usb$2210                       
       0C:  1653  C$usb.c$594$3$4                  
       0C:  1655  A$usb$2214                       
       0C:  1655  C$usb.c$597$1$1                  
       0C:  1658  A$usb$2215                       
       0C:  165A  A$usb$2216                       
       0C:  165D  A$usb$2217                       
       0C:  165F  A$usb$2218                       
       0C:  1661  A$usb$2222                       
       0C:  1661  C$usb.c$601$1$1                  
       0C:  1663  A$usb$2223                       
       0C:  1666  A$usb$2226                       
       0C:  1666  C$usb.c$604$1$1                  
       0C:  1668  A$usb$2229                       
       0C:  1668  C$usb.c$605$1$1                  
       0C:  166A  A$usb$2230                       
       0C:  166C  A$usb$2233                       
       0C:  166C  C$usb.c$606$1$1                  
       0C:  166C  XG$usbSleep$0$0                  
       0C:  166D  A$usb$2245                       
       0C:  166D  C$usb.c$608$1$1                  
       0C:  166D  G$usbControlRead$0$0             
ASxxxx Linker V02.00 + NoICE + sdld,  page 159.
Hexadecimal

Area                               Addr   Size   Decimal Bytes (Attributes)
--------------------------------   ----   ----   ------- ----- ------------
CSEG                               051D   157D =   5501. bytes (REL,CON,CODE)

      Value  Global                              Global Defined In Module
      -----  ---------------------------------   ------------------------
       0C:  166D  _usbControlRead                  
       0C:  166F  A$usb$2246                       
       0C:  1671  A$usb$2249                       
       0C:  1671  C$usb.c$610$1$1                  
       0C:  1674  A$usb$2250                       
       0C:  1676  A$usb$2251                       
       0C:  1677  A$usb$2254                       
       0C:  1677  C$usb.c$611$1$1                  
       0C:  167A  A$usb$2255                       
       0C:  167B  A$usb$2256                       
       0C:  167C  A$usb$2257                       
       0C:  167D  A$usb$2258                       
       0C:  167E  A$usb$2259                       
       0C:  167F  A$usb$2262                       
       0C:  167F  C$usb.c$612$1$1                  
       0C:  1681  A$usb$2263                       
       0C:  1682  A$usb$2264                       
       0C:  1683  A$usb$2265                       
       0C:  1684  A$usb$2266                       
       0C:  1685  A$usb$2267                       
       0C:  1686  A$usb$2268                       
       0C:  1688  A$usb$2269                       
       0C:  1689  A$usb$2270                       
       0C:  168A  A$usb$2271                       
       0C:  168B  A$usb$2272                       
       0C:  168C  A$usb$2273                       
       0C:  168D  A$usb$2276                       
       0C:  168D  C$usb.c$613$1$1                  
       0C:  168D  XG$usbControlRead$0$0            
       0C:  168E  A$usb$2288                       
       0C:  168E  C$usb.c$615$1$1                  
       0C:  168E  G$usbControlWrite$0$0            
       0C:  168E  _usbControlWrite                 
       0C:  1690  A$usb$2289                       
       0C:  1692  A$usb$2292                       
       0C:  1692  C$usb.c$617$1$1                  
       0C:  1695  A$usb$2293                       
       0C:  1697  A$usb$2294                       
       0C:  1698  A$usb$2297                       
       0C:  1698  C$usb.c$618$1$1                  
       0C:  169B  A$usb$2298                       
       0C:  169C  A$usb$2299                       
       0C:  169D  A$usb$2300                       
       0C:  169E  A$usb$2301                       
       0C:  169F  A$usb$2302                       
       0C:  16A0  A$usb$2305                       
       0C:  16A0  C$usb.c$619$1$1                  
       0C:  16A2  A$usb$2306                       
       0C:  16A3  A$usb$2307                       
       0C:  16A4  A$usb$2308                       
       0C:  16A5  A$usb$2309                       
ASxxxx Linker V02.00 + NoICE + sdld,  page 160.
Hexadecimal

Area                               Addr   Size   Decimal Bytes (Attributes)
--------------------------------   ----   ----   ------- ----- ------------
CSEG                               051D   157D =   5501. bytes (REL,CON,CODE)

      Value  Global                              Global Defined In Module
      -----  ---------------------------------   ------------------------
       0C:  16A6  A$usb$2310                       
       0C:  16A7  A$usb$2311                       
       0C:  16A9  A$usb$2312                       
       0C:  16AA  A$usb$2313                       
       0C:  16AB  A$usb$2314                       
       0C:  16AC  A$usb$2315                       
       0C:  16AD  A$usb$2316                       
       0C:  16AE  A$usb$2319                       
       0C:  16AE  C$usb.c$620$1$1                  
       0C:  16AE  XG$usbControlWrite$0$0           
       0C:  16AF  A$usb$2333                       
       0C:  16AF  C$usb.c$622$1$1                  
       0C:  16AF  C$usb.c$624$1$1                  
       0C:  16AF  G$usbControlAcknowledge$0$0      
       0C:  16AF  _usbControlAcknowledge           
       0C:  16B2  A$usb$2334                       
       0C:  16B4  A$usb$2335                       
       0C:  16B5  A$usb$2338                       
       0C:  16B5  C$usb.c$625$1$1                  
       0C:  16B8  A$usb$2339                       
       0C:  16B9  A$usb$2340                       
       0C:  16BA  A$usb$2341                       
       0C:  16BB  A$usb$2342                       
       0C:  16BC  A$usb$2345                       
       0C:  16BC  C$usb.c$626$1$1                  
       0C:  16BC  XG$usbControlAcknowledge$0$0     
       0C:  16BD  A$usb$2359                       
       0C:  16BD  C$usb.c$628$1$1                  
       0C:  16BD  C$usb.c$630$1$1                  
       0C:  16BD  G$usbControlStall$0$0            
       0C:  16BD  _usbControlStall                 
       0C:  16C0  A$usb$2360                       
       0C:  16C1  A$usb$2361                       
       0C:  16C2  A$usb$2364                       
       0C:  16C2  C$usb.c$631$1$1                  
       0C:  16C2  XG$usbControlStall$0$0           
       0C:  16C3  A$usb$2376                       
       0C:  16C3  C$usb.c$633$1$1                  
       0C:  16C3  G$usbInitEndpointIn$0$0          
       0C:  16C3  _usbInitEndpointIn               
       0C:  16C5  A$usb$2377                       
       0C:  16C8  A$usb$2378                       
       0C:  16C9  A$usb$2381                       
       0C:  16C9  C$usb.c$636$1$1                  
       0C:  16CB  A$usb$2382                       
       0C:  16CC  A$usb$2383                       
       0C:  16CD  A$usb$2384                       
       0C:  16CF  A$usb$2385                       
       0C:  16D1  A$usb$2386                       
       0C:  16D2  A$usb$2387                       
       0C:  16D3  A$usb$2388                       
ASxxxx Linker V02.00 + NoICE + sdld,  page 161.
Hexadecimal

Area                               Addr   Size   Decimal Bytes (Attributes)
--------------------------------   ----   ----   ------- ----- ------------
CSEG                               051D   157D =   5501. bytes (REL,CON,CODE)

      Value  Global                              Global Defined In Module
      -----  ---------------------------------   ------------------------
       0C:  16D4  A$usb$2389                       
       0C:  16D5  A$usb$2390                       
       0C:  16D6  A$usb$2391                       
       0C:  16D7  A$usb$2392                       
       0C:  16D8  A$usb$2393                       
       0C:  16D9  A$usb$2394                       
       0C:  16DA  A$usb$2395                       
       0C:  16DB  A$usb$2396                       
       0C:  16DD  A$usb$2397                       
       0C:  16DE  A$usb$2398                       
       0C:  16DF  A$usb$2399                       
       0C:  16E1  A$usb$2400                       
       0C:  16E2  A$usb$2401                       
       0C:  16E3  A$usb$2402                       
       0C:  16E4  A$usb$2403                       
       0C:  16E7  A$usb$2404                       
       0C:  16E9  A$usb$2406                       
       0C:  16EC  A$usb$2407                       
       0C:  16ED  A$usb$2408                       
       0C:  16EE  A$usb$2411                       
       0C:  16EE  C$usb.c$637$1$1                  
       0C:  16F1  A$usb$2412                       
       0C:  16F3  A$usb$2413                       
       0C:  16F4  A$usb$2416                       
       0C:  16F4  C$usb.c$638$1$1                  
       0C:  16F4  XG$usbInitEndpointIn$0$0         
       0C:  16F5  A$usb$2428                       
       0C:  16F5  C$usb.c$640$1$1                  
       0C:  16F5  G$usbInitEndpointOut$0$0         
       0C:  16F5  _usbInitEndpointOut              
       0C:  16F7  A$usb$2429                       
       0C:  16FA  A$usb$2430                       
       0C:  16FB  A$usb$2433                       
       0C:  16FB  C$usb.c$643$1$1                  
       0C:  16FD  A$usb$2434                       
       0C:  16FE  A$usb$2435                       
       0C:  16FF  A$usb$2436                       
       0C:  1701  A$usb$2437                       
       0C:  1703  A$usb$2438                       
       0C:  1704  A$usb$2439                       
       0C:  1705  A$usb$2440                       
       0C:  1706  A$usb$2441                       
       0C:  1707  A$usb$2442                       
       0C:  1708  A$usb$2443                       
       0C:  1709  A$usb$2444                       
       0C:  170A  A$usb$2445                       
       0C:  170B  A$usb$2446                       
       0C:  170C  A$usb$2447                       
       0C:  170D  A$usb$2448                       
       0C:  170F  A$usb$2449                       
       0C:  1710  A$usb$2450                       
ASxxxx Linker V02.00 + NoICE + sdld,  page 162.
Hexadecimal

Area                               Addr   Size   Decimal Bytes (Attributes)
--------------------------------   ----   ----   ------- ----- ------------
CSEG                               051D   157D =   5501. bytes (REL,CON,CODE)

      Value  Global                              Global Defined In Module
      -----  ---------------------------------   ------------------------
       0C:  1711  A$usb$2451                       
       0C:  1713  A$usb$2452                       
       0C:  1714  A$usb$2453                       
       0C:  1715  A$usb$2454                       
       0C:  1716  A$usb$2455                       
       0C:  1719  A$usb$2456                       
       0C:  171B  A$usb$2458                       
       0C:  171E  A$usb$2459                       
       0C:  171F  A$usb$2460                       
       0C:  1720  A$usb$2463                       
       0C:  1720  C$usb.c$644$1$1                  
       0C:  1723  A$usb$2464                       
       0C:  1725  A$usb$2465                       
       0C:  1726  A$usb$2468                       
       0C:  1726  C$usb.c$645$1$1                  
       0C:  1726  XG$usbInitEndpointOut$0$0        
       0C:  1727  A$green_led$754                  
       0C:  1727  C$green_led.c$13$0$0             
       0C:  1727  C$green_led.c$15$1$1             
       0C:  1727  C$green_led.c$18$2$2             
       0C:  1727  G$usbShowStatusWithGreenLed$0$0  
       0C:  1727  _usbShowStatusWithGreenLed       
       0C:  172A  A$green_led$755                  
       0C:  172C  A$green_led$759                  
       0C:  172C  C$green_led.c$21$2$2             
       0C:  172F  A$green_led$760                  
       0C:  1730  A$green_led$761                  
       0C:  1731  A$green_led$762                  
       0C:  1733  A$green_led$763                  
       0C:  1734  A$green_led$766                  
       0C:  1734  C$green_led.c$25$2$2             
       0C:  1737  A$green_led$769                  
       0C:  1737  C$green_led.c$27$3$3             
       0C:  1739  A$green_led$772                  
       0C:  1739  C$green_led.c$28$3$3             
       0C:  173C  A$green_led$773                  
       0C:  173D  A$green_led$774                  
       0C:  173E  A$green_led$775                  
       0C:  1740  A$green_led$776                  
       0C:  1741  A$green_led$780                  
       0C:  1741  C$green_led.c$32$1$1             
       0C:  1744  A$green_led$781                  
       0C:  1746  A$green_led$782                  
       0C:  1749  A$green_led$783                  
       0C:  174A  A$green_led$784                  
       0C:  174B  A$green_led$785                  
       0C:  174D  A$green_led$789                  
       0C:  174D  C$green_led.c$34$3$5             
       0C:  1750  A$green_led$790                  
       0C:  1751  A$green_led$794                  
       0C:  1751  C$green_led.c$37$1$1             
ASxxxx Linker V02.00 + NoICE + sdld,  page 163.
Hexadecimal

Area                               Addr   Size   Decimal Bytes (Attributes)
--------------------------------   ----   ----   ------- ----- ------------
CSEG                               051D   157D =   5501. bytes (REL,CON,CODE)

      Value  Global                              Global Defined In Module
      -----  ---------------------------------   ------------------------
       0C:  1754  A$green_led$797                  
       0C:  1754  C$green_led.c$39$2$6             
       0C:  1757  A$green_led$800                  
       0C:  1757  C$green_led.c$41$4$8             
       0C:  175A  A$green_led$801                  
       0C:  175B  A$green_led$802                  
       0C:  175C  A$green_led$803                  
       0C:  175E  A$green_led$804                  
       0C:  1760  A$green_led$805                  
       0C:  1761  A$green_led$806                  
       0C:  1762  A$green_led$807                  
       0C:  1764  A$green_led$808                  
       0C:  1765  A$green_led$809                  
       0C:  1766  A$green_led$810                  
       0C:  1767  A$green_led$811                  
       0C:  1768  A$green_led$812                  
       0C:  1769  A$green_led$813                  
       0C:  176A  A$green_led$814                  
       0C:  176B  A$green_led$815                  
       0C:  176C  A$green_led$816                  
       0C:  176F  A$green_led$817                  
       0C:  1772  A$green_led$818                  
       0C:  1774  A$green_led$820                  
       0C:  1777  A$green_led$824                  
       0C:  1777  C$green_led.c$43$3$7             
       0C:  177A  A$green_led$825                  
       0C:  177B  A$green_led$826                  
       0C:  177C  A$green_led$827                  
       0C:  177E  A$green_led$828                  
       0C:  177F  A$green_led$829                  
       0C:  1780  A$green_led$830                  
       0C:  1781  A$green_led$831                  
       0C:  1782  A$green_led$832                  
       0C:  1783  A$green_led$833                  
       0C:  1785  A$green_led$834                  
       0C:  1788  A$green_led$836                  
       0C:  178A  A$green_led$839                  
       0C:  178A  C$green_led.c$45$4$9             
       0C:  178C  A$green_led$840                  
       0C:  178D  A$green_led$844                  
       0C:  178D  C$green_led.c$50$4$11            
       0C:  1790  A$green_led$845                  
       0C:  1791  A$green_led$849                  
       0C:  1791  C$green_led.c$57$3$13            
       0C:  1794  A$green_led$850                  
       0C:  1796  A$green_led$851                  
       0C:  1798  A$green_led$852                  
       0C:  1799  A$green_led$853                  
       0C:  179A  A$green_led$854                  
       0C:  179B  A$green_led$855                  
       0C:  179D  A$green_led$856                  
ASxxxx Linker V02.00 + NoICE + sdld,  page 164.
Hexadecimal

Area                               Addr   Size   Decimal Bytes (Attributes)
--------------------------------   ----   ----   ------- ----- ------------
CSEG                               051D   157D =   5501. bytes (REL,CON,CODE)

      Value  Global                              Global Defined In Module
      -----  ---------------------------------   ------------------------
       0C:  179E  A$green_led$857                  
       0C:  17A0  A$green_led$858                  
       0C:  17A3  A$green_led$859                  
       0C:  17A4  A$green_led$861                  
       0C:  17A7  A$green_led$865                  
       0C:  17A7  C$green_led.c$59$1$1             
       0C:  17A7  XG$usbShowStatusWithGreenLed$0$0 
       0C:  17A8  A$gpio$755                       
       0C:  17A8  C$gpio.c$36$0$0                  
       0C:  17A8  G$setDigitalOutput$0$0           
       0C:  17A8  _setDigitalOutput                
       0C:  17AA  A$gpio$758                       
       0C:  17AA  C$gpio.c$38$1$1                  
       0C:  17AC  A$gpio$759                       
       0C:  17AF  A$gpio$761                       
       0C:  17B1  A$gpio$762                       
       0C:  17B2  A$gpio$764                       
       0C:  17B3  A$gpio$765                       
       0C:  17B5  A$gpio$766                       
       0C:  17B6  A$gpio$767                       
       0C:  17B8  A$gpio$768                       
       0C:  17B9  A$gpio$769                       
       0C:  17BB  A$gpio$770                       
       0C:  17BC  A$gpio$771                       
       0C:  17BE  A$gpio$772                       
       0C:  17F1  A$gpio$826                       
       0C:  17F3  A$gpio$827                       
       0C:  17F5  A$gpio$828                       
       0C:  17F8  A$gpio$829                       
       0C:  17F9  A$gpio$831                       
       0C:  17FB  A$gpio$832                       
       0C:  17FD  A$gpio$833                       
       0C:  1800  A$gpio$834                       
       0C:  1801  A$gpio$836                       
       0C:  1803  A$gpio$837                       
       0C:  1805  A$gpio$838                       
       0C:  1808  A$gpio$839                       
       0C:  1809  A$gpio$841                       
       0C:  180B  A$gpio$842                       
       0C:  180D  A$gpio$843                       
       0C:  1810  A$gpio$844                       
       0C:  1811  A$gpio$846                       
       0C:  1813  A$gpio$847                       
       0C:  1815  A$gpio$848                       
       0C:  1818  A$gpio$849                       
       0C:  1819  A$gpio$851                       
       0C:  181B  A$gpio$852                       
       0C:  181D  A$gpio$853                       
       0C:  1820  A$gpio$854                       
       0C:  1821  A$gpio$856                       
       0C:  1823  A$gpio$857                       
ASxxxx Linker V02.00 + NoICE + sdld,  page 165.
Hexadecimal

Area                               Addr   Size   Decimal Bytes (Attributes)
--------------------------------   ----   ----   ------- ----- ------------
CSEG                               051D   157D =   5501. bytes (REL,CON,CODE)

      Value  Global                              Global Defined In Module
      -----  ---------------------------------   ------------------------
       0C:  1825  A$gpio$858                       
       0C:  1828  A$gpio$859                       
       0C:  1829  A$gpio$861                       
       0C:  182B  A$gpio$862                       
       0C:  182D  A$gpio$863                       
       0C:  1830  A$gpio$864                       
       0C:  1831  A$gpio$866                       
       0C:  1833  A$gpio$867                       
       0C:  1835  A$gpio$868                       
       0C:  1838  A$gpio$869                       
       0C:  1839  A$gpio$871                       
       0C:  183B  A$gpio$872                       
       0C:  183D  A$gpio$873                       
       0C:  1840  A$gpio$874                       
       0C:  1841  A$gpio$876                       
       0C:  1843  A$gpio$877                       
       0C:  1845  A$gpio$878                       
       0C:  1848  A$gpio$879                       
       0C:  1849  A$gpio$881                       
       0C:  184B  A$gpio$882                       
       0C:  184D  A$gpio$883                       
       0C:  1850  A$gpio$884                       
       0C:  1851  A$gpio$886                       
       0C:  1853  A$gpio$887                       
       0C:  1855  A$gpio$888                       
       0C:  1858  A$gpio$889                       
       0C:  1859  A$gpio$891                       
       0C:  185B  A$gpio$892                       
       0C:  185D  A$gpio$893                       
       0C:  1860  A$gpio$894                       
       0C:  1861  A$gpio$896                       
       0C:  1863  A$gpio$897                       
       0C:  1865  A$gpio$898                       
       0C:  1868  A$gpio$899                       
       0C:  1869  A$gpio$901                       
       0C:  186B  A$gpio$902                       
       0C:  186D  A$gpio$903                       
       0C:  1870  A$gpio$904                       
       0C:  1871  A$gpio$906                       
       0C:  1873  A$gpio$907                       
       0C:  1875  A$gpio$908                       
       0C:  1878  A$gpio$909                       
       0C:  1879  A$gpio$911                       
       0C:  187B  A$gpio$912                       
       0C:  187D  A$gpio$913                       
       0C:  1880  A$gpio$914                       
       0C:  1881  A$gpio$916                       
       0C:  1883  A$gpio$917                       
       0C:  1885  A$gpio$918                       
       0C:  1888  A$gpio$922                       
       0C:  1888  C$gpio.c$39$1$1                  
ASxxxx Linker V02.00 + NoICE + sdld,  page 166.
Hexadecimal

Area                               Addr   Size   Decimal Bytes (Attributes)
--------------------------------   ----   ----   ------- ----- ------------
CSEG                               051D   157D =   5501. bytes (REL,CON,CODE)

      Value  Global                              Global Defined In Module
      -----  ---------------------------------   ------------------------
       0C:  1888  XG$setDigitalOutput$0$0          
       0C:  1889  A$gpio$936                       
       0C:  1889  C$gpio.c$41$1$1                  
       0C:  1889  G$setDigitalInput$0$0            
       0C:  1889  _setDigitalInput                 
       0C:  188B  A$gpio$939                       
       0C:  188B  C$gpio.c$43$1$1                  
       0C:  188D  A$gpio$940                       
       0C:  1890  A$gpio$942                       
       0C:  1892  A$gpio$943                       
       0C:  1893  A$gpio$945                       
       0C:  1894  A$gpio$946                       
       0C:  1896  A$gpio$947                       
       0C:  1897  A$gpio$948                       
       0C:  1899  A$gpio$949                       
       0C:  189A  A$gpio$950                       
       0C:  189C  A$gpio$951                       
       0C:  189D  A$gpio$952                       
       0C:  189F  A$gpio$953                       
       0C:  18D2  A$gpio$1007                      
       0C:  18D5  A$gpio$1008                      
       0C:  18D8  A$gpio$1009                      
       0C:  18DA  A$gpio$1011                      
       0C:  18DD  A$gpio$1013                      
       0C:  18E0  A$gpio$1014                      
       0C:  18E1  A$gpio$1016                      
       0C:  18E4  A$gpio$1017                      
       0C:  18E7  A$gpio$1018                      
       0C:  18E9  A$gpio$1020                      
       0C:  18EC  A$gpio$1022                      
       0C:  18EF  A$gpio$1023                      
       0C:  18F0  A$gpio$1025                      
       0C:  18F3  A$gpio$1026                      
       0C:  18F6  A$gpio$1027                      
       0C:  18F8  A$gpio$1029                      
       0C:  18FB  A$gpio$1031                      
       0C:  18FE  A$gpio$1032                      
       0C:  18FF  A$gpio$1034                      
       0C:  1902  A$gpio$1035                      
       0C:  1905  A$gpio$1036                      
       0C:  1907  A$gpio$1038                      
       0C:  190A  A$gpio$1040                      
       0C:  190D  A$gpio$1041                      
       0C:  190E  A$gpio$1043                      
       0C:  1911  A$gpio$1044                      
       0C:  1914  A$gpio$1045                      
       0C:  1916  A$gpio$1047                      
       0C:  1919  A$gpio$1049                      
       0C:  191C  A$gpio$1050                      
       0C:  191D  A$gpio$1052                      
       0C:  1920  A$gpio$1053                      
ASxxxx Linker V02.00 + NoICE + sdld,  page 167.
Hexadecimal

Area                               Addr   Size   Decimal Bytes (Attributes)
--------------------------------   ----   ----   ------- ----- ------------
CSEG                               051D   157D =   5501. bytes (REL,CON,CODE)

      Value  Global                              Global Defined In Module
      -----  ---------------------------------   ------------------------
       0C:  1923  A$gpio$1054                      
       0C:  1925  A$gpio$1056                      
       0C:  1928  A$gpio$1058                      
       0C:  192B  A$gpio$1059                      
       0C:  192C  A$gpio$1061                      
       0C:  192F  A$gpio$1062                      
       0C:  1932  A$gpio$1063                      
       0C:  1934  A$gpio$1065                      
       0C:  1937  A$gpio$1067                      
       0C:  193A  A$gpio$1068                      
       0C:  193B  A$gpio$1070                      
       0C:  193E  A$gpio$1071                      
       0C:  1941  A$gpio$1072                      
       0C:  1943  A$gpio$1074                      
       0C:  1946  A$gpio$1076                      
       0C:  1949  A$gpio$1077                      
       0C:  194A  A$gpio$1079                      
       0C:  194D  A$gpio$1080                      
       0C:  1950  A$gpio$1081                      
       0C:  1952  A$gpio$1083                      
       0C:  1955  A$gpio$1085                      
       0C:  1958  A$gpio$1086                      
       0C:  1959  A$gpio$1088                      
       0C:  195C  A$gpio$1089                      
       0C:  195F  A$gpio$1090                      
       0C:  1961  A$gpio$1092                      
       0C:  1964  A$gpio$1094                      
       0C:  1967  A$gpio$1095                      
       0C:  1968  A$gpio$1097                      
       0C:  196B  A$gpio$1098                      
       0C:  196E  A$gpio$1099                      
       0C:  1970  A$gpio$1101                      
       0C:  1973  A$gpio$1103                      
       0C:  1976  A$gpio$1104                      
       0C:  1977  A$gpio$1106                      
       0C:  197A  A$gpio$1107                      
       0C:  197D  A$gpio$1108                      
       0C:  197F  A$gpio$1110                      
       0C:  1982  A$gpio$1112                      
       0C:  1985  A$gpio$1113                      
       0C:  1986  A$gpio$1115                      
       0C:  1989  A$gpio$1116                      
       0C:  198C  A$gpio$1117                      
       0C:  198E  A$gpio$1119                      
       0C:  1991  A$gpio$1121                      
       0C:  1994  A$gpio$1122                      
       0C:  1995  A$gpio$1124                      
       0C:  1998  A$gpio$1125                      
       0C:  199B  A$gpio$1126                      
       0C:  199D  A$gpio$1128                      
       0C:  19A0  A$gpio$1130                      
ASxxxx Linker V02.00 + NoICE + sdld,  page 168.
Hexadecimal

Area                               Addr   Size   Decimal Bytes (Attributes)
--------------------------------   ----   ----   ------- ----- ------------
CSEG                               051D   157D =   5501. bytes (REL,CON,CODE)

      Value  Global                              Global Defined In Module
      -----  ---------------------------------   ------------------------
       0C:  19A3  A$gpio$1131                      
       0C:  19A4  A$gpio$1133                      
       0C:  19A7  A$gpio$1134                      
       0C:  19AA  A$gpio$1135                      
       0C:  19AC  A$gpio$1137                      
       0C:  19AF  A$gpio$1139                      
       0C:  19B2  A$gpio$1140                      
       0C:  19B3  A$gpio$1142                      
       0C:  19B6  A$gpio$1143                      
       0C:  19B9  A$gpio$1144                      
       0C:  19BB  A$gpio$1146                      
       0C:  19BE  A$gpio$1148                      
       0C:  19C1  A$gpio$1149                      
       0C:  19C2  A$gpio$1151                      
       0C:  19C5  A$gpio$1152                      
       0C:  19C8  A$gpio$1153                      
       0C:  19CA  A$gpio$1155                      
       0C:  19CD  A$gpio$1157                      
       0C:  19D0  A$gpio$1158                      
       0C:  19D1  A$gpio$1160                      
       0C:  19D4  A$gpio$1161                      
       0C:  19D7  A$gpio$1162                      
       0C:  19D9  A$gpio$1164                      
       0C:  19DC  A$gpio$1166                      
       0C:  19DF  A$gpio$1167                      
       0C:  19E0  A$gpio$1169                      
       0C:  19E3  A$gpio$1170                      
       0C:  19E6  A$gpio$1171                      
       0C:  19E8  A$gpio$1173                      
       0C:  19EB  A$gpio$1175                      
       0C:  19EE  A$gpio$1179                      
       0C:  19EE  C$gpio.c$44$1$1                  
       0C:  19EE  XG$setDigitalInput$0$0           
       0C:  19EF  A$gpio$1192                      
       0C:  19EF  C$gpio.c$46$1$1                  
       0C:  19EF  G$isPinHigh$0$0                  
       0C:  19EF  _isPinHigh                       
       0C:  19F1  A$gpio$1195                      
       0C:  19F1  C$gpio.c$48$1$1                  
       0C:  19F3  A$gpio$1196                      
       0C:  19F6  A$gpio$1198                      
       0C:  19F8  A$gpio$1199                      
       0C:  19FB  A$gpio$1201                      
       0C:  19FC  A$gpio$1202                      
       0C:  19FE  A$gpio$1203                      
       0C:  19FF  A$gpio$1204                      
       0C:  1A01  A$gpio$1205                      
       0C:  1A02  A$gpio$1206                      
       0C:  1A04  A$gpio$1207                      
       0C:  1A05  A$gpio$1208                      
       0C:  1A07  A$gpio$1209                      
ASxxxx Linker V02.00 + NoICE + sdld,  page 169.
Hexadecimal

Area                               Addr   Size   Decimal Bytes (Attributes)
--------------------------------   ----   ----   ------- ----- ------------
CSEG                               051D   157D =   5501. bytes (REL,CON,CODE)

      Value  Global                              Global Defined In Module
      -----  ---------------------------------   ------------------------
       0C:  1A3A  A$gpio$1263                      
       0C:  1A3C  A$gpio$1264                      
       0C:  1A3D  A$gpio$1266                      
       0C:  1A3F  A$gpio$1267                      
       0C:  1A40  A$gpio$1269                      
       0C:  1A42  A$gpio$1270                      
       0C:  1A43  A$gpio$1272                      
       0C:  1A45  A$gpio$1273                      
       0C:  1A46  A$gpio$1275                      
       0C:  1A48  A$gpio$1276                      
       0C:  1A49  A$gpio$1278                      
       0C:  1A4B  A$gpio$1279                      
       0C:  1A4C  A$gpio$1281                      
       0C:  1A4E  A$gpio$1282                      
       0C:  1A4F  A$gpio$1284                      
       0C:  1A51  A$gpio$1285                      
       0C:  1A52  A$gpio$1287                      
       0C:  1A54  A$gpio$1288                      
       0C:  1A55  A$gpio$1290                      
       0C:  1A57  A$gpio$1291                      
       0C:  1A58  A$gpio$1293                      
       0C:  1A5A  A$gpio$1294                      
       0C:  1A5B  A$gpio$1296                      
       0C:  1A5D  A$gpio$1297                      
       0C:  1A5E  A$gpio$1299                      
       0C:  1A60  A$gpio$1300                      
       0C:  1A61  A$gpio$1302                      
       0C:  1A63  A$gpio$1303                      
       0C:  1A64  A$gpio$1305                      
       0C:  1A66  A$gpio$1306                      
       0C:  1A67  A$gpio$1308                      
       0C:  1A69  A$gpio$1309                      
       0C:  1A6A  A$gpio$1311                      
       0C:  1A6C  A$gpio$1312                      
       0C:  1A6D  A$gpio$1314                      
       0C:  1A6F  A$gpio$1315                      
       0C:  1A70  A$gpio$1317                      
       0C:  1A72  A$gpio$1318                      
       0C:  1A73  A$gpio$1322                      
       0C:  1A73  C$gpio.c$49$1$1                  
       0C:  1A74  A$gpio$1325                      
       0C:  1A74  C$gpio.c$50$1$1                  
       0C:  1A74  XG$isPinHigh$0$0                 
       0C:  1A75  A$gpio$1340                      
       0C:  1A75  C$gpio.c$52$1$1                  
       0C:  1A75  C$gpio.c$54$1$1                  
       0C:  1A75  G$setPort0PullType$0$0           
       0C:  1A75  _setPort0PullType                
       0C:  1A78  A$gpio$1341                      
       0C:  1A7B  A$gpio$1342                      
       0C:  1A7C  A$gpio$1346                      
ASxxxx Linker V02.00 + NoICE + sdld,  page 170.
Hexadecimal

Area                               Addr   Size   Decimal Bytes (Attributes)
--------------------------------   ----   ----   ------- ----- ------------
CSEG                               051D   157D =   5501. bytes (REL,CON,CODE)

      Value  Global                              Global Defined In Module
      -----  ---------------------------------   ------------------------
       0C:  1A7C  C$gpio.c$55$2$3                  
       0C:  1A7F  A$gpio$1349                      
       0C:  1A7F  C$gpio.c$56$1$1                  
       0C:  1A7F  XG$setPort0PullType$0$0          
       0C:  1A80  A$gpio$1364                      
       0C:  1A80  C$gpio.c$58$1$1                  
       0C:  1A80  C$gpio.c$60$1$1                  
       0C:  1A80  G$setPort1PullType$0$0           
       0C:  1A80  _setPort1PullType                
       0C:  1A83  A$gpio$1365                      
       0C:  1A86  A$gpio$1366                      
       0C:  1A87  A$gpio$1370                      
       0C:  1A87  C$gpio.c$61$2$3                  
       0C:  1A8A  A$gpio$1373                      
       0C:  1A8A  C$gpio.c$62$1$1                  
       0C:  1A8A  XG$setPort1PullType$0$0          
       0C:  1A8B  A$gpio$1388                      
       0C:  1A8B  C$gpio.c$64$1$1                  
       0C:  1A8B  C$gpio.c$66$1$1                  
       0C:  1A8B  G$setPort2PullType$0$0           
       0C:  1A8B  _setPort2PullType                
       0C:  1A8E  A$gpio$1389                      
       0C:  1A91  A$gpio$1390                      
       0C:  1A92  A$gpio$1394                      
       0C:  1A92  C$gpio.c$67$2$3                  
       0C:  1A95  A$gpio$1397                      
       0C:  1A95  C$gpio.c$68$1$1                  
       0C:  1A95  XG$setPort2PullType$0$0          
       0C:  1A96  __sdcc_external_startup          
ASxxxx Linker V02.00 + NoICE + sdld,  page 171.
Hexadecimal

Area                               Addr   Size   Decimal Bytes (Attributes)
--------------------------------   ----   ----   ------- ----- ------------
CONST                              1A9A   009B =    155. bytes (REL,CON,CODE)

      Value  Global                              Global Defined In Module
      -----  ---------------------------------   ------------------------
       0C:  1A9A  Fvibes_lab_tx_5_0$INPUT_CHANNEL$0
       0C:  1A9B  G$param_radio_channel$0$0        
       0C:  1A9B  _param_radio_channel             
       0C:  1A9F  Fvibes_lab_radio_protocol$NAK_FIL
       0C:  1AA0  Fvibes_lab_radio_protocol$ACK_FIL
       0C:  1AA1  G$usbDeviceDescriptor$0$0        
       0C:  1AA1  _usbDeviceDescriptor             
       0C:  1AB3  G$usbConfigurationDescriptor$0$0 
       0C:  1AB3  _usbConfigurationDescriptor      
       0C:  1AF6  G$usbStringDescriptorCount$0$0   
       0C:  1AF6  _usbStringDescriptorCount        
       0C:  1AF7  Fusb_cdc_acm$languages$0$0       
       0C:  1AFB  Fusb_cdc_acm$manufacturer$0$0    
       0C:  1B21  Fusb_cdc_acm$product$0$0         
       0C:  1B2D  G$usbStringDescriptors$0$0       
       0C:  1B2D  _usbStringDescriptors            
ASxxxx Linker V02.00 + NoICE + sdld,  page 172.
Hexadecimal

Area                               Addr   Size   Decimal Bytes (Attributes)
--------------------------------   ----   ----   ------- ----- ------------
XINIT                              1B35   0009 =      9. bytes (REL,CON,CODE)

      Value  Global                              Global Defined In Module
      -----  ---------------------------------   ------------------------
       0C:  1B35  Fusb_cdc_acm$__xinit_usbComLineCo
       0C:  1B3C  Fusb$__xinit_usbDeviceState$0$0  
       0C:  1B3D  Fusb$__xinit_controlTransferState

ASxxxx Linker V02.00 + NoICE + sdld,  page 173.

Files Linked                              [ module(s) ]

libraries/xpage/xpage.rel                 [ 
src/vibes_lab_tx_5.0/vibes_lab_tx_5.0.re  [ 


Libraries Linked                          [ object file ]

libraries/lib/vibes_lab_radio_protocol.l  [ vibes_lab_radio_protocol ]
libraries/lib/wixel.lib                   [ time ]
libraries/lib/adc.lib                     [ adc ]
C:\Program Files (x86)\SDCC\bin\..\lib\m  [ crtclear.rel ]
C:\Program Files (x86)\SDCC\bin\..\lib\m  [ crtxinit.rel ]
libraries/lib/wixel.lib                   [ delay ]
libraries/lib/wixel.lib                   [ board ]
libraries/lib/usb_cdc_acm.lib             [ usb_cdc_acm ]
libraries/lib/wixel.lib                   [ fixed ]
C:\Program Files (x86)\SDCC\bin\..\lib\m  [ crtxclear.rel ]
libraries/lib/dma.lib                     [ dma ]
libraries/lib/usb.lib                     [ usb ]
C:\Program Files (x86)\SDCC\bin\..\lib\m  [ crtcall.rel ]
libraries/lib/usb.lib                     [ green_led ]
libraries/lib/gpio.lib                    [ gpio ]
C:\Program Files (x86)\SDCC\bin\..\lib\m  [ crtstart.rel ]
C:\Program Files (x86)\SDCC\bin\..\lib\m  [ _startup.rel ]

ASxxxx Linker V02.00 + NoICE + sdld,  page 174.

User Base Address Definitions

HOME = 0x0400
XSEG = 0xf000
PSEG = 0xf000
ISEG = 0x0000
BSEG = 0x0000

